   1               		.file	"mainFirmware.c"
   2               	__SREG__ = 0x3f
   3               	__SP_H__ = 0x3e
   4               	__SP_L__ = 0x3d
   5               	__CCP__  = 0x34
   6               	__tmp_reg__ = 0
   7               	__zero_reg__ = 1
  15               	.Ltext0:
  16               	.global	init_clock
  18               	init_clock:
  19               	.LFB7:
  20               	.LM1:
  21               	/* prologue: function */
  22               	/* frame size = 0 */
  23               	.LM2:
  24 0000 8091 5000 		lds r24,80
  25 0004 8260      		ori r24,lo8(2)
  26 0006 8093 5000 		sts 80,r24
  27               	.L2:
  28               	.LM3:
  29 000a 8091 5100 		lds r24,81
  30 000e 81FF      		sbrs r24,1
  31 0010 00C0      		rjmp .L2
  32               	.LM4:
  33 0012 88ED      		ldi r24,lo8(-40)
  34 0014 84BF      		out 52-0,r24
  35               	.LM5:
  36 0016 8091 4000 		lds r24,64
  37 001a 8160      		ori r24,lo8(1)
  38 001c 8093 4000 		sts 64,r24
  39               	/* epilogue start */
  40               	.LM6:
  41 0020 0895      		ret
  42               	.LFE7:
  44               	.global	init_led
  46               	init_led:
  47               	.LFB8:
  48               	.LM7:
  49               	/* prologue: function */
  50               	/* frame size = 0 */
  51               	.LM8:
  52 0022 A0E0      		ldi r26,lo8(2304)
  53 0024 B9E0      		ldi r27,hi8(2304)
  54 0026 84E0      		ldi r24,lo8(4)
  55 0028 8C93      		st X,r24
  56               	.LM9:
  57 002a 83E7      		ldi r24,lo8(115)
  58 002c 1196      		adiw r26,1
  59 002e 8C93      		st X,r24
  60 0030 1197      		sbiw r26,1
  61               	.LM10:
  62 0032 8FEF      		ldi r24,lo8(-1)
  63 0034 9FEF      		ldi r25,hi8(-1)
  64 0036 D696      		adiw r26,54
  65 0038 8D93      		st X+,r24
  66 003a 9C93      		st X,r25
  67 003c D797      		sbiw r26,54+1
  68               	.LM11:
  69 003e E0E6      		ldi r30,lo8(1632)
  70 0040 F6E0      		ldi r31,hi8(1632)
  71 0042 8181      		ldd r24,Z+1
  72 0044 8760      		ori r24,lo8(7)
  73 0046 8183      		std Z+1,r24
  74               	.LBB622:
  75               	.LBB623:
  76               	.LM12:
  77 0048 8FEF      		ldi r24,lo8(-1)
  78 004a D996      		adiw r26,57
  79 004c 8C93      		st X,r24
  80 004e D997      		sbiw r26,57
  81               	.LM13:
  82 0050 DB96      		adiw r26,59
  83 0052 8C93      		st X,r24
  84               	.LM14:
  85 0054 8093 3D09 		sts 2365,r24
  86               	/* epilogue start */
  87               	.LBE623:
  88               	.LBE622:
  89               	.LM15:
  90 0058 0895      		ret
  91               	.LFE8:
  93               	.global	set_led
  95               	set_led:
  96               	.LFB9:
  97               	.LM16:
  98               	.LVL0:
  99               	/* prologue: function */
 100               	/* frame size = 0 */
 101               	.LM17:
 102 005a 8095      		com r24
 103               	.LVL1:
 104 005c E0E0      		ldi r30,lo8(2304)
 105 005e F9E0      		ldi r31,hi8(2304)
 106 0060 81AF      		std Z+57,r24
 107               	.LM18:
 108 0062 4095      		com r20
 109               	.LVL2:
 110 0064 43AF      		std Z+59,r20
 111               	.LM19:
 112 0066 6095      		com r22
 113               	.LVL3:
 114 0068 6093 3D09 		sts 2365,r22
 115               	/* epilogue start */
 116               	.LM20:
 117 006c 0895      		ret
 118               	.LFE9:
 120               	.global	init_bt_uart
 122               	init_bt_uart:
 123               	.LFB10:
 124               	.LM21:
 125               	/* prologue: function */
 126               	/* frame size = 0 */
 127               	.LM22:
 128 006e E0E6      		ldi r30,lo8(1632)
 129 0070 F6E0      		ldi r31,hi8(1632)
 130 0072 80E8      		ldi r24,lo8(-128)
 131 0074 8183      		std Z+1,r24
 132               	.LM23:
 133 0076 80E4      		ldi r24,lo8(64)
 134 0078 8283      		std Z+2,r24
 135               	.LM24:
 136 007a E0EB      		ldi r30,lo8(2480)
 137 007c F9E0      		ldi r31,hi8(2480)
 138 007e 83E0      		ldi r24,lo8(3)
 139 0080 8583      		std Z+5,r24
 140               	.LBB624:
 141               	.LBB625:
 142               	.LM25:
 143 0082 E093 0000 		sts BT_data,r30
 144 0086 F093 0000 		sts (BT_data)+1,r31
 145               	.LM26:
 146 008a 1092 0000 		sts BT_data+259,__zero_reg__
 147               	.LM27:
 148 008e 1092 0000 		sts BT_data+258,__zero_reg__
 149               	.LBE625:
 150               	.LBE624:
 151               	.LM28:
 152 0092 8381      		ldd r24,Z+3
 153 0094 8F7C      		andi r24,lo8(-49)
 154 0096 8062      		ori r24,lo8(32)
 155 0098 8383      		std Z+3,r24
 156               	.LM29:
 157 009a A0EA      		ldi r26,lo8(160)
 158 009c B0E0      		ldi r27,hi8(160)
 159 009e 1296      		adiw r26,2
 160 00a0 8C91      		ld r24,X
 161 00a2 1297      		sbiw r26,2
 162 00a4 8260      		ori r24,lo8(2)
 163 00a6 1296      		adiw r26,2
 164 00a8 8C93      		st X,r24
 165               	.LM30:
 166 00aa 83E8      		ldi r24,lo8(-125)
 167 00ac 8683      		std Z+6,r24
 168 00ae 80ED      		ldi r24,lo8(-48)
 169 00b0 8783      		std Z+7,r24
 170               	.LM31:
 171 00b2 8481      		ldd r24,Z+4
 172 00b4 8061      		ori r24,lo8(16)
 173 00b6 8483      		std Z+4,r24
 174               	.LM32:
 175 00b8 8481      		ldd r24,Z+4
 176 00ba 8860      		ori r24,lo8(8)
 177 00bc 8483      		std Z+4,r24
 178               	/* epilogue start */
 179               	.LM33:
 180 00be 0895      		ret
 181               	.LFE10:
 183               	.global	init_aux_uart
 185               	init_aux_uart:
 186               	.LFB11:
 187               	.LM34:
 188               	.LVL4:
 189               	/* prologue: function */
 190               	/* frame size = 0 */
 191               	.LM35:
 192 00c0 E0E4      		ldi r30,lo8(1600)
 193 00c2 F6E0      		ldi r31,hi8(1600)
 194 00c4 28E0      		ldi r18,lo8(8)
 195 00c6 2183      		std Z+1,r18
 196               	.LM36:
 197 00c8 24E0      		ldi r18,lo8(4)
 198 00ca 2283      		std Z+2,r18
 199               	.LM37:
 200 00cc E0EA      		ldi r30,lo8(2208)
 201 00ce F8E0      		ldi r31,hi8(2208)
 202 00d0 23E0      		ldi r18,lo8(3)
 203 00d2 2583      		std Z+5,r18
 204               	.LBB626:
 205               	.LBB627:
 206               	.LM38:
 207 00d4 E093 0000 		sts AUX_data,r30
 208 00d8 F093 0000 		sts (AUX_data)+1,r31
 209               	.LM39:
 210 00dc 1092 0000 		sts AUX_data+259,__zero_reg__
 211               	.LM40:
 212 00e0 1092 0000 		sts AUX_data+258,__zero_reg__
 213               	.LBE627:
 214               	.LBE626:
 215               	.LM41:
 216 00e4 2381      		ldd r18,Z+3
 217 00e6 2F7C      		andi r18,lo8(-49)
 218 00e8 2062      		ori r18,lo8(32)
 219 00ea 2383      		std Z+3,r18
 220               	.LM42:
 221 00ec A0EA      		ldi r26,lo8(160)
 222 00ee B0E0      		ldi r27,hi8(160)
 223 00f0 1296      		adiw r26,2
 224 00f2 2C91      		ld r18,X
 225 00f4 1297      		sbiw r26,2
 226 00f6 2260      		ori r18,lo8(2)
 227 00f8 1296      		adiw r26,2
 228 00fa 2C93      		st X,r18
 229               	.LM43:
 230 00fc 8683      		std Z+6,r24
 231 00fe 6295      		swap r22
 232               	.LVL5:
 233 0100 607F      		andi r22,lo8(-16)
 234 0102 892F      		mov r24,r25
 235 0104 990F      		lsl r25
 236 0106 990B      		sbc r25,r25
 237               	.LVL6:
 238 0108 682B      		or r22,r24
 239 010a 6783      		std Z+7,r22
 240               	.LM44:
 241 010c 8481      		ldd r24,Z+4
 242 010e 8061      		ori r24,lo8(16)
 243 0110 8483      		std Z+4,r24
 244               	.LM45:
 245 0112 8481      		ldd r24,Z+4
 246 0114 8860      		ori r24,lo8(8)
 247 0116 8483      		std Z+4,r24
 248               	/* epilogue start */
 249               	.LM46:
 250 0118 0895      		ret
 251               	.LFE11:
 253               	.global	set_aux_baud_rate
 255               	set_aux_baud_rate:
 256               	.LFB12:
 257               	.LM47:
 258               	.LVL7:
 259               	/* prologue: function */
 260               	/* frame size = 0 */
 261               	.LM48:
 262 011a E0EA      		ldi r30,lo8(2208)
 263 011c F8E0      		ldi r31,hi8(2208)
 264 011e 8683      		std Z+6,r24
 265 0120 6295      		swap r22
 266               	.LVL8:
 267 0122 607F      		andi r22,lo8(-16)
 268 0124 892F      		mov r24,r25
 269 0126 990F      		lsl r25
 270 0128 990B      		sbc r25,r25
 271               	.LVL9:
 272 012a 682B      		or r22,r24
 273 012c 6783      		std Z+7,r22
 274               	/* epilogue start */
 275               	.LM49:
 276 012e 0895      		ret
 277               	.LFE12:
 279               	.global	uart_putchar
 281               	uart_putchar:
 282               	.LFB13:
 283               	.LM50:
 284               	.LVL10:
 285               	/* prologue: function */
 286               	/* frame size = 0 */
 287 0130 FC01      		movw r30,r24
 288               	.LVL11:
 289               	.L16:
 290               	.LM51:
 291 0132 8181      		ldd r24,Z+1
 292 0134 85FF      		sbrs r24,5
 293 0136 00C0      		rjmp .L16
 294               	.LM52:
 295 0138 6083      		st Z,r22
 296               	/* epilogue start */
 297               	.LM53:
 298 013a 0895      		ret
 299               	.LFE13:
 301               	.global	uart_getchar_nb
 303               	uart_getchar_nb:
 304               	.LFB14:
 305               	.LM54:
 306               	.LVL12:
 307               	/* prologue: function */
 308               	/* frame size = 0 */
 309 013c FC01      		movw r30,r24
 310               	.LM55:
 311 013e 28EE      		ldi r18,lo8(1000)
 312 0140 33E0      		ldi r19,hi8(1000)
 313               	.LVL13:
 314               	.L21:
 315               	.LM56:
 316 0142 2150      		subi r18,lo8(-(-1))
 317 0144 3040      		sbci r19,hi8(-(-1))
 318               	.LM57:
 319 0146 8181      		ldd r24,Z+1
 320 0148 87FD      		sbrc r24,7
 321 014a 00C0      		rjmp .L20
 322 014c 2115      		cp r18,__zero_reg__
 323 014e 3105      		cpc r19,__zero_reg__
 324 0150 01F4      		brne .L21
 325 0152 00C0      		rjmp .L22
 326               	.L20:
 327               	.LM58:
 328 0154 232B      		or r18,r19
 329 0156 01F0      		breq .L22
 330               	.LM59:
 331 0158 8081      		ld r24,Z
 332 015a 0895      		ret
 333               	.L22:
 334 015c 80E0      		ldi r24,lo8(0)
 335               	.LM60:
 336 015e 0895      		ret
 337               	.LFE14:
 339               	.global	uart_getchar
 341               	uart_getchar:
 342               	.LFB15:
 343               	.LM61:
 344               	/* prologue: function */
 345               	/* frame size = 0 */
 346               	.LVL14:
 347               	.L27:
 348               	.LBB628:
 349               	.LBB629:
 350               	.LM62:
 351 0160 9091 0000 		lds r25,BT_data+258
 352               	.LVL15:
 353               	.LM63:
 354 0164 8091 0000 		lds r24,BT_data+259
 355               	.LVL16:
 356               	.LBE629:
 357               	.LBE628:
 358               	.LM64:
 359 0168 9817      		cp r25,r24
 360 016a 01F0      		breq .L27
 361               	.LBB630:
 362               	.LBB631:
 363               	.LM65:
 364 016c E091 0000 		lds r30,BT_data+259
 365 0170 F0E0      		ldi r31,lo8(0)
 366 0172 E050      		subi r30,lo8(-(BT_data))
 367 0174 F040      		sbci r31,hi8(-(BT_data))
 368 0176 8281      		ldd r24,Z+2
 369               	.LVL17:
 370               	.LM66:
 371 0178 9091 0000 		lds r25,BT_data+259
 372               	.LVL18:
 373 017c 9F5F      		subi r25,lo8(-(1))
 374 017e 9093 0000 		sts BT_data+259,r25
 375               	.LVL19:
 376               	/* epilogue start */
 377               	.LBE631:
 378               	.LBE630:
 379               	.LM67:
 380 0182 0895      		ret
 381               	.LFE15:
 383               	.global	uart_getchar_timeout
 385               	uart_getchar_timeout:
 386               	.LFB16:
 387               	.LM68:
 388               	.LVL20:
 389               	/* prologue: function */
 390               	/* frame size = 0 */
 391               	.LM69:
 392 0184 20E0      		ldi r18,lo8(0)
 393 0186 30E0      		ldi r19,hi8(0)
 394               	.LVL21:
 395               	.LBB632:
 396               	.LBB633:
 397               	.LBB634:
 398               	.LBB635:
 399               	.LM70:
 400 0188 40E4      		ldi r20,lo8(8000)
 401 018a 5FE1      		ldi r21,hi8(8000)
 402 018c 00C0      		rjmp .L31
 403               	.LVL22:
 404               	.L33:
 405               	.LBE635:
 406               	.LBE634:
 407               	.LBE633:
 408               	.LBE632:
 409               	.LM71:
 410 018e 2F5F      		subi r18,lo8(-(1))
 411 0190 3F4F      		sbci r19,hi8(-(1))
 412               	.LBB639:
 413               	.LBB638:
 414               	.LBB637:
 415               	.LBB636:
 416               	.LM72:
 417 0192 CA01      		movw r24,r20
 418               	.LVL23:
 419               	/* #APP */
 420               	 ;  105 "c:/winavr-20100110/lib/gcc/../../avr/include/util/delay_basic.h" 1
 421 0194 0197      		1: sbiw r24,1
 422 0196 01F4      		brne 1b
 423               	 ;  0 "" 2
 424               	.LVL24:
 425               	/* #NOAPP */
 426               	.L31:
 427               	.LBE636:
 428               	.LBE637:
 429               	.LBE638:
 430               	.LBE639:
 431               	.LBB640:
 432               	.LBB641:
 433               	.LM73:
 434 0198 9091 0000 		lds r25,BT_data+258
 435               	.LM74:
 436 019c 8091 0000 		lds r24,BT_data+259
 437               	.LVL25:
 438               	.LBE641:
 439               	.LBE640:
 440               	.LM75:
 441 01a0 9817      		cp r25,r24
 442 01a2 01F4      		brne .L32
 443 01a4 81E0      		ldi r24,hi8(500)
 444 01a6 243F      		cpi r18,lo8(500)
 445 01a8 3807      		cpc r19,r24
 446               	.LVL26:
 447 01aa 01F4      		brne .L33
 448 01ac 00C0      		rjmp .L34
 449               	.LVL27:
 450               	.L32:
 451               	.LM76:
 452 01ae 245F      		subi r18,lo8(500)
 453 01b0 3140      		sbci r19,hi8(500)
 454               	.LVL28:
 455 01b2 04F4      		brge .L34
 456               	.LBB642:
 457               	.LBB643:
 458               	.LM77:
 459 01b4 E091 0000 		lds r30,BT_data+259
 460 01b8 F0E0      		ldi r31,lo8(0)
 461 01ba E050      		subi r30,lo8(-(BT_data))
 462 01bc F040      		sbci r31,hi8(-(BT_data))
 463 01be 9281      		ldd r25,Z+2
 464               	.LVL29:
 465               	.LM78:
 466 01c0 8091 0000 		lds r24,BT_data+259
 467 01c4 8F5F      		subi r24,lo8(-(1))
 468 01c6 8093 0000 		sts BT_data+259,r24
 469               	.LBE643:
 470               	.LBE642:
 471               	.LM79:
 472 01ca 292F      		mov r18,r25
 473               	.LVL30:
 474 01cc 30E0      		ldi r19,lo8(0)
 475 01ce 00C0      		rjmp .L35
 476               	.LVL31:
 477               	.L34:
 478 01d0 20E0      		ldi r18,lo8(256)
 479 01d2 31E0      		ldi r19,hi8(256)
 480               	.LVL32:
 481               	.L35:
 482               	.LM80:
 483 01d4 C901      		movw r24,r18
 484               	/* epilogue start */
 485 01d6 0895      		ret
 486               	.LFE16:
 488               	.global	aux_uart_getchar
 490               	aux_uart_getchar:
 491               	.LFB17:
 492               	.LM81:
 493               	.LVL33:
 494               	/* prologue: function */
 495               	/* frame size = 0 */
 496               	.LBB644:
 497               	.LBB645:
 498               	.LM82:
 499 01d8 8091 0000 		lds r24,AUX_data+259
 500               	.LVL34:
 501 01dc E0E0      		ldi r30,lo8(AUX_data)
 502 01de F0E0      		ldi r31,hi8(AUX_data)
 503 01e0 E80F      		add r30,r24
 504 01e2 F11D      		adc r31,__zero_reg__
 505 01e4 8281      		ldd r24,Z+2
 506               	.LVL35:
 507               	.LM83:
 508 01e6 9091 0000 		lds r25,AUX_data+259
 509 01ea 9F5F      		subi r25,lo8(-(1))
 510 01ec 9093 0000 		sts AUX_data+259,r25
 511               	.LVL36:
 512               	/* epilogue start */
 513               	.LBE645:
 514               	.LBE644:
 515               	.LM84:
 516 01f0 0895      		ret
 517               	.LFE17:
 519               	.global	serial_bridge
 521               	serial_bridge:
 522               	.LFB18:
 523               	.LM85:
 524               	/* prologue: function */
 525               	/* frame size = 0 */
 526 01f2 00C0      		rjmp .L49
 527               	.LVL37:
 528               	.L42:
 529               	.LBB646:
 530               	.LBB647:
 531               	.LM86:
 532 01f4 E091 0000 		lds r30,AUX_data+259
 533 01f8 F0E0      		ldi r31,lo8(0)
 534 01fa E050      		subi r30,lo8(-(AUX_data))
 535 01fc F040      		sbci r31,hi8(-(AUX_data))
 536 01fe 9281      		ldd r25,Z+2
 537               	.LVL38:
 538               	.LM87:
 539 0200 8091 0000 		lds r24,AUX_data+259
 540               	.LVL39:
 541 0204 8F5F      		subi r24,lo8(-(1))
 542 0206 8093 0000 		sts AUX_data+259,r24
 543               	.L41:
 544               	.LBE647:
 545               	.LBE646:
 546               	.LBB648:
 547               	.LBB649:
 548               	.LM88:
 549 020a 8091 B109 		lds r24,2481
 550 020e 85FF      		sbrs r24,5
 551 0210 00C0      		rjmp .L41
 552               	.LM89:
 553 0212 9093 B009 		sts 2480,r25
 554               	.LVL40:
 555               	.L49:
 556               	.LBE649:
 557               	.LBE648:
 558               	.LBB650:
 559               	.LBB651:
 560               	.LM90:
 561 0216 9091 0000 		lds r25,AUX_data+258
 562               	.LVL41:
 563               	.LM91:
 564 021a 8091 0000 		lds r24,AUX_data+259
 565               	.LVL42:
 566               	.LBE651:
 567               	.LBE650:
 568               	.LM92:
 569 021e 9817      		cp r25,r24
 570 0220 01F4      		brne .L42
 571 0222 00C0      		rjmp .L50
 572               	.LVL43:
 573               	.L51:
 574               	.LBB652:
 575               	.LBB653:
 576               	.LM93:
 577 0224 E091 0000 		lds r30,BT_data+259
 578 0228 F0E0      		ldi r31,lo8(0)
 579 022a E050      		subi r30,lo8(-(BT_data))
 580 022c F040      		sbci r31,hi8(-(BT_data))
 581 022e 9281      		ldd r25,Z+2
 582               	.LVL44:
 583               	.LM94:
 584 0230 8091 0000 		lds r24,BT_data+259
 585               	.LVL45:
 586 0234 8F5F      		subi r24,lo8(-(1))
 587 0236 8093 0000 		sts BT_data+259,r24
 588               	.L44:
 589               	.LBE653:
 590               	.LBE652:
 591               	.LBB654:
 592               	.LBB655:
 593               	.LM95:
 594 023a 8091 A108 		lds r24,2209
 595 023e 85FF      		sbrs r24,5
 596 0240 00C0      		rjmp .L44
 597               	.LM96:
 598 0242 9093 A008 		sts 2208,r25
 599               	.LVL46:
 600               	.L50:
 601               	.LBE655:
 602               	.LBE654:
 603               	.LBB656:
 604               	.LBB657:
 605               	.LM97:
 606 0246 9091 0000 		lds r25,BT_data+258
 607               	.LVL47:
 608               	.LM98:
 609 024a 8091 0000 		lds r24,BT_data+259
 610               	.LVL48:
 611               	.LBE657:
 612               	.LBE656:
 613               	.LM99:
 614 024e 9817      		cp r25,r24
 615 0250 01F0      		breq .L49
 616 0252 00C0      		rjmp .L51
 617               	.LFE18:
 619               	.global	USART_InterruptDriver_Initialize
 621               	USART_InterruptDriver_Initialize:
 622               	.LFB19:
 623               	.LM100:
 624               	.LVL49:
 625               	/* prologue: function */
 626               	/* frame size = 0 */
 627 0254 FC01      		movw r30,r24
 628               	.LM101:
 629 0256 6083      		st Z,r22
 630 0258 7183      		std Z+1,r23
 631               	.LM102:
 632 025a ED5F      		subi r30,lo8(-(259))
 633 025c FE4F      		sbci r31,hi8(-(259))
 634               	.LVL50:
 635 025e 1082      		st Z,__zero_reg__
 636               	.LM103:
 637 0260 1292      		st -Z,__zero_reg__
 638               	.LVL51:
 639               	/* epilogue start */
 640               	.LM104:
 641 0262 0895      		ret
 642               	.LFE19:
 644               	.global	USART_RXBufferData_Available
 646               	USART_RXBufferData_Available:
 647               	.LFB20:
 648               	.LM105:
 649               	.LVL52:
 650               	/* prologue: function */
 651               	/* frame size = 0 */
 652 0264 FC01      		movw r30,r24
 653               	.LM106:
 654 0266 EE5F      		subi r30,lo8(-(258))
 655 0268 FE4F      		sbci r31,hi8(-(258))
 656               	.LVL53:
 657 026a 9191      		ld r25,Z+
 658               	.LVL54:
 659               	.LM107:
 660 026c 8081      		ld r24,Z
 661               	.LVL55:
 662 026e 20E0      		ldi r18,lo8(0)
 663 0270 9813      		cpse r25,r24
 664 0272 21E0      		ldi r18,lo8(1)
 665               	.L55:
 666               	.LM108:
 667 0274 822F      		mov r24,r18
 668               	.LVL56:
 669               	/* epilogue start */
 670 0276 0895      		ret
 671               	.LFE20:
 673               	.global	USART_RXBuffer_GetByte
 675               	USART_RXBuffer_GetByte:
 676               	.LFB21:
 677               	.LM109:
 678               	.LVL57:
 679               	/* prologue: function */
 680               	/* frame size = 0 */
 681 0278 FC01      		movw r30,r24
 682               	.LM110:
 683 027a DC01      		movw r26,r24
 684 027c AD5F      		subi r26,lo8(-(259))
 685 027e BE4F      		sbci r27,hi8(-(259))
 686 0280 8C91      		ld r24,X
 687               	.LVL58:
 688 0282 E80F      		add r30,r24
 689 0284 F11D      		adc r31,__zero_reg__
 690 0286 8281      		ldd r24,Z+2
 691               	.LVL59:
 692               	.LM111:
 693 0288 9C91      		ld r25,X
 694 028a 9F5F      		subi r25,lo8(-(1))
 695 028c 9C93      		st X,r25
 696               	.LVL60:
 697               	/* epilogue start */
 698               	.LM112:
 699 028e 0895      		ret
 700               	.LFE21:
 702               	.global	USART_RXComplete
 704               	USART_RXComplete:
 705               	.LFB22:
 706               	.LM113:
 707               	.LVL61:
 708 0290 CF93      		push r28
 709 0292 DF93      		push r29
 710               	/* prologue: function */
 711               	/* frame size = 0 */
 712 0294 DC01      		movw r26,r24
 713               	.LM114:
 714 0296 EC01      		movw r28,r24
 715 0298 CE5F      		subi r28,lo8(-(258))
 716 029a DE4F      		sbci r29,hi8(-(258))
 717 029c 9881      		ld r25,Y
 718               	.LVL62:
 719 029e 9F5F      		subi r25,lo8(-(1))
 720               	.LM115:
 721 02a0 AD5F      		subi r26,lo8(-(259))
 722 02a2 BE4F      		sbci r27,hi8(-(259))
 723               	.LVL63:
 724 02a4 8C91      		ld r24,X
 725               	.LVL64:
 726 02a6 A350      		subi r26,lo8(-(-259))
 727 02a8 B140      		sbci r27,hi8(-(-259))
 728               	.LM116:
 729 02aa ED91      		ld r30,X+
 730 02ac FC91      		ld r31,X
 731 02ae 1197      		sbiw r26,1
 732 02b0 E081      		ld r30,Z
 733               	.LVL65:
 734               	.LM117:
 735 02b2 9817      		cp r25,r24
 736 02b4 01F4      		brne .L60
 737 02b6 80E0      		ldi r24,lo8(0)
 738               	.LVL66:
 739 02b8 00C0      		rjmp .L61
 740               	.LVL67:
 741               	.L60:
 742               	.LM118:
 743 02ba 8881      		ld r24,Y
 744               	.LVL68:
 745 02bc A80F      		add r26,r24
 746 02be B11D      		adc r27,__zero_reg__
 747 02c0 1296      		adiw r26,2
 748 02c2 EC93      		st X,r30
 749               	.LM119:
 750 02c4 9883      		st Y,r25
 751 02c6 81E0      		ldi r24,lo8(1)
 752               	.LVL69:
 753               	.L61:
 754               	.LVL70:
 755               	/* epilogue start */
 756               	.LM120:
 757 02c8 DF91      		pop r29
 758 02ca CF91      		pop r28
 759 02cc 0895      		ret
 760               	.LFE22:
 762               	.global	__vector_91
 764               	__vector_91:
 765               	.LFB23:
 766               	.LM121:
 767 02ce 1F92      		push __zero_reg__
 768 02d0 0F92      		push r0
 769 02d2 0FB6      		in r0,__SREG__
 770 02d4 0F92      		push r0
 771 02d6 1124      		clr __zero_reg__
 772 02d8 2F93      		push r18
 773 02da 8F93      		push r24
 774 02dc 9F93      		push r25
 775 02de EF93      		push r30
 776 02e0 FF93      		push r31
 777               	/* prologue: Signal */
 778               	/* frame size = 0 */
 779               	.LBB658:
 780               	.LBB659:
 781               	.LM122:
 782 02e2 9091 0000 		lds r25,BT_data+258
 783               	.LVL71:
 784 02e6 9F5F      		subi r25,lo8(-(1))
 785               	.LM123:
 786 02e8 8091 0000 		lds r24,BT_data+259
 787               	.LVL72:
 788               	.LM124:
 789 02ec E091 0000 		lds r30,BT_data
 790 02f0 F091 0000 		lds r31,(BT_data)+1
 791 02f4 2081      		ld r18,Z
 792               	.LVL73:
 793               	.LM125:
 794 02f6 9817      		cp r25,r24
 795 02f8 01F0      		breq .L65
 796               	.LM126:
 797 02fa E091 0000 		lds r30,BT_data+258
 798 02fe F0E0      		ldi r31,lo8(0)
 799 0300 E050      		subi r30,lo8(-(BT_data))
 800 0302 F040      		sbci r31,hi8(-(BT_data))
 801 0304 2283      		std Z+2,r18
 802               	.LM127:
 803 0306 9093 0000 		sts BT_data+258,r25
 804               	.L65:
 805               	/* epilogue start */
 806               	.LBE659:
 807               	.LBE658:
 808               	.LM128:
 809 030a FF91      		pop r31
 810 030c EF91      		pop r30
 811 030e 9F91      		pop r25
 812               	.LVL74:
 813 0310 8F91      		pop r24
 814               	.LVL75:
 815 0312 2F91      		pop r18
 816               	.LVL76:
 817 0314 0F90      		pop r0
 818 0316 0FBE      		out __SREG__,r0
 819 0318 0F90      		pop r0
 820 031a 1F90      		pop __zero_reg__
 821 031c 1895      		reti
 822               	.LFE23:
 824               	.global	__vector_25
 826               	__vector_25:
 827               	.LFB24:
 828               	.LM129:
 829 031e 1F92      		push __zero_reg__
 830 0320 0F92      		push r0
 831 0322 0FB6      		in r0,__SREG__
 832 0324 0F92      		push r0
 833 0326 1124      		clr __zero_reg__
 834 0328 2F93      		push r18
 835 032a 8F93      		push r24
 836 032c 9F93      		push r25
 837 032e EF93      		push r30
 838 0330 FF93      		push r31
 839               	/* prologue: Signal */
 840               	/* frame size = 0 */
 841               	.LBB660:
 842               	.LBB661:
 843               	.LM130:
 844 0332 9091 0000 		lds r25,AUX_data+258
 845               	.LVL77:
 846 0336 9F5F      		subi r25,lo8(-(1))
 847               	.LM131:
 848 0338 8091 0000 		lds r24,AUX_data+259
 849               	.LVL78:
 850               	.LM132:
 851 033c E091 0000 		lds r30,AUX_data
 852 0340 F091 0000 		lds r31,(AUX_data)+1
 853 0344 2081      		ld r18,Z
 854               	.LVL79:
 855               	.LM133:
 856 0346 9817      		cp r25,r24
 857 0348 01F0      		breq .L68
 858               	.LM134:
 859 034a E091 0000 		lds r30,AUX_data+258
 860 034e F0E0      		ldi r31,lo8(0)
 861 0350 E050      		subi r30,lo8(-(AUX_data))
 862 0352 F040      		sbci r31,hi8(-(AUX_data))
 863 0354 2283      		std Z+2,r18
 864               	.LM135:
 865 0356 9093 0000 		sts AUX_data+258,r25
 866               	.L68:
 867               	/* epilogue start */
 868               	.LBE661:
 869               	.LBE660:
 870               	.LM136:
 871 035a FF91      		pop r31
 872 035c EF91      		pop r30
 873 035e 9F91      		pop r25
 874               	.LVL80:
 875 0360 8F91      		pop r24
 876               	.LVL81:
 877 0362 2F91      		pop r18
 878               	.LVL82:
 879 0364 0F90      		pop r0
 880 0366 0FBE      		out __SREG__,r0
 881 0368 0F90      		pop r0
 882 036a 1F90      		pop __zero_reg__
 883 036c 1895      		reti
 884               	.LFE24:
 886               	.global	init_adc
 888               	init_adc:
 889               	.LFB25:
 890               	.LM137:
 891 036e CF93      		push r28
 892 0370 DF93      		push r29
 893               	/* prologue: function */
 894               	/* frame size = 0 */
 895               	.LM138:
 896 0372 E0E0      		ldi r30,lo8(512)
 897 0374 F2E0      		ldi r31,hi8(512)
 898 0376 8181      		ldd r24,Z+1
 899 0378 897E      		andi r24,lo8(-23)
 900 037a 8460      		ori r24,lo8(4)
 901 037c 8183      		std Z+1,r24
 902               	.LM139:
 903 037e 8481      		ldd r24,Z+4
 904 0380 8760      		ori r24,lo8(7)
 905 0382 8483      		std Z+4,r24
 906               	.LM140:
 907 0384 8281      		ldd r24,Z+2
 908 0386 8063      		ori r24,lo8(48)
 909 0388 8283      		std Z+2,r24
 910               	.LM141:
 911 038a 28E2      		ldi r18,lo8(552)
 912 038c 32E0      		ldi r19,hi8(552)
 913 038e D901      		movw r26,r18
 914 0390 8C91      		ld r24,X
 915 0392 807E      		andi r24,lo8(-32)
 916 0394 8C93      		st X,r24
 917               	.LM142:
 918 0396 A0E3      		ldi r26,lo8(560)
 919 0398 B2E0      		ldi r27,hi8(560)
 920 039a 8C91      		ld r24,X
 921 039c 807E      		andi r24,lo8(-32)
 922 039e 8160      		ori r24,lo8(1)
 923 03a0 8C93      		st X,r24
 924               	.LM143:
 925 03a2 E901      		movw r28,r18
 926 03a4 1982      		std Y+1,__zero_reg__
 927               	.LM144:
 928 03a6 88E3      		ldi r24,lo8(56)
 929 03a8 1196      		adiw r26,1
 930 03aa 8C93      		st X,r24
 931               	.LM145:
 932 03ac 8281      		ldd r24,Z+2
 933 03ae 8160      		ori r24,lo8(1)
 934 03b0 8283      		std Z+2,r24
 935               	.LM146:
 936 03b2 8081      		ld r24,Z
 937 03b4 8160      		ori r24,lo8(1)
 938 03b6 8083      		st Z,r24
 939               	.LBB662:
 940               	.LBB663:
 941               	.LBB664:
 942               	.LBB665:
 943               	.LM147:
 944 03b8 80E4      		ldi r24,lo8(8000)
 945 03ba 9FE1      		ldi r25,hi8(8000)
 946               	.LVL83:
 947               	/* #APP */
 948               	 ;  105 "c:/winavr-20100110/lib/gcc/../../avr/include/util/delay_basic.h" 1
 949 03bc 0197      		1: sbiw r24,1
 950 03be 01F4      		brne 1b
 951               	 ;  0 "" 2
 952               	/* epilogue start */
 953               	/* #NOAPP */
 954               	.LBE665:
 955               	.LBE664:
 956               	.LBE663:
 957               	.LBE662:
 958               	.LM148:
 959 03c0 DF91      		pop r29
 960 03c2 CF91      		pop r28
 961 03c4 0895      		ret
 962               	.LFE25:
 964               	.global	read_analog
 966               	read_analog:
 967               	.LFB26:
 968               	.LM149:
 969               	.LVL84:
 970               	/* prologue: function */
 971               	/* frame size = 0 */
 972               	.LM150:
 973 03c6 E0E3      		ldi r30,lo8(560)
 974 03c8 F2E0      		ldi r31,hi8(560)
 975 03ca 8183      		std Z+1,r24
 976               	.LM151:
 977 03cc 8091 3002 		lds r24,560
 978               	.LVL85:
 979 03d0 8068      		ori r24,lo8(-128)
 980 03d2 E0E0      		ldi r30,lo8(512)
 981 03d4 F2E0      		ldi r31,hi8(512)
 982 03d6 80AB      		std Z+48,r24
 983               	.L73:
 984               	.LM152:
 985 03d8 8091 3302 		lds r24,563
 986 03dc 80FD      		sbrc r24,0
 987 03de 00C0      		rjmp .L72
 988 03e0 8091 0602 		lds r24,518
 989 03e4 82FF      		sbrs r24,2
 990 03e6 00C0      		rjmp .L73
 991               	.L72:
 992               	.LM153:
 993 03e8 81E0      		ldi r24,lo8(1)
 994 03ea E0E0      		ldi r30,lo8(512)
 995 03ec F2E0      		ldi r31,hi8(512)
 996 03ee 83AB      		std Z+51,r24
 997               	.LM154:
 998 03f0 8091 3402 		lds r24,564
 999               	.LM155:
 1000 03f4 90E0      		ldi r25,lo8(0)
 1001               	/* epilogue start */
 1002 03f6 0895      		ret
 1003               	.LFE26:
 1005               	.global	read_internal_temperature
 1007               	read_internal_temperature:
 1008               	.LFB27:
 1009               	.LM156:
 1010               	/* prologue: function */
 1011               	/* frame size = 0 */
 1012               	.LM157:
 1013 03f8 8091 2802 		lds r24,552
 1014 03fc 8068      		ori r24,lo8(-128)
 1015 03fe E0E0      		ldi r30,lo8(512)
 1016 0400 F2E0      		ldi r31,hi8(512)
 1017 0402 80A7      		std Z+40,r24
 1018               	.L77:
 1019               	.LM158:
 1020 0404 8091 2B02 		lds r24,555
 1021 0408 80FF      		sbrs r24,0
 1022 040a 00C0      		rjmp .L77
 1023               	.LM159:
 1024 040c 81E0      		ldi r24,lo8(1)
 1025 040e E0E0      		ldi r30,lo8(512)
 1026 0410 F2E0      		ldi r31,hi8(512)
 1027 0412 83A7      		std Z+43,r24
 1028               	.LM160:
 1029 0414 8091 2C02 		lds r24,556
 1030               	.LM161:
 1031 0418 90E0      		ldi r25,lo8(0)
 1032               	/* epilogue start */
 1033 041a 0895      		ret
 1034               	.LFE27:
 1036               	.global	init_ir
 1038               	init_ir:
 1039               	.LFB28:
 1040               	.LM162:
 1041               	/* prologue: function */
 1042               	/* frame size = 0 */
 1043               	.LM163:
 1044 041c E0E0      		ldi r30,lo8(2048)
 1045 041e F8E0      		ldi r31,hi8(2048)
 1046 0420 21E0      		ldi r18,lo8(1)
 1047 0422 2083      		st Z,r18
 1048               	.LM164:
 1049 0424 83E1      		ldi r24,lo8(19)
 1050 0426 8183      		std Z+1,r24
 1051               	.LM165:
 1052 0428 89E4      		ldi r24,lo8(841)
 1053 042a 93E0      		ldi r25,hi8(841)
 1054 042c 86AB      		std Z+54,r24
 1055 042e 97AB      		std Z+55,r25
 1056               	.LM166:
 1057 0430 E0E4      		ldi r30,lo8(1600)
 1058 0432 F6E0      		ldi r31,hi8(1600)
 1059 0434 2183      		std Z+1,r18
 1060               	.LM167:
 1061 0436 E0E4      		ldi r30,lo8(2112)
 1062 0438 F8E0      		ldi r31,hi8(2112)
 1063 043a 85E0      		ldi r24,lo8(5)
 1064 043c 8083      		st Z,r24
 1065               	.LM168:
 1066 043e 1682      		std Z+6,__zero_reg__
 1067               	/* epilogue start */
 1068               	.LM169:
 1069 0440 0895      		ret
 1070               	.LFE28:
 1072               	.global	set_ir50
 1074               	set_ir50:
 1075               	.LFB29:
 1076               	.LM170:
 1077               	/* prologue: function */
 1078               	/* frame size = 0 */
 1079               	.LM171:
 1080               	/* #APP */
 1081               	 ;  27 "ir.c" 1
 1082 0442 F894      		cli
 1083               	 ;  0 "" 2
 1084               	.LM172:
 1085               	/* #NOAPP */
 1086 0444 E0E0      		ldi r30,lo8(2048)
 1087 0446 F8E0      		ldi r31,hi8(2048)
 1088 0448 86A1      		ldd r24,Z+38
 1089 044a 97A1      		ldd r25,Z+39
 1090 044c 9695      		lsr r25
 1091 044e 8795      		ror r24
 1092 0450 80A7      		std Z+40,r24
 1093 0452 91A7      		std Z+41,r25
 1094               	.LM173:
 1095               	/* #APP */
 1096               	 ;  29 "ir.c" 1
 1097 0454 7894      		sei
 1098               	 ;  0 "" 2
 1099               	/* epilogue start */
 1100               	.LM174:
 1101               	/* #NOAPP */
 1102 0456 0895      		ret
 1103               	.LFE29:
 1105               	.global	set_ir100
 1107               	set_ir100:
 1108               	.LFB30:
 1109               	.LM175:
 1110               	/* prologue: function */
 1111               	/* frame size = 0 */
 1112               	.LM176:
 1113               	/* #APP */
 1114               	 ;  35 "ir.c" 1
 1115 0458 F894      		cli
 1116               	 ;  0 "" 2
 1117               	.LM177:
 1118               	/* #NOAPP */
 1119 045a E0E0      		ldi r30,lo8(2048)
 1120 045c F8E0      		ldi r31,hi8(2048)
 1121 045e 86A1      		ldd r24,Z+38
 1122 0460 97A1      		ldd r25,Z+39
 1123 0462 80A7      		std Z+40,r24
 1124 0464 91A7      		std Z+41,r25
 1125               	.LM178:
 1126               	/* #APP */
 1127               	 ;  37 "ir.c" 1
 1128 0466 7894      		sei
 1129               	 ;  0 "" 2
 1130               	/* epilogue start */
 1131               	.LM179:
 1132               	/* #NOAPP */
 1133 0468 0895      		ret
 1134               	.LFE30:
 1136               	.global	set_ir0
 1138               	set_ir0:
 1139               	.LFB31:
 1140               	.LM180:
 1141               	/* prologue: function */
 1142               	/* frame size = 0 */
 1143               	.LM181:
 1144               	/* #APP */
 1145               	 ;  42 "ir.c" 1
 1146 046a F894      		cli
 1147               	 ;  0 "" 2
 1148               	.LM182:
 1149               	/* #NOAPP */
 1150 046c E0E0      		ldi r30,lo8(2048)
 1151 046e F8E0      		ldi r31,hi8(2048)
 1152 0470 10A6      		std Z+40,__zero_reg__
 1153 0472 11A6      		std Z+41,__zero_reg__
 1154               	.LM183:
 1155               	/* #APP */
 1156               	 ;  44 "ir.c" 1
 1157 0474 7894      		sei
 1158               	 ;  0 "" 2
 1159               	/* epilogue start */
 1160               	.LM184:
 1161               	/* #NOAPP */
 1162 0476 0895      		ret
 1163               	.LFE31:
 1165               	.global	set_ir_carrier
 1167               	set_ir_carrier:
 1168               	.LFB32:
 1169               	.LM185:
 1170               	.LVL86:
 1171               	/* prologue: function */
 1172               	/* frame size = 0 */
 1173               	.LM186:
 1174               	/* #APP */
 1175               	 ;  50 "ir.c" 1
 1176 0478 F894      		cli
 1177               	 ;  0 "" 2
 1178               	.LM187:
 1179               	/* #NOAPP */
 1180 047a E0E0      		ldi r30,lo8(2048)
 1181 047c F8E0      		ldi r31,hi8(2048)
 1182 047e 86AB      		std Z+54,r24
 1183 0480 97AB      		std Z+55,r25
 1184               	.LVL87:
 1185               	.LM188:
 1186               	/* #APP */
 1187               	 ;  52 "ir.c" 1
 1188 0482 7894      		sei
 1189               	 ;  0 "" 2
 1190               	/* epilogue start */
 1191               	.LM189:
 1192               	/* #NOAPP */
 1193 0484 0895      		ret
 1194               	.LFE32:
 1196               	.global	start_ir_timer
 1198               	start_ir_timer:
 1199               	.LFB33:
 1200               	.LM190:
 1201               	/* prologue: function */
 1202               	/* frame size = 0 */
 1203               	.LM191:
 1204 0486 1092 0000 		sts startUpCounter,__zero_reg__
 1205 048a 1092 0000 		sts (startUpCounter)+1,__zero_reg__
 1206               	.LM192:
 1207 048e 1092 0000 		sts onOffTracker,__zero_reg__
 1208 0492 1092 0000 		sts (onOffTracker)+1,__zero_reg__
 1209               	.LM193:
 1210 0496 1092 0000 		sts bitCounter,__zero_reg__
 1211               	.LM194:
 1212               	/* #APP */
 1213               	 ;  62 "ir.c" 1
 1214 049a F894      		cli
 1215               	 ;  0 "" 2
 1216               	.LM195:
 1217               	/* #NOAPP */
 1218 049c E0E4      		ldi r30,lo8(2112)
 1219 049e F8E0      		ldi r31,hi8(2112)
 1220 04a0 10A2      		std Z+32,__zero_reg__
 1221 04a2 11A2      		std Z+33,__zero_reg__
 1222               	.LM196:
 1223               	/* #APP */
 1224               	 ;  64 "ir.c" 1
 1225 04a4 7894      		sei
 1226               	 ;  0 "" 2
 1227               	.LM197:
 1228               	/* #NOAPP */
 1229 04a6 83E0      		ldi r24,lo8(3)
 1230 04a8 E0E4      		ldi r30,lo8(2112)
 1231 04aa F8E0      		ldi r31,hi8(2112)
 1232 04ac 8683      		std Z+6,r24
 1233               	.LM198:
 1234 04ae E0EA      		ldi r30,lo8(160)
 1235 04b0 F0E0      		ldi r31,hi8(160)
 1236 04b2 8281      		ldd r24,Z+2
 1237 04b4 8460      		ori r24,lo8(4)
 1238 04b6 8283      		std Z+2,r24
 1239               	/* epilogue start */
 1240               	.LM199:
 1241 04b8 0895      		ret
 1242               	.LFE33:
 1244               	.global	stop_ir_timer
 1246               	stop_ir_timer:
 1247               	.LFB34:
 1248               	.LM200:
 1249               	/* prologue: function */
 1250               	/* frame size = 0 */
 1251               	.LM201:
 1252 04ba E0E4      		ldi r30,lo8(2112)
 1253 04bc F8E0      		ldi r31,hi8(2112)
 1254 04be 1682      		std Z+6,__zero_reg__
 1255               	.LBB666:
 1256               	.LBB667:
 1257               	.LM202:
 1258               	/* #APP */
 1259               	 ;  42 "ir.c" 1
 1260 04c0 F894      		cli
 1261               	 ;  0 "" 2
 1262               	.LM203:
 1263               	/* #NOAPP */
 1264 04c2 E0E0      		ldi r30,lo8(2048)
 1265 04c4 F8E0      		ldi r31,hi8(2048)
 1266 04c6 10A6      		std Z+40,__zero_reg__
 1267 04c8 11A6      		std Z+41,__zero_reg__
 1268               	.LM204:
 1269               	/* #APP */
 1270               	 ;  44 "ir.c" 1
 1271 04ca 7894      		sei
 1272               	 ;  0 "" 2
 1273               	/* epilogue start */
 1274               	/* #NOAPP */
 1275               	.LBE667:
 1276               	.LBE666:
 1277               	.LM205:
 1278 04cc 0895      		ret
 1279               	.LFE34:
 1281               	.global	__vector_20
 1283               	__vector_20:
 1284               	.LFB35:
 1285               	.LM206:
 1286 04ce 1F92      		push __zero_reg__
 1287 04d0 0F92      		push r0
 1288 04d2 0FB6      		in r0,__SREG__
 1289 04d4 0F92      		push r0
 1290 04d6 1124      		clr __zero_reg__
 1291 04d8 2F93      		push r18
 1292 04da 3F93      		push r19
 1293 04dc 4F93      		push r20
 1294 04de 5F93      		push r21
 1295 04e0 6F93      		push r22
 1296 04e2 7F93      		push r23
 1297 04e4 8F93      		push r24
 1298 04e6 9F93      		push r25
 1299 04e8 AF93      		push r26
 1300 04ea BF93      		push r27
 1301 04ec EF93      		push r30
 1302 04ee FF93      		push r31
 1303               	/* prologue: Signal */
 1304               	/* frame size = 0 */
 1305               	.LM207:
 1306 04f0 8091 0000 		lds r24,onOffTracker
 1307 04f4 9091 0000 		lds r25,(onOffTracker)+1
 1308 04f8 0197      		sbiw r24,1
 1309 04fa 01F4      		brne .L95
 1310               	.LBB668:
 1311               	.LBB669:
 1312               	.LM208:
 1313               	/* #APP */
 1314               	 ;  42 "ir.c" 1
 1315 04fc F894      		cli
 1316               	 ;  0 "" 2
 1317               	.LM209:
 1318               	/* #NOAPP */
 1319 04fe E0E0      		ldi r30,lo8(2048)
 1320 0500 F8E0      		ldi r31,hi8(2048)
 1321 0502 10A6      		std Z+40,__zero_reg__
 1322 0504 11A6      		std Z+41,__zero_reg__
 1323               	.LM210:
 1324               	/* #APP */
 1325               	 ;  44 "ir.c" 1
 1326 0506 7894      		sei
 1327               	 ;  0 "" 2
 1328               	/* #NOAPP */
 1329               	.LBE669:
 1330               	.LBE668:
 1331               	.LM211:
 1332 0508 1092 0000 		sts onOffTracker,__zero_reg__
 1333 050c 1092 0000 		sts (onOffTracker)+1,__zero_reg__
 1334 0510 00C0      		rjmp .L96
 1335               	.L95:
 1336               	.LM212:
 1337 0512 0E94 0000 		call set_ir50
 1338               	.LM213:
 1339 0516 81E0      		ldi r24,lo8(1)
 1340 0518 90E0      		ldi r25,hi8(1)
 1341 051a 8093 0000 		sts onOffTracker,r24
 1342 051e 9093 0000 		sts (onOffTracker)+1,r25
 1343               	.L96:
 1344               	.LM214:
 1345 0522 4091 0000 		lds r20,bitCounter
 1346 0526 8091 0000 		lds r24,robotData+36
 1347 052a 4817      		cp r20,r24
 1348 052c 00F0      		brlo .L97
 1349 052e 8091 0000 		lds r24,onOffTracker
 1350 0532 9091 0000 		lds r25,(onOffTracker)+1
 1351 0536 892B      		or r24,r25
 1352 0538 01F0      		breq .L98
 1353 053a 8091 0000 		lds r24,robotData+35
 1354 053e 8330      		cpi r24,lo8(3)
 1355 0540 01F4      		brne .L97
 1356               	.L98:
 1357               	.LM215:
 1358 0542 8091 0000 		lds r24,robotData+35
 1359 0546 8330      		cpi r24,lo8(3)
 1360 0548 01F4      		brne .L99
 1361               	.LBB670:
 1362               	.LBB671:
 1363               	.LM216:
 1364               	/* #APP */
 1365               	 ;  42 "ir.c" 1
 1366 054a F894      		cli
 1367               	 ;  0 "" 2
 1368               	.LM217:
 1369               	/* #NOAPP */
 1370 054c E0E0      		ldi r30,lo8(2048)
 1371 054e F8E0      		ldi r31,hi8(2048)
 1372 0550 10A6      		std Z+40,__zero_reg__
 1373 0552 11A6      		std Z+41,__zero_reg__
 1374               	.LM218:
 1375               	/* #APP */
 1376               	 ;  44 "ir.c" 1
 1377 0554 7894      		sei
 1378               	 ;  0 "" 2
 1379               	/* #NOAPP */
 1380               	.L99:
 1381               	.LBE671:
 1382               	.LBE670:
 1383               	.LM219:
 1384 0556 8091 0000 		lds r24,robotData+238
 1385 055a 9091 0000 		lds r25,(robotData+238)+1
 1386 055e 892B      		or r24,r25
 1387 0560 01F4      		brne .L100
 1388               	.LBB672:
 1389               	.LBB673:
 1390               	.LM220:
 1391 0562 E0E4      		ldi r30,lo8(2112)
 1392 0564 F8E0      		ldi r31,hi8(2112)
 1393 0566 1682      		std Z+6,__zero_reg__
 1394               	.LBB674:
 1395               	.LBB675:
 1396               	.LM221:
 1397               	/* #APP */
 1398               	 ;  42 "ir.c" 1
 1399 0568 F894      		cli
 1400               	 ;  0 "" 2
 1401               	.LM222:
 1402               	/* #NOAPP */
 1403 056a E0E0      		ldi r30,lo8(2048)
 1404 056c F8E0      		ldi r31,hi8(2048)
 1405 056e 10A6      		std Z+40,__zero_reg__
 1406 0570 11A6      		std Z+41,__zero_reg__
 1407               	.LM223:
 1408               	/* #APP */
 1409               	 ;  44 "ir.c" 1
 1410 0572 7894      		sei
 1411               	 ;  0 "" 2
 1412               	/* #NOAPP */
 1413 0574 00C0      		rjmp .L118
 1414               	.L100:
 1415               	.LBE675:
 1416               	.LBE674:
 1417               	.LBE673:
 1418               	.LBE672:
 1419               	.LM224:
 1420 0576 1092 0000 		sts startUpCounter,__zero_reg__
 1421 057a 1092 0000 		sts (startUpCounter)+1,__zero_reg__
 1422               	.LM225:
 1423 057e 1092 0000 		sts onOffTracker,__zero_reg__
 1424 0582 1092 0000 		sts (onOffTracker)+1,__zero_reg__
 1425               	.LM226:
 1426 0586 1092 0000 		sts bitCounter,__zero_reg__
 1427               	.LM227:
 1428 058a 8091 0000 		lds r24,robotData+236
 1429 058e 9091 0000 		lds r25,(robotData+236)+1
 1430 0592 00C0      		rjmp .L122
 1431               	.L97:
 1432               	.LM228:
 1433 0594 2091 0000 		lds r18,startUpCounter
 1434 0598 3091 0000 		lds r19,(startUpCounter)+1
 1435 059c 8091 0000 		lds r24,robotData+2
 1436 05a0 90E0      		ldi r25,lo8(0)
 1437 05a2 2817      		cp r18,r24
 1438 05a4 3907      		cpc r19,r25
 1439 05a6 04F4      		brge .L102
 1440               	.LM229:
 1441 05a8 F901      		movw r30,r18
 1442 05aa EE0F      		lsl r30
 1443 05ac FF1F      		rol r31
 1444 05ae E050      		subi r30,lo8(-(robotData))
 1445 05b0 F040      		sbci r31,hi8(-(robotData))
 1446 05b2 8381      		ldd r24,Z+3
 1447 05b4 9481      		ldd r25,Z+4
 1448 05b6 E0E4      		ldi r30,lo8(2112)
 1449 05b8 F8E0      		ldi r31,hi8(2112)
 1450 05ba 86A3      		std Z+38,r24
 1451 05bc 97A3      		std Z+39,r25
 1452               	.LM230:
 1453 05be 2F5F      		subi r18,lo8(-(1))
 1454 05c0 3F4F      		sbci r19,hi8(-(1))
 1455 05c2 2093 0000 		sts startUpCounter,r18
 1456 05c6 3093 0000 		sts (startUpCounter)+1,r19
 1457 05ca 00C0      		rjmp .L118
 1458               	.L102:
 1459               	.LM231:
 1460 05cc 8091 0000 		lds r24,robotData+35
 1461 05d0 8823      		tst r24
 1462 05d2 01F0      		breq .L127
 1463               	.L103:
 1464               	.LM232:
 1465 05d4 8130      		cpi r24,lo8(1)
 1466 05d6 01F4      		brne .L106
 1467               	.LM233:
 1468 05d8 8091 0000 		lds r24,onOffTracker
 1469 05dc 9091 0000 		lds r25,(onOffTracker)+1
 1470 05e0 0197      		sbiw r24,1
 1471 05e2 01F4      		brne .L107
 1472               	.L127:
 1473               	.LM234:
 1474 05e4 E42F      		mov r30,r20
 1475 05e6 E695      		lsr r30
 1476 05e8 E695      		lsr r30
 1477 05ea E695      		lsr r30
 1478 05ec F0E0      		ldi r31,lo8(0)
 1479 05ee E050      		subi r30,lo8(-(robotData))
 1480 05f0 F040      		sbci r31,hi8(-(robotData))
 1481 05f2 24A5      		ldd r18,Z+44
 1482 05f4 30E0      		ldi r19,lo8(0)
 1483 05f6 842F      		mov r24,r20
 1484 05f8 90E0      		ldi r25,lo8(0)
 1485 05fa 8095      		com r24
 1486 05fc 9095      		com r25
 1487 05fe 8770      		andi r24,lo8(7)
 1488 0600 9070      		andi r25,hi8(7)
 1489 0602 00C0      		rjmp 2f
 1490 0604 3595      	1:	asr r19
 1491 0606 2795      		ror r18
 1492 0608 8A95      	2:	dec r24
 1493 060a 02F4      		brpl 1b
 1494 060c 20FF      		sbrs r18,0
 1495 060e 00C0      		rjmp .L125
 1496 0610 00C0      		rjmp .L115
 1497               	.L107:
 1498               	.LM235:
 1499 0612 8091 0000 		lds r24,robotData+42
 1500 0616 9091 0000 		lds r25,(robotData+42)+1
 1501               	.L122:
 1502 061a E0E4      		ldi r30,lo8(2112)
 1503 061c F8E0      		ldi r31,hi8(2112)
 1504 061e 86A3      		std Z+38,r24
 1505 0620 97A3      		std Z+39,r25
 1506 0622 00C0      		rjmp .L118
 1507               	.L106:
 1508               	.LM236:
 1509 0624 8230      		cpi r24,lo8(2)
 1510 0626 01F4      		brne .L110
 1511               	.LM237:
 1512 0628 8091 0000 		lds r24,onOffTracker
 1513 062c 9091 0000 		lds r25,(onOffTracker)+1
 1514 0630 892B      		or r24,r25
 1515 0632 01F4      		brne .L111
 1516               	.LM238:
 1517 0634 E42F      		mov r30,r20
 1518 0636 E695      		lsr r30
 1519 0638 E695      		lsr r30
 1520 063a E695      		lsr r30
 1521 063c F0E0      		ldi r31,lo8(0)
 1522 063e E050      		subi r30,lo8(-(robotData))
 1523 0640 F040      		sbci r31,hi8(-(robotData))
 1524 0642 24A5      		ldd r18,Z+44
 1525 0644 30E0      		ldi r19,lo8(0)
 1526 0646 842F      		mov r24,r20
 1527 0648 90E0      		ldi r25,lo8(0)
 1528 064a 8095      		com r24
 1529 064c 9095      		com r25
 1530 064e 8770      		andi r24,lo8(7)
 1531 0650 9070      		andi r25,hi8(7)
 1532 0652 00C0      		rjmp 2f
 1533 0654 3595      	1:	asr r19
 1534 0656 2795      		ror r18
 1535 0658 8A95      	2:	dec r24
 1536 065a 02F4      		brpl 1b
 1537 065c 20FF      		sbrs r18,0
 1538 065e 00C0      		rjmp .L117
 1539 0660 00C0      		rjmp .L124
 1540               	.L111:
 1541               	.LM239:
 1542 0662 8091 0000 		lds r24,robotData+42
 1543 0666 9091 0000 		lds r25,(robotData+42)+1
 1544 066a 00C0      		rjmp .L121
 1545               	.L110:
 1546               	.LM240:
 1547 066c 8330      		cpi r24,lo8(3)
 1548 066e 01F0      		breq .+2
 1549 0670 00C0      		rjmp .L113
 1550               	.LM241:
 1551 0672 8091 0000 		lds r24,onOffTracker
 1552 0676 9091 0000 		lds r25,(onOffTracker)+1
 1553 067a E42F      		mov r30,r20
 1554 067c E695      		lsr r30
 1555 067e E695      		lsr r30
 1556 0680 E695      		lsr r30
 1557 0682 242F      		mov r18,r20
 1558 0684 30E0      		ldi r19,lo8(0)
 1559 0686 892B      		or r24,r25
 1560 0688 01F4      		brne .L114
 1561               	.LM242:
 1562 068a F0E0      		ldi r31,lo8(0)
 1563 068c E050      		subi r30,lo8(-(robotData))
 1564 068e F040      		sbci r31,hi8(-(robotData))
 1565 0690 84A5      		ldd r24,Z+44
 1566 0692 90E0      		ldi r25,lo8(0)
 1567 0694 2095      		com r18
 1568 0696 3095      		com r19
 1569 0698 2770      		andi r18,lo8(7)
 1570 069a 3070      		andi r19,hi8(7)
 1571 069c 00C0      		rjmp 2f
 1572 069e 9595      	1:	asr r25
 1573 06a0 8795      		ror r24
 1574 06a2 2A95      	2:	dec r18
 1575 06a4 02F4      		brpl 1b
 1576 06a6 80FF      		sbrs r24,0
 1577 06a8 00C0      		rjmp .L115
 1578               	.L125:
 1579               	.LM243:
 1580 06aa 8091 0000 		lds r24,robotData+40
 1581 06ae 9091 0000 		lds r25,(robotData+40)+1
 1582 06b2 00C0      		rjmp .L121
 1583               	.L115:
 1584               	.LM244:
 1585 06b4 8091 0000 		lds r24,robotData+38
 1586 06b8 9091 0000 		lds r25,(robotData+38)+1
 1587               	.L121:
 1588 06bc E0E4      		ldi r30,lo8(2112)
 1589 06be F8E0      		ldi r31,hi8(2112)
 1590 06c0 86A3      		std Z+38,r24
 1591 06c2 97A3      		std Z+39,r25
 1592               	.LM245:
 1593 06c4 4F5F      		subi r20,lo8(-(1))
 1594 06c6 00C0      		rjmp .L123
 1595               	.L114:
 1596               	.LM246:
 1597 06c8 F0E0      		ldi r31,lo8(0)
 1598 06ca E050      		subi r30,lo8(-(robotData))
 1599 06cc F040      		sbci r31,hi8(-(robotData))
 1600 06ce 84A5      		ldd r24,Z+44
 1601 06d0 90E0      		ldi r25,lo8(0)
 1602 06d2 2095      		com r18
 1603 06d4 3095      		com r19
 1604 06d6 2770      		andi r18,lo8(7)
 1605 06d8 3070      		andi r19,hi8(7)
 1606 06da 00C0      		rjmp 2f
 1607 06dc 9595      	1:	asr r25
 1608 06de 8795      		ror r24
 1609 06e0 2A95      	2:	dec r18
 1610 06e2 02F4      		brpl 1b
 1611 06e4 80FF      		sbrs r24,0
 1612 06e6 00C0      		rjmp .L117
 1613               	.L124:
 1614               	.LM247:
 1615 06e8 8091 0000 		lds r24,robotData+38
 1616 06ec 9091 0000 		lds r25,(robotData+38)+1
 1617 06f0 00C0      		rjmp .L122
 1618               	.L117:
 1619               	.LM248:
 1620 06f2 8091 0000 		lds r24,robotData+40
 1621 06f6 9091 0000 		lds r25,(robotData+40)+1
 1622 06fa 00C0      		rjmp .L122
 1623               	.L113:
 1624               	.LM249:
 1625 06fc 8430      		cpi r24,lo8(4)
 1626 06fe 01F4      		brne .L118
 1627               	.LM250:
 1628 0700 E42F      		mov r30,r20
 1629 0702 F0E0      		ldi r31,lo8(0)
 1630 0704 E050      		subi r30,lo8(-(robotData))
 1631 0706 F040      		sbci r31,hi8(-(robotData))
 1632 0708 25A5      		ldd r18,Z+45
 1633 070a 94A5      		ldd r25,Z+44
 1634 070c 80E0      		ldi r24,lo8(0)
 1635 070e 820F      		add r24,r18
 1636 0710 911D      		adc r25,__zero_reg__
 1637 0712 E0E4      		ldi r30,lo8(2112)
 1638 0714 F8E0      		ldi r31,hi8(2112)
 1639 0716 86A3      		std Z+38,r24
 1640 0718 97A3      		std Z+39,r25
 1641               	.LM251:
 1642 071a 4E5F      		subi r20,lo8(-(2))
 1643               	.L123:
 1644 071c 4093 0000 		sts bitCounter,r20
 1645               	.L118:
 1646               	/* epilogue start */
 1647               	.LM252:
 1648 0720 FF91      		pop r31
 1649 0722 EF91      		pop r30
 1650 0724 BF91      		pop r27
 1651 0726 AF91      		pop r26
 1652 0728 9F91      		pop r25
 1653 072a 8F91      		pop r24
 1654 072c 7F91      		pop r23
 1655 072e 6F91      		pop r22
 1656 0730 5F91      		pop r21
 1657 0732 4F91      		pop r20
 1658 0734 3F91      		pop r19
 1659 0736 2F91      		pop r18
 1660 0738 0F90      		pop r0
 1661 073a 0FBE      		out __SREG__,r0
 1662 073c 0F90      		pop r0
 1663 073e 1F90      		pop __zero_reg__
 1664 0740 1895      		reti
 1665               	.LFE35:
 1667               	.global	BT_default_reset
 1669               	BT_default_reset:
 1670               	.LFB37:
 1671               	.LM253:
 1672               	/* prologue: function */
 1673               	/* frame size = 0 */
 1674               	.LM254:
 1675 0742 80E2      		ldi r24,lo8(32)
 1676 0744 E0E6      		ldi r30,lo8(1632)
 1677 0746 F6E0      		ldi r31,hi8(1632)
 1678 0748 8583      		std Z+5,r24
 1679 074a 84E6      		ldi r24,lo8(100)
 1680 074c 90E0      		ldi r25,hi8(100)
 1681               	.LVL88:
 1682               	.LBB676:
 1683               	.LBB677:
 1684               	.LBB678:
 1685               	.LBB679:
 1686               	.LM255:
 1687 074e 20E2      		ldi r18,lo8(800)
 1688 0750 33E0      		ldi r19,hi8(800)
 1689               	.L129:
 1690 0752 F901      		movw r30,r18
 1691               	.LVL89:
 1692               	/* #APP */
 1693               	 ;  105 "c:/winavr-20100110/lib/gcc/../../avr/include/util/delay_basic.h" 1
 1694 0754 3197      		1: sbiw r30,1
 1695 0756 01F4      		brne 1b
 1696               	 ;  0 "" 2
 1697               	/* #NOAPP */
 1698               	.LBE679:
 1699               	.LBE678:
 1700               	.LM256:
 1701 0758 0197      		sbiw r24,1
 1702               	.LM257:
 1703 075a 01F4      		brne .L129
 1704 075c 20E0      		ldi r18,lo8(0)
 1705 075e 30E0      		ldi r19,hi8(0)
 1706               	.LVL90:
 1707               	.LBE677:
 1708               	.LBE676:
 1709               	.LBB680:
 1710               	.LM258:
 1711 0760 A0E6      		ldi r26,lo8(1632)
 1712 0762 B6E0      		ldi r27,hi8(1632)
 1713 0764 60E2      		ldi r22,lo8(32)
 1714               	.LBB681:
 1715               	.LBB682:
 1716               	.LBB683:
 1717               	.LBB684:
 1718               	.LM259:
 1719 0766 40E2      		ldi r20,lo8(800)
 1720 0768 53E0      		ldi r21,hi8(800)
 1721               	.LVL91:
 1722               	.L131:
 1723               	.LBE684:
 1724               	.LBE683:
 1725               	.LBE682:
 1726               	.LBE681:
 1727               	.LM260:
 1728 076a 1796      		adiw r26,7
 1729 076c 6C93      		st X,r22
 1730 076e 1797      		sbiw r26,7
 1731 0770 84E6      		ldi r24,lo8(100)
 1732 0772 90E0      		ldi r25,hi8(100)
 1733               	.LVL92:
 1734               	.L130:
 1735               	.LBB688:
 1736               	.LBB687:
 1737               	.LBB686:
 1738               	.LBB685:
 1739               	.LM261:
 1740 0774 FA01      		movw r30,r20
 1741               	.LVL93:
 1742               	/* #APP */
 1743               	 ;  105 "c:/winavr-20100110/lib/gcc/../../avr/include/util/delay_basic.h" 1
 1744 0776 3197      		1: sbiw r30,1
 1745 0778 01F4      		brne 1b
 1746               	 ;  0 "" 2
 1747               	/* #NOAPP */
 1748               	.LBE685:
 1749               	.LBE686:
 1750               	.LM262:
 1751 077a 0197      		sbiw r24,1
 1752               	.LM263:
 1753 077c 01F4      		brne .L130
 1754               	.LBE687:
 1755               	.LBE688:
 1756               	.LM264:
 1757 077e 2F5F      		subi r18,lo8(-(1))
 1758 0780 3F4F      		sbci r19,hi8(-(1))
 1759 0782 2630      		cpi r18,6
 1760 0784 3105      		cpc r19,__zero_reg__
 1761 0786 01F4      		brne .L131
 1762               	.LBE680:
 1763               	.LM265:
 1764 0788 80E2      		ldi r24,lo8(32)
 1765               	.LVL94:
 1766 078a E0E6      		ldi r30,lo8(1632)
 1767 078c F6E0      		ldi r31,hi8(1632)
 1768               	.LVL95:
 1769 078e 8683      		std Z+6,r24
 1770               	/* epilogue start */
 1771               	.LM266:
 1772 0790 0895      		ret
 1773               	.LFE37:
 1775               	.global	BT_reset
 1777               	BT_reset:
 1778               	.LFB38:
 1779               	.LM267:
 1780               	/* prologue: function */
 1781               	/* frame size = 0 */
 1782               	.LM268:
 1783 0792 82E0      		ldi r24,lo8(2)
 1784 0794 E0E4      		ldi r30,lo8(1600)
 1785 0796 F6E0      		ldi r31,hi8(1600)
 1786 0798 8683      		std Z+6,r24
 1787 079a 84E6      		ldi r24,lo8(100)
 1788 079c 90E0      		ldi r25,hi8(100)
 1789               	.LVL96:
 1790               	.LBB689:
 1791               	.LBB690:
 1792               	.LBB691:
 1793               	.LBB692:
 1794               	.LM269:
 1795 079e 20E2      		ldi r18,lo8(800)
 1796 07a0 33E0      		ldi r19,hi8(800)
 1797               	.L137:
 1798 07a2 F901      		movw r30,r18
 1799               	.LVL97:
 1800               	/* #APP */
 1801               	 ;  105 "c:/winavr-20100110/lib/gcc/../../avr/include/util/delay_basic.h" 1
 1802 07a4 3197      		1: sbiw r30,1
 1803 07a6 01F4      		brne 1b
 1804               	 ;  0 "" 2
 1805               	/* #NOAPP */
 1806               	.LBE692:
 1807               	.LBE691:
 1808               	.LM270:
 1809 07a8 0197      		sbiw r24,1
 1810               	.LM271:
 1811 07aa 01F4      		brne .L137
 1812               	.LBE690:
 1813               	.LBE689:
 1814               	.LM272:
 1815 07ac 82E0      		ldi r24,lo8(2)
 1816               	.LVL98:
 1817 07ae E0E4      		ldi r30,lo8(1600)
 1818 07b0 F6E0      		ldi r31,hi8(1600)
 1819               	.LVL99:
 1820 07b2 8583      		std Z+5,r24
 1821               	/* epilogue start */
 1822               	.LM273:
 1823 07b4 0895      		ret
 1824               	.LFE38:
 1826               	.global	init_BT
 1828               	init_BT:
 1829               	.LFB36:
 1830               	.LM274:
 1831 07b6 FF92      		push r15
 1832 07b8 0F93      		push r16
 1833 07ba 1F93      		push r17
 1834               	/* prologue: function */
 1835               	/* frame size = 0 */
 1836               	.LM275:
 1837 07bc 82E0      		ldi r24,lo8(2)
 1838 07be E0E4      		ldi r30,lo8(1600)
 1839 07c0 F6E0      		ldi r31,hi8(1600)
 1840 07c2 8183      		std Z+1,r24
 1841               	.LM276:
 1842 07c4 00E6      		ldi r16,lo8(1632)
 1843 07c6 16E0      		ldi r17,hi8(1632)
 1844 07c8 60E2      		ldi r22,lo8(32)
 1845 07ca F62E      		mov r15,r22
 1846 07cc F801      		movw r30,r16
 1847 07ce F182      		std Z+1,r15
 1848               	.LM277:
 1849 07d0 0E94 0000 		call BT_reset
 1850               	.LM278:
 1851 07d4 F801      		movw r30,r16
 1852 07d6 F682      		std Z+6,r15
 1853               	.LM279:
 1854 07d8 0E94 0000 		call init_bt_uart
 1855               	/* epilogue start */
 1856               	.LM280:
 1857 07dc 1F91      		pop r17
 1858 07de 0F91      		pop r16
 1859 07e0 FF90      		pop r15
 1860 07e2 0895      		ret
 1861               	.LFE36:
 1863               	.global	TWI_MasterInit
 1865               	TWI_MasterInit:
 1866               	.LFB39:
 1867               	.LM281:
 1868               	.LVL100:
 1869               	/* prologue: function */
 1870               	/* frame size = 0 */
 1871 07e4 DC01      		movw r26,r24
 1872 07e6 FB01      		movw r30,r22
 1873               	.LM282:
 1874 07e8 6D93      		st X+,r22
 1875 07ea 7C93      		st X,r23
 1876 07ec 1197      		sbiw r26,1
 1877               	.LM283:
 1878 07ee 4863      		ori r20,lo8(56)
 1879               	.LVL101:
 1880 07f0 4183      		std Z+1,r20
 1881               	.LM284:
 1882 07f2 ED91      		ld r30,X+
 1883 07f4 FC91      		ld r31,X
 1884 07f6 1197      		sbiw r26,1
 1885 07f8 2583      		std Z+5,r18
 1886               	.LM285:
 1887 07fa ED91      		ld r30,X+
 1888 07fc FC91      		ld r31,X
 1889 07fe 81E0      		ldi r24,lo8(1)
 1890               	.LVL102:
 1891 0800 8483      		std Z+4,r24
 1892               	/* epilogue start */
 1893               	.LM286:
 1894 0802 0895      		ret
 1895               	.LFE39:
 1897               	.global	TWI_MasterState
 1899               	TWI_MasterState:
 1900               	.LFB40:
 1901               	.LM287:
 1902               	.LVL103:
 1903               	/* prologue: function */
 1904               	/* frame size = 0 */
 1905 0804 FC01      		movw r30,r24
 1906               	.LM288:
 1907 0806 0190      		ld __tmp_reg__,Z+
 1908 0808 F081      		ld r31,Z
 1909 080a E02D      		mov r30,__tmp_reg__
 1910 080c 8481      		ldd r24,Z+4
 1911               	.LVL104:
 1912               	.LM289:
 1913 080e 8370      		andi r24,lo8(3)
 1914               	/* epilogue start */
 1915 0810 0895      		ret
 1916               	.LFE40:
 1918               	.global	TWI_MasterReady
 1920               	TWI_MasterReady:
 1921               	.LFB41:
 1922               	.LM290:
 1923               	.LVL105:
 1924               	/* prologue: function */
 1925               	/* frame size = 0 */
 1926 0812 FC01      		movw r30,r24
 1927               	.LM291:
 1928 0814 8785      		ldd r24,Z+15
 1929               	.LVL106:
 1930               	.LM292:
 1931 0816 80E0      		ldi r24,lo8(0)
 1932               	/* epilogue start */
 1933 0818 0895      		ret
 1934               	.LFE41:
 1936               	.global	TWI_MasterWriteRead
 1938               	TWI_MasterWriteRead:
 1939               	.LFB44:
 1940               	.LM293:
 1941               	.LVL107:
 1942 081a 0F93      		push r16
 1943               	.LVL108:
 1944 081c CF93      		push r28
 1945 081e DF93      		push r29
 1946               	/* prologue: function */
 1947               	/* frame size = 0 */
 1948 0820 DC01      		movw r26,r24
 1949 0822 722F      		mov r23,r18
 1950               	.LM294:
 1951 0824 2530      		cpi r18,lo8(5)
 1952 0826 00F0      		brlo .+2
 1953 0828 00C0      		rjmp .L149
 1954               	.LVL109:
 1955               	.LM295:
 1956 082a 0530      		cpi r16,lo8(5)
 1957               	.LVL110:
 1958 082c 00F0      		brlo .+2
 1959 082e 00C0      		rjmp .L149
 1960               	.LM296:
 1961 0830 1F96      		adiw r26,15
 1962 0832 8C91      		ld r24,X
 1963 0834 1F97      		sbiw r26,15
 1964 0836 8823      		tst r24
 1965 0838 01F4      		brne .L149
 1966               	.LM297:
 1967 083a 81E0      		ldi r24,lo8(1)
 1968 083c 1F96      		adiw r26,15
 1969 083e 8C93      		st X,r24
 1970 0840 1F97      		sbiw r26,15
 1971               	.LM298:
 1972 0842 5096      		adiw r26,16
 1973 0844 1C92      		st X,__zero_reg__
 1974 0846 5097      		sbiw r26,16
 1975               	.LM299:
 1976 0848 660F      		lsl r22
 1977               	.LVL111:
 1978 084a 1296      		adiw r26,2
 1979 084c 6C93      		st X,r22
 1980 084e 1297      		sbiw r26,2
 1981 0850 EA01      		movw r28,r20
 1982               	.LVL112:
 1983 0852 20E0      		ldi r18,lo8(0)
 1984 0854 30E0      		ldi r19,hi8(0)
 1985               	.LVL113:
 1986 0856 00C0      		rjmp .L150
 1987               	.L151:
 1988               	.LBB693:
 1989               	.LM300:
 1990 0858 8991      		ld r24,Y+
 1991 085a FD01      		movw r30,r26
 1992 085c E20F      		add r30,r18
 1993 085e F31F      		adc r31,r19
 1994 0860 8383      		std Z+3,r24
 1995 0862 2F5F      		subi r18,lo8(-(1))
 1996 0864 3F4F      		sbci r19,hi8(-(1))
 1997               	.L150:
 1998               	.LM301:
 1999 0866 2717      		cp r18,r23
 2000 0868 00F0      		brlo .L151
 2001               	.LBE693:
 2002               	.LM302:
 2003 086a 1B96      		adiw r26,11
 2004 086c 7C93      		st X,r23
 2005 086e 1B97      		sbiw r26,11
 2006               	.LM303:
 2007 0870 1C96      		adiw r26,12
 2008 0872 0C93      		st X,r16
 2009 0874 1C97      		sbiw r26,12
 2010               	.LM304:
 2011 0876 1D96      		adiw r26,13
 2012 0878 1C92      		st X,__zero_reg__
 2013 087a 1D97      		sbiw r26,13
 2014               	.LM305:
 2015 087c 1E96      		adiw r26,14
 2016 087e 1C92      		st X,__zero_reg__
 2017 0880 1E97      		sbiw r26,14
 2018               	.LM306:
 2019 0882 1B96      		adiw r26,11
 2020 0884 8C91      		ld r24,X
 2021 0886 1B97      		sbiw r26,11
 2022 0888 8823      		tst r24
 2023 088a 01F0      		breq .L152
 2024               	.LBB694:
 2025               	.LM307:
 2026 088c 1296      		adiw r26,2
 2027 088e 8C91      		ld r24,X
 2028 0890 1297      		sbiw r26,2
 2029 0892 8E7F      		andi r24,lo8(-2)
 2030 0894 00C0      		rjmp .L158
 2031               	.L152:
 2032               	.LBE694:
 2033               	.LM308:
 2034 0896 1C96      		adiw r26,12
 2035 0898 8C91      		ld r24,X
 2036 089a 1C97      		sbiw r26,12
 2037 089c 8823      		tst r24
 2038 089e 01F0      		breq .L157
 2039               	.L154:
 2040               	.LBB695:
 2041               	.LM309:
 2042 08a0 1296      		adiw r26,2
 2043 08a2 8C91      		ld r24,X
 2044 08a4 1297      		sbiw r26,2
 2045 08a6 8160      		ori r24,lo8(1)
 2046               	.L158:
 2047               	.LM310:
 2048 08a8 ED91      		ld r30,X+
 2049 08aa FC91      		ld r31,X
 2050 08ac 8683      		std Z+6,r24
 2051               	.L157:
 2052 08ae 81E0      		ldi r24,lo8(1)
 2053 08b0 00C0      		rjmp .L153
 2054               	.LVL114:
 2055               	.L149:
 2056 08b2 80E0      		ldi r24,lo8(0)
 2057               	.LVL115:
 2058               	.L153:
 2059               	/* epilogue start */
 2060               	.LBE695:
 2061               	.LM311:
 2062 08b4 DF91      		pop r29
 2063 08b6 CF91      		pop r28
 2064 08b8 0F91      		pop r16
 2065               	.LVL116:
 2066 08ba 0895      		ret
 2067               	.LFE44:
 2069               	.global	TWI_MasterRead
 2071               	TWI_MasterRead:
 2072               	.LFB43:
 2073               	.LM312:
 2074               	.LVL117:
 2075 08bc 0F93      		push r16
 2076               	/* prologue: function */
 2077               	/* frame size = 0 */
 2078 08be 042F      		mov r16,r20
 2079               	.LM313:
 2080 08c0 40E0      		ldi r20,lo8(0)
 2081 08c2 50E0      		ldi r21,hi8(0)
 2082               	.LVL118:
 2083 08c4 20E0      		ldi r18,lo8(0)
 2084 08c6 0E94 0000 		call TWI_MasterWriteRead
 2085               	.LVL119:
 2086               	/* epilogue start */
 2087               	.LM314:
 2088 08ca 0F91      		pop r16
 2089               	.LVL120:
 2090 08cc 0895      		ret
 2091               	.LFE43:
 2093               	.global	TWI_MasterWrite
 2095               	TWI_MasterWrite:
 2096               	.LFB42:
 2097               	.LM315:
 2098               	.LVL121:
 2099 08ce 0F93      		push r16
 2100               	/* prologue: function */
 2101               	/* frame size = 0 */
 2102               	.LM316:
 2103 08d0 00E0      		ldi r16,lo8(0)
 2104 08d2 0E94 0000 		call TWI_MasterWriteRead
 2105               	.LVL122:
 2106               	/* epilogue start */
 2107               	.LM317:
 2108 08d6 0F91      		pop r16
 2109 08d8 0895      		ret
 2110               	.LFE42:
 2112               	.global	TWI_MasterArbitrationLostBusErrorHandler
 2114               	TWI_MasterArbitrationLostBusErrorHandler:
 2115               	.LFB46:
 2116               	.LM318:
 2117               	.LVL123:
 2118               	/* prologue: function */
 2119               	/* frame size = 0 */
 2120 08da DC01      		movw r26,r24
 2121               	.LM319:
 2122 08dc ED91      		ld r30,X+
 2123 08de FC91      		ld r31,X
 2124 08e0 1197      		sbiw r26,1
 2125 08e2 9481      		ldd r25,Z+4
 2126               	.LVL124:
 2127               	.LM320:
 2128 08e4 92FF      		sbrs r25,2
 2129 08e6 00C0      		rjmp .L164
 2130               	.LVL125:
 2131               	.LM321:
 2132 08e8 84E0      		ldi r24,lo8(4)
 2133 08ea 00C0      		rjmp .L167
 2134               	.LVL126:
 2135               	.L164:
 2136               	.LM322:
 2137 08ec 83E0      		ldi r24,lo8(3)
 2138               	.L167:
 2139 08ee 5096      		adiw r26,16
 2140 08f0 8C93      		st X,r24
 2141 08f2 5097      		sbiw r26,16
 2142               	.LM323:
 2143 08f4 ED91      		ld r30,X+
 2144 08f6 FC91      		ld r31,X
 2145 08f8 1197      		sbiw r26,1
 2146 08fa 9860      		ori r25,lo8(8)
 2147 08fc 9483      		std Z+4,r25
 2148               	.LM324:
 2149 08fe 1F96      		adiw r26,15
 2150 0900 1C92      		st X,__zero_reg__
 2151               	/* epilogue start */
 2152               	.LM325:
 2153 0902 0895      		ret
 2154               	.LFE46:
 2156               	.global	TWI_MasterWriteHandler
 2158               	TWI_MasterWriteHandler:
 2159               	.LFB47:
 2160               	.LM326:
 2161               	.LVL127:
 2162 0904 CF93      		push r28
 2163 0906 DF93      		push r29
 2164               	/* prologue: function */
 2165               	/* frame size = 0 */
 2166 0908 DC01      		movw r26,r24
 2167               	.LM327:
 2168 090a 1B96      		adiw r26,11
 2169 090c 9C91      		ld r25,X
 2170 090e 1B97      		sbiw r26,11
 2171               	.LVL128:
 2172               	.LM328:
 2173 0910 1C96      		adiw r26,12
 2174 0912 2C91      		ld r18,X
 2175 0914 1C97      		sbiw r26,12
 2176               	.LVL129:
 2177               	.LM329:
 2178 0916 CD91      		ld r28,X+
 2179 0918 DC91      		ld r29,X
 2180 091a 1197      		sbiw r26,1
 2181 091c 8C81      		ldd r24,Y+4
 2182               	.LVL130:
 2183 091e 84FF      		sbrs r24,4
 2184 0920 00C0      		rjmp .L169
 2185               	.LM330:
 2186 0922 83E0      		ldi r24,lo8(3)
 2187 0924 8B83      		std Y+3,r24
 2188               	.LM331:
 2189 0926 85E0      		ldi r24,lo8(5)
 2190 0928 00C0      		rjmp .L174
 2191               	.L169:
 2192               	.LM332:
 2193 092a 1D96      		adiw r26,13
 2194 092c 8C91      		ld r24,X
 2195 092e 1D97      		sbiw r26,13
 2196 0930 8917      		cp r24,r25
 2197 0932 00F4      		brsh .L171
 2198               	.LBB696:
 2199               	.LM333:
 2200 0934 1D96      		adiw r26,13
 2201 0936 8C91      		ld r24,X
 2202 0938 1D97      		sbiw r26,13
 2203 093a FD01      		movw r30,r26
 2204 093c E80F      		add r30,r24
 2205 093e F11D      		adc r31,__zero_reg__
 2206 0940 8381      		ldd r24,Z+3
 2207               	.LVL131:
 2208               	.LM334:
 2209 0942 8F83      		std Y+7,r24
 2210               	.LM335:
 2211 0944 1D96      		adiw r26,13
 2212 0946 8C91      		ld r24,X
 2213 0948 1D97      		sbiw r26,13
 2214               	.LVL132:
 2215 094a 8F5F      		subi r24,lo8(-(1))
 2216 094c 1D96      		adiw r26,13
 2217 094e 8C93      		st X,r24
 2218 0950 00C0      		rjmp .L173
 2219               	.L171:
 2220               	.LBE696:
 2221               	.LM336:
 2222 0952 1E96      		adiw r26,14
 2223 0954 8C91      		ld r24,X
 2224 0956 1E97      		sbiw r26,14
 2225 0958 8217      		cp r24,r18
 2226 095a 00F4      		brsh .L172
 2227               	.LBB697:
 2228               	.LM337:
 2229 095c 1296      		adiw r26,2
 2230 095e 8C91      		ld r24,X
 2231 0960 8160      		ori r24,lo8(1)
 2232               	.LM338:
 2233 0962 8E83      		std Y+6,r24
 2234 0964 00C0      		rjmp .L173
 2235               	.L172:
 2236               	.LBE697:
 2237               	.LM339:
 2238 0966 83E0      		ldi r24,lo8(3)
 2239 0968 8B83      		std Y+3,r24
 2240               	.LBB698:
 2241               	.LBB699:
 2242               	.LM340:
 2243 096a 81E0      		ldi r24,lo8(1)
 2244               	.L174:
 2245 096c 5096      		adiw r26,16
 2246 096e 8C93      		st X,r24
 2247 0970 5097      		sbiw r26,16
 2248               	.LM341:
 2249 0972 1F96      		adiw r26,15
 2250 0974 1C92      		st X,__zero_reg__
 2251               	.L173:
 2252               	/* epilogue start */
 2253               	.LBE699:
 2254               	.LBE698:
 2255               	.LM342:
 2256 0976 DF91      		pop r29
 2257 0978 CF91      		pop r28
 2258 097a 0895      		ret
 2259               	.LFE47:
 2261               	.global	TWI_MasterReadHandler
 2263               	TWI_MasterReadHandler:
 2264               	.LFB48:
 2265               	.LM343:
 2266               	.LVL133:
 2267               	/* prologue: function */
 2268               	/* frame size = 0 */
 2269 097c DC01      		movw r26,r24
 2270               	.LM344:
 2271 097e 1E96      		adiw r26,14
 2272 0980 8C91      		ld r24,X
 2273 0982 1E97      		sbiw r26,14
 2274               	.LVL134:
 2275 0984 ED91      		ld r30,X+
 2276 0986 FC91      		ld r31,X
 2277 0988 1197      		sbiw r26,1
 2278 098a 8430      		cpi r24,lo8(4)
 2279 098c 00F4      		brsh .L176
 2280               	.LBB700:
 2281               	.LM345:
 2282 098e 9781      		ldd r25,Z+7
 2283               	.LVL135:
 2284               	.LM346:
 2285 0990 1E96      		adiw r26,14
 2286 0992 8C91      		ld r24,X
 2287 0994 1E97      		sbiw r26,14
 2288 0996 FD01      		movw r30,r26
 2289 0998 E80F      		add r30,r24
 2290 099a F11D      		adc r31,__zero_reg__
 2291 099c 9783      		std Z+7,r25
 2292               	.LM347:
 2293 099e 1E96      		adiw r26,14
 2294 09a0 8C91      		ld r24,X
 2295 09a2 1E97      		sbiw r26,14
 2296 09a4 8F5F      		subi r24,lo8(-(1))
 2297 09a6 1E96      		adiw r26,14
 2298 09a8 8C93      		st X,r24
 2299 09aa 1E97      		sbiw r26,14
 2300 09ac 00C0      		rjmp .L177
 2301               	.LVL136:
 2302               	.L176:
 2303               	.LBE700:
 2304               	.LM348:
 2305 09ae 83E0      		ldi r24,lo8(3)
 2306 09b0 8383      		std Z+3,r24
 2307               	.LBB701:
 2308               	.LBB702:
 2309               	.LM349:
 2310 09b2 82E0      		ldi r24,lo8(2)
 2311 09b4 5096      		adiw r26,16
 2312 09b6 8C93      		st X,r24
 2313 09b8 5097      		sbiw r26,16
 2314               	.LM350:
 2315 09ba 1F96      		adiw r26,15
 2316 09bc 1C92      		st X,__zero_reg__
 2317 09be 1F97      		sbiw r26,15
 2318               	.LVL137:
 2319               	.L177:
 2320               	.LBE702:
 2321               	.LBE701:
 2322               	.LM351:
 2323 09c0 1C96      		adiw r26,12
 2324 09c2 9C91      		ld r25,X
 2325 09c4 1C97      		sbiw r26,12
 2326               	.LVL138:
 2327               	.LM352:
 2328 09c6 1E96      		adiw r26,14
 2329 09c8 8C91      		ld r24,X
 2330 09ca 1E97      		sbiw r26,14
 2331 09cc ED91      		ld r30,X+
 2332 09ce FC91      		ld r31,X
 2333 09d0 1197      		sbiw r26,1
 2334 09d2 8917      		cp r24,r25
 2335 09d4 00F4      		brsh .L178
 2336               	.LM353:
 2337 09d6 82E0      		ldi r24,lo8(2)
 2338 09d8 8383      		std Z+3,r24
 2339 09da 0895      		ret
 2340               	.L178:
 2341               	.LM354:
 2342 09dc 87E0      		ldi r24,lo8(7)
 2343 09de 8383      		std Z+3,r24
 2344               	.LBB703:
 2345               	.LBB704:
 2346               	.LM355:
 2347 09e0 81E0      		ldi r24,lo8(1)
 2348 09e2 5096      		adiw r26,16
 2349 09e4 8C93      		st X,r24
 2350 09e6 5097      		sbiw r26,16
 2351               	.LM356:
 2352 09e8 1F96      		adiw r26,15
 2353 09ea 1C92      		st X,__zero_reg__
 2354 09ec 0895      		ret
 2355               	.LBE704:
 2356               	.LBE703:
 2357               	.LFE48:
 2359               	.global	TWI_MasterInterruptHandler
 2361               	TWI_MasterInterruptHandler:
 2362               	.LFB45:
 2363               	.LM357:
 2364               	.LVL139:
 2365               	/* prologue: function */
 2366               	/* frame size = 0 */
 2367 09ee DC01      		movw r26,r24
 2368               	.LM358:
 2369 09f0 ED91      		ld r30,X+
 2370 09f2 FC91      		ld r31,X
 2371 09f4 1197      		sbiw r26,1
 2372 09f6 4481      		ldd r20,Z+4
 2373               	.LVL140:
 2374               	.LM359:
 2375 09f8 242F      		mov r18,r20
 2376 09fa 30E0      		ldi r19,lo8(0)
 2377 09fc C901      		movw r24,r18
 2378               	.LVL141:
 2379 09fe 8C70      		andi r24,lo8(12)
 2380 0a00 9070      		andi r25,hi8(12)
 2381 0a02 892B      		or r24,r25
 2382 0a04 01F0      		breq .L182
 2383               	.LM360:
 2384 0a06 CD01      		movw r24,r26
 2385 0a08 0E94 0000 		call TWI_MasterArbitrationLostBusErrorHandler
 2386               	.LVL142:
 2387 0a0c 0895      		ret
 2388               	.LVL143:
 2389               	.L182:
 2390               	.LM361:
 2391 0a0e 46FF      		sbrs r20,6
 2392 0a10 00C0      		rjmp .L184
 2393               	.LVL144:
 2394               	.LM362:
 2395 0a12 CD01      		movw r24,r26
 2396 0a14 0E94 0000 		call TWI_MasterWriteHandler
 2397               	.LVL145:
 2398 0a18 0895      		ret
 2399               	.LVL146:
 2400               	.L184:
 2401               	.LM363:
 2402 0a1a 47FF      		sbrs r20,7
 2403 0a1c 00C0      		rjmp .L185
 2404               	.LVL147:
 2405               	.LM364:
 2406 0a1e CD01      		movw r24,r26
 2407 0a20 0E94 0000 		call TWI_MasterReadHandler
 2408               	.LVL148:
 2409 0a24 0895      		ret
 2410               	.LVL149:
 2411               	.L185:
 2412               	.LBB705:
 2413               	.LBB706:
 2414               	.LM365:
 2415 0a26 86E0      		ldi r24,lo8(6)
 2416 0a28 5096      		adiw r26,16
 2417 0a2a 8C93      		st X,r24
 2418 0a2c 5097      		sbiw r26,16
 2419               	.LM366:
 2420 0a2e 1F96      		adiw r26,15
 2421 0a30 1C92      		st X,__zero_reg__
 2422 0a32 0895      		ret
 2423               	.LBE706:
 2424               	.LBE705:
 2425               	.LFE45:
 2427               	.global	TWI_MasterTransactionFinished
 2429               	TWI_MasterTransactionFinished:
 2430               	.LFB49:
 2431               	.LM367:
 2432               	.LVL150:
 2433               	/* prologue: function */
 2434               	/* frame size = 0 */
 2435 0a34 FC01      		movw r30,r24
 2436               	.LM368:
 2437 0a36 608B      		std Z+16,r22
 2438               	.LM369:
 2439 0a38 1786      		std Z+15,__zero_reg__
 2440               	/* epilogue start */
 2441               	.LM370:
 2442 0a3a 0895      		ret
 2443               	.LFE49:
 2445               	.global	getAccelData
 2447               	getAccelData:
 2448               	.LFB50:
 2449               	.LM371:
 2450               	/* prologue: function */
 2451               	/* frame size = 0 */
 2452               	.LM372:
 2453 0a3c 6091 0000 		lds r22,_acc
 2454 0a40 7091 0000 		lds r23,_acc+1
 2455               	.LM373:
 2456 0a44 8091 0000 		lds r24,_acc+2
 2457 0a48 9091 0000 		lds r25,_acc+3
 2458               	/* epilogue start */
 2459 0a4c 0895      		ret
 2460               	.LFE50:
 2462               	.global	newAccelData
 2464               	newAccelData:
 2465               	.LFB51:
 2466               	.LM374:
 2467               	/* prologue: function */
 2468               	/* frame size = 0 */
 2469               	.LM375:
 2470 0a4e 8091 0000 		lds r24,twiMaster+16
 2471 0a52 8130      		cpi r24,lo8(1)
 2472 0a54 01F0      		breq .L192
 2473 0a56 20E0      		ldi r18,lo8(0)
 2474 0a58 30E0      		ldi r19,hi8(0)
 2475 0a5a 00C0      		rjmp .L193
 2476               	.L192:
 2477 0a5c 8091 0000 		lds r24,twiMaster+15
 2478 0a60 90E0      		ldi r25,lo8(0)
 2479 0a62 8111      		cpse r24,__zero_reg__
 2480 0a64 91E0      		ldi r25,lo8(1)
 2481               	.L194:
 2482 0a66 81E0      		ldi r24,lo8(1)
 2483 0a68 9827      		eor r25,r24
 2484 0a6a 292F      		mov r18,r25
 2485 0a6c 30E0      		ldi r19,lo8(0)
 2486               	.L193:
 2487               	.LM376:
 2488 0a6e C901      		movw r24,r18
 2489               	/* epilogue start */
 2490 0a70 0895      		ret
 2491               	.LFE51:
 2493               	.global	updateAccel
 2495               	updateAccel:
 2496               	.LFB52:
 2497               	.LM377:
 2498 0a72 0F93      		push r16
 2499 0a74 DF93      		push r29
 2500 0a76 CF93      		push r28
 2501 0a78 0F92      		push __tmp_reg__
 2502 0a7a CDB7      		in r28,__SP_L__
 2503 0a7c DEB7      		in r29,__SP_H__
 2504               	/* prologue: function */
 2505               	/* frame size = 1 */
 2506               	.LM378:
 2507 0a7e 1982      		std Y+1,__zero_reg__
 2508               	.LVL151:
 2509               	.LM379:
 2510 0a80 80E0      		ldi r24,lo8(twiMaster)
 2511 0a82 90E0      		ldi r25,hi8(twiMaster)
 2512 0a84 6CE4      		ldi r22,lo8(76)
 2513 0a86 AE01      		movw r20,r28
 2514 0a88 4F5F      		subi r20,lo8(-(1))
 2515 0a8a 5F4F      		sbci r21,hi8(-(1))
 2516 0a8c 21E0      		ldi r18,lo8(1)
 2517 0a8e 04E0      		ldi r16,lo8(4)
 2518 0a90 0E94 0000 		call TWI_MasterWriteRead
 2519               	.L197:
 2520               	.LM380:
 2521 0a94 8091 0000 		lds r24,twiMaster+15
 2522 0a98 8823      		tst r24
 2523 0a9a 01F4      		brne .L197
 2524               	.LM381:
 2525 0a9c 8091 0000 		lds r24,twiMaster+7
 2526 0aa0 8093 0000 		sts _acc,r24
 2527               	.LM382:
 2528 0aa4 8091 0000 		lds r24,twiMaster+8
 2529 0aa8 8093 0000 		sts _acc+1,r24
 2530               	.LM383:
 2531 0aac 8091 0000 		lds r24,twiMaster+9
 2532 0ab0 8093 0000 		sts _acc+2,r24
 2533               	.LM384:
 2534 0ab4 8091 0000 		lds r24,twiMaster+10
 2535 0ab8 8093 0000 		sts _acc+3,r24
 2536               	.LM385:
 2537 0abc 1092 0000 		sts twiMaster+16,__zero_reg__
 2538               	/* epilogue start */
 2539               	.LM386:
 2540 0ac0 0F90      		pop __tmp_reg__
 2541 0ac2 CF91      		pop r28
 2542 0ac4 DF91      		pop r29
 2543 0ac6 0F91      		pop r16
 2544 0ac8 0895      		ret
 2545               	.LFE52:
 2547               	.global	initAccel
 2549               	initAccel:
 2550               	.LFB53:
 2551               	.LM387:
 2552 0aca 0F93      		push r16
 2553 0acc DF93      		push r29
 2554 0ace CF93      		push r28
 2555 0ad0 00D0      		rcall .
 2556 0ad2 CDB7      		in r28,__SP_L__
 2557 0ad4 DEB7      		in r29,__SP_H__
 2558               	/* prologue: function */
 2559               	/* frame size = 2 */
 2560               	.LM388:
 2561               	/* #APP */
 2562               	 ;  54 "accelerometer.c" 1
 2563 0ad6 F894      		cli
 2564               	 ;  0 "" 2
 2565               	/* #NOAPP */
 2566               	.LBB707:
 2567               	.LBB708:
 2568               	.LM389:
 2569 0ad8 E0EA      		ldi r30,lo8(1184)
 2570 0ada F4E0      		ldi r31,hi8(1184)
 2571 0adc E093 0000 		sts twiMaster,r30
 2572 0ae0 F093 0000 		sts (twiMaster)+1,r31
 2573               	.LM390:
 2574 0ae4 88E7      		ldi r24,lo8(120)
 2575 0ae6 8183      		std Z+1,r24
 2576               	.LM391:
 2577 0ae8 8BE9      		ldi r24,lo8(-101)
 2578 0aea 8583      		std Z+5,r24
 2579               	.LM392:
 2580 0aec 81E0      		ldi r24,lo8(1)
 2581 0aee 8483      		std Z+4,r24
 2582               	.LBE708:
 2583               	.LBE707:
 2584               	.LM393:
 2585 0af0 8091 A200 		lds r24,162
 2586 0af4 8160      		ori r24,lo8(1)
 2587 0af6 E0EA      		ldi r30,lo8(160)
 2588 0af8 F0E0      		ldi r31,hi8(160)
 2589 0afa 8283      		std Z+2,r24
 2590               	.LM394:
 2591               	/* #APP */
 2592               	 ;  64 "accelerometer.c" 1
 2593 0afc 7894      		sei
 2594               	 ;  0 "" 2
 2595               	.LM395:
 2596               	/* #NOAPP */
 2597 0afe 87E0      		ldi r24,lo8(7)
 2598 0b00 8983      		std Y+1,r24
 2599               	.LM396:
 2600 0b02 80E5      		ldi r24,lo8(80)
 2601 0b04 8A83      		std Y+2,r24
 2602               	.LM397:
 2603 0b06 80E0      		ldi r24,lo8(twiMaster)
 2604 0b08 90E0      		ldi r25,hi8(twiMaster)
 2605 0b0a 6CE4      		ldi r22,lo8(76)
 2606 0b0c AE01      		movw r20,r28
 2607 0b0e 4F5F      		subi r20,lo8(-(1))
 2608 0b10 5F4F      		sbci r21,hi8(-(1))
 2609 0b12 22E0      		ldi r18,lo8(2)
 2610 0b14 00E0      		ldi r16,lo8(0)
 2611 0b16 0E94 0000 		call TWI_MasterWriteRead
 2612               	.L201:
 2613               	.LM398:
 2614 0b1a 8091 0000 		lds r24,twiMaster+15
 2615 0b1e 8823      		tst r24
 2616 0b20 01F4      		brne .L201
 2617               	.LM399:
 2618 0b22 85E0      		ldi r24,lo8(5)
 2619 0b24 8983      		std Y+1,r24
 2620               	.LM400:
 2621 0b26 1A82      		std Y+2,__zero_reg__
 2622               	.LM401:
 2623 0b28 80E0      		ldi r24,lo8(twiMaster)
 2624 0b2a 90E0      		ldi r25,hi8(twiMaster)
 2625 0b2c 6CE4      		ldi r22,lo8(76)
 2626 0b2e AE01      		movw r20,r28
 2627 0b30 4F5F      		subi r20,lo8(-(1))
 2628 0b32 5F4F      		sbci r21,hi8(-(1))
 2629 0b34 22E0      		ldi r18,lo8(2)
 2630 0b36 00E0      		ldi r16,lo8(0)
 2631 0b38 0E94 0000 		call TWI_MasterWriteRead
 2632               	.L202:
 2633               	.LM402:
 2634 0b3c 8091 0000 		lds r24,twiMaster+15
 2635 0b40 8823      		tst r24
 2636 0b42 01F4      		brne .L202
 2637               	.LM403:
 2638 0b44 86E0      		ldi r24,lo8(6)
 2639 0b46 8983      		std Y+1,r24
 2640               	.LM404:
 2641 0b48 84EE      		ldi r24,lo8(-28)
 2642 0b4a 8A83      		std Y+2,r24
 2643               	.LM405:
 2644 0b4c 80E0      		ldi r24,lo8(twiMaster)
 2645 0b4e 90E0      		ldi r25,hi8(twiMaster)
 2646 0b50 6CE4      		ldi r22,lo8(76)
 2647 0b52 AE01      		movw r20,r28
 2648 0b54 4F5F      		subi r20,lo8(-(1))
 2649 0b56 5F4F      		sbci r21,hi8(-(1))
 2650 0b58 22E0      		ldi r18,lo8(2)
 2651 0b5a 00E0      		ldi r16,lo8(0)
 2652 0b5c 0E94 0000 		call TWI_MasterWriteRead
 2653               	.L203:
 2654               	.LM406:
 2655 0b60 8091 0000 		lds r24,twiMaster+15
 2656 0b64 8823      		tst r24
 2657 0b66 01F4      		brne .L203
 2658               	.LM407:
 2659 0b68 88E0      		ldi r24,lo8(8)
 2660 0b6a 8983      		std Y+1,r24
 2661               	.LM408:
 2662 0b6c 80EE      		ldi r24,lo8(-32)
 2663 0b6e 8A83      		std Y+2,r24
 2664               	.LM409:
 2665 0b70 80E0      		ldi r24,lo8(twiMaster)
 2666 0b72 90E0      		ldi r25,hi8(twiMaster)
 2667 0b74 6CE4      		ldi r22,lo8(76)
 2668 0b76 AE01      		movw r20,r28
 2669 0b78 4F5F      		subi r20,lo8(-(1))
 2670 0b7a 5F4F      		sbci r21,hi8(-(1))
 2671 0b7c 22E0      		ldi r18,lo8(2)
 2672 0b7e 00E0      		ldi r16,lo8(0)
 2673 0b80 0E94 0000 		call TWI_MasterWriteRead
 2674               	.L204:
 2675               	.LM410:
 2676 0b84 8091 0000 		lds r24,twiMaster+15
 2677 0b88 8823      		tst r24
 2678 0b8a 01F4      		brne .L204
 2679               	.LM411:
 2680 0b8c 89E0      		ldi r24,lo8(9)
 2681 0b8e 8983      		std Y+1,r24
 2682               	.LM412:
 2683 0b90 88E0      		ldi r24,lo8(8)
 2684 0b92 8A83      		std Y+2,r24
 2685               	.LM413:
 2686 0b94 80E0      		ldi r24,lo8(twiMaster)
 2687 0b96 90E0      		ldi r25,hi8(twiMaster)
 2688 0b98 6CE4      		ldi r22,lo8(76)
 2689 0b9a AE01      		movw r20,r28
 2690 0b9c 4F5F      		subi r20,lo8(-(1))
 2691 0b9e 5F4F      		sbci r21,hi8(-(1))
 2692 0ba0 22E0      		ldi r18,lo8(2)
 2693 0ba2 00E0      		ldi r16,lo8(0)
 2694 0ba4 0E94 0000 		call TWI_MasterWriteRead
 2695               	.L205:
 2696               	.LM414:
 2697 0ba8 8091 0000 		lds r24,twiMaster+15
 2698 0bac 8823      		tst r24
 2699 0bae 01F4      		brne .L205
 2700               	.LM415:
 2701 0bb0 8AE0      		ldi r24,lo8(10)
 2702 0bb2 8983      		std Y+1,r24
 2703               	.LM416:
 2704 0bb4 80E1      		ldi r24,lo8(16)
 2705 0bb6 8A83      		std Y+2,r24
 2706               	.LM417:
 2707 0bb8 80E0      		ldi r24,lo8(twiMaster)
 2708 0bba 90E0      		ldi r25,hi8(twiMaster)
 2709 0bbc 6CE4      		ldi r22,lo8(76)
 2710 0bbe AE01      		movw r20,r28
 2711 0bc0 4F5F      		subi r20,lo8(-(1))
 2712 0bc2 5F4F      		sbci r21,hi8(-(1))
 2713 0bc4 22E0      		ldi r18,lo8(2)
 2714 0bc6 00E0      		ldi r16,lo8(0)
 2715 0bc8 0E94 0000 		call TWI_MasterWriteRead
 2716               	.L206:
 2717               	.LM418:
 2718 0bcc 8091 0000 		lds r24,twiMaster+15
 2719 0bd0 8823      		tst r24
 2720 0bd2 01F4      		brne .L206
 2721               	.LM419:
 2722 0bd4 87E0      		ldi r24,lo8(7)
 2723 0bd6 8983      		std Y+1,r24
 2724               	.LM420:
 2725 0bd8 81E5      		ldi r24,lo8(81)
 2726 0bda 8A83      		std Y+2,r24
 2727               	.LM421:
 2728 0bdc 80E0      		ldi r24,lo8(twiMaster)
 2729 0bde 90E0      		ldi r25,hi8(twiMaster)
 2730 0be0 6CE4      		ldi r22,lo8(76)
 2731 0be2 AE01      		movw r20,r28
 2732 0be4 4F5F      		subi r20,lo8(-(1))
 2733 0be6 5F4F      		sbci r21,hi8(-(1))
 2734 0be8 22E0      		ldi r18,lo8(2)
 2735 0bea 00E0      		ldi r16,lo8(0)
 2736 0bec 0E94 0000 		call TWI_MasterWriteRead
 2737               	.L207:
 2738               	.LM422:
 2739 0bf0 8091 0000 		lds r24,twiMaster+15
 2740 0bf4 8823      		tst r24
 2741 0bf6 01F4      		brne .L207
 2742               	/* epilogue start */
 2743               	.LM423:
 2744 0bf8 0F90      		pop __tmp_reg__
 2745 0bfa 0F90      		pop __tmp_reg__
 2746 0bfc CF91      		pop r28
 2747 0bfe DF91      		pop r29
 2748 0c00 0F91      		pop r16
 2749 0c02 0895      		ret
 2750               	.LFE53:
 2752               	.global	__vector_46
 2754               	__vector_46:
 2755               	.LFB54:
 2756               	.LM424:
 2757 0c04 1F92      		push __zero_reg__
 2758 0c06 0F92      		push r0
 2759 0c08 0FB6      		in r0,__SREG__
 2760 0c0a 0F92      		push r0
 2761 0c0c 1124      		clr __zero_reg__
 2762 0c0e 2F93      		push r18
 2763 0c10 3F93      		push r19
 2764 0c12 4F93      		push r20
 2765 0c14 5F93      		push r21
 2766 0c16 6F93      		push r22
 2767 0c18 7F93      		push r23
 2768 0c1a 8F93      		push r24
 2769 0c1c 9F93      		push r25
 2770 0c1e AF93      		push r26
 2771 0c20 BF93      		push r27
 2772 0c22 EF93      		push r30
 2773 0c24 FF93      		push r31
 2774               	/* prologue: Signal */
 2775               	/* frame size = 0 */
 2776               	.LM425:
 2777 0c26 80E0      		ldi r24,lo8(twiMaster)
 2778 0c28 90E0      		ldi r25,hi8(twiMaster)
 2779 0c2a 0E94 0000 		call TWI_MasterInterruptHandler
 2780               	/* epilogue start */
 2781               	.LM426:
 2782 0c2e FF91      		pop r31
 2783 0c30 EF91      		pop r30
 2784 0c32 BF91      		pop r27
 2785 0c34 AF91      		pop r26
 2786 0c36 9F91      		pop r25
 2787 0c38 8F91      		pop r24
 2788 0c3a 7F91      		pop r23
 2789 0c3c 6F91      		pop r22
 2790 0c3e 5F91      		pop r21
 2791 0c40 4F91      		pop r20
 2792 0c42 3F91      		pop r19
 2793 0c44 2F91      		pop r18
 2794 0c46 0F90      		pop r0
 2795 0c48 0FBE      		out __SREG__,r0
 2796 0c4a 0F90      		pop r0
 2797 0c4c 1F90      		pop __zero_reg__
 2798 0c4e 1895      		reti
 2799               	.LFE54:
 2801               	.global	init_dac
 2803               	init_dac:
 2804               	.LFB55:
 2805               	.LM427:
 2806               	/* prologue: function */
 2807               	/* frame size = 0 */
 2808               	.LM428:
 2809 0c50 E0E2      		ldi r30,lo8(800)
 2810 0c52 F3E0      		ldi r31,hi8(800)
 2811 0c54 80E4      		ldi r24,lo8(64)
 2812 0c56 8183      		std Z+1,r24
 2813               	.LM429:
 2814 0c58 89E0      		ldi r24,lo8(9)
 2815 0c5a 8283      		std Z+2,r24
 2816               	.LM430:
 2817 0c5c 82E5      		ldi r24,lo8(82)
 2818 0c5e 8483      		std Z+4,r24
 2819               	.LM431:
 2820 0c60 81E0      		ldi r24,lo8(1)
 2821 0c62 8093 2003 		sts 800,r24
 2822               	.LBB709:
 2823               	.LBB710:
 2824               	.LM432:
 2825 0c66 8091 2003 		lds r24,800
 2826 0c6a 8460      		ori r24,lo8(4)
 2827 0c6c 8093 2003 		sts 800,r24
 2828               	.L219:
 2829               	.LM433:
 2830 0c70 8091 2503 		lds r24,805
 2831 0c74 80FF      		sbrs r24,0
 2832 0c76 00C0      		rjmp .L219
 2833               	.LM434:
 2834 0c78 E0E2      		ldi r30,lo8(800)
 2835 0c7a F3E0      		ldi r31,hi8(800)
 2836 0c7c 118E      		std Z+25,__zero_reg__
 2837               	.LBE710:
 2838               	.LBE709:
 2839               	.LBB711:
 2840               	.LBB712:
 2841               	.LM435:
 2842 0c7e 8091 2003 		lds r24,800
 2843 0c82 8860      		ori r24,lo8(8)
 2844 0c84 8093 2003 		sts 800,r24
 2845               	.L220:
 2846               	.LM436:
 2847 0c88 8091 2503 		lds r24,805
 2848 0c8c 81FF      		sbrs r24,1
 2849 0c8e 00C0      		rjmp .L220
 2850               	.LM437:
 2851 0c90 E0E2      		ldi r30,lo8(800)
 2852 0c92 F3E0      		ldi r31,hi8(800)
 2853 0c94 138E      		std Z+27,__zero_reg__
 2854               	/* epilogue start */
 2855               	.LBE712:
 2856               	.LBE711:
 2857               	.LM438:
 2858 0c96 0895      		ret
 2859               	.LFE55:
 2861               	.global	set_dac0
 2863               	set_dac0:
 2864               	.LFB56:
 2865               	.LM439:
 2866               	.LVL152:
 2867               	/* prologue: function */
 2868               	/* frame size = 0 */
 2869 0c98 982F      		mov r25,r24
 2870               	.LM440:
 2871 0c9a 8091 2003 		lds r24,800
 2872               	.LVL153:
 2873 0c9e 8460      		ori r24,lo8(4)
 2874 0ca0 8093 2003 		sts 800,r24
 2875               	.L225:
 2876               	.LM441:
 2877 0ca4 8091 2503 		lds r24,805
 2878 0ca8 80FF      		sbrs r24,0
 2879 0caa 00C0      		rjmp .L225
 2880               	.LM442:
 2881 0cac E0E2      		ldi r30,lo8(800)
 2882 0cae F3E0      		ldi r31,hi8(800)
 2883 0cb0 918F      		std Z+25,r25
 2884               	/* epilogue start */
 2885               	.LM443:
 2886 0cb2 0895      		ret
 2887               	.LFE56:
 2889               	.global	set_dac1
 2891               	set_dac1:
 2892               	.LFB57:
 2893               	.LM444:
 2894               	.LVL154:
 2895               	/* prologue: function */
 2896               	/* frame size = 0 */
 2897 0cb4 982F      		mov r25,r24
 2898               	.LM445:
 2899 0cb6 8091 2003 		lds r24,800
 2900               	.LVL155:
 2901 0cba 8860      		ori r24,lo8(8)
 2902 0cbc 8093 2003 		sts 800,r24
 2903               	.L229:
 2904               	.LM446:
 2905 0cc0 8091 2503 		lds r24,805
 2906 0cc4 81FF      		sbrs r24,1
 2907 0cc6 00C0      		rjmp .L229
 2908               	.LM447:
 2909 0cc8 E0E2      		ldi r30,lo8(800)
 2910 0cca F3E0      		ldi r31,hi8(800)
 2911 0ccc 938F      		std Z+27,r25
 2912               	/* epilogue start */
 2913               	.LM448:
 2914 0cce 0895      		ret
 2915               	.LFE57:
 2917               	.global	disable_dac0
 2919               	disable_dac0:
 2920               	.LFB58:
 2921               	.LM449:
 2922               	/* prologue: function */
 2923               	/* frame size = 0 */
 2924               	.LM450:
 2925 0cd0 E0E2      		ldi r30,lo8(800)
 2926 0cd2 F3E0      		ldi r31,hi8(800)
 2927 0cd4 8081      		ld r24,Z
 2928 0cd6 8B7F      		andi r24,lo8(-5)
 2929 0cd8 8083      		st Z,r24
 2930               	/* epilogue start */
 2931               	.LM451:
 2932 0cda 0895      		ret
 2933               	.LFE58:
 2935               	.global	disable_dac1
 2937               	disable_dac1:
 2938               	.LFB59:
 2939               	.LM452:
 2940               	/* prologue: function */
 2941               	/* frame size = 0 */
 2942               	.LM453:
 2943 0cdc E0E2      		ldi r30,lo8(800)
 2944 0cde F3E0      		ldi r31,hi8(800)
 2945 0ce0 8081      		ld r24,Z
 2946 0ce2 877F      		andi r24,lo8(-9)
 2947 0ce4 8083      		st Z,r24
 2948               	/* epilogue start */
 2949               	.LM454:
 2950 0ce6 0895      		ret
 2951               	.LFE59:
 2953               	.global	init_buzzer
 2955               	init_buzzer:
 2956               	.LFB60:
 2957               	.LM455:
 2958               	/* prologue: function */
 2959               	/* frame size = 0 */
 2960               	.LM456:
 2961 0ce8 E0E4      		ldi r30,lo8(2368)
 2962 0cea F9E0      		ldi r31,hi8(2368)
 2963 0cec 86E0      		ldi r24,lo8(6)
 2964 0cee 8083      		st Z,r24
 2965               	.LM457:
 2966 0cf0 81E0      		ldi r24,lo8(1)
 2967 0cf2 8183      		std Z+1,r24
 2968               	.LM458:
 2969 0cf4 E0E6      		ldi r30,lo8(1632)
 2970 0cf6 F6E0      		ldi r31,hi8(1632)
 2971 0cf8 8181      		ldd r24,Z+1
 2972 0cfa 8061      		ori r24,lo8(16)
 2973 0cfc 8183      		std Z+1,r24
 2974               	.LM459:
 2975 0cfe 8681      		ldd r24,Z+6
 2976 0d00 8061      		ori r24,lo8(16)
 2977 0d02 8683      		std Z+6,r24
 2978               	/* epilogue start */
 2979               	.LM460:
 2980 0d04 0895      		ret
 2981               	.LFE60:
 2983               	.global	set_buzzer
 2985               	set_buzzer:
 2986               	.LFB61:
 2987               	.LM461:
 2988               	.LVL156:
 2989               	/* prologue: function */
 2990               	/* frame size = 0 */
 2991               	.LM462:
 2992 0d06 E0E4      		ldi r30,lo8(2368)
 2993 0d08 F9E0      		ldi r31,hi8(2368)
 2994 0d0a 2181      		ldd r18,Z+1
 2995 0d0c 2061      		ori r18,lo8(16)
 2996 0d0e 2183      		std Z+1,r18
 2997               	.LM463:
 2998               	/* #APP */
 2999               	 ;  20 "buzzer.c" 1
 3000 0d10 F894      		cli
 3001               	 ;  0 "" 2
 3002               	.LM464:
 3003               	/* #NOAPP */
 3004 0d12 E0E4      		ldi r30,lo8(2368)
 3005 0d14 F9E0      		ldi r31,hi8(2368)
 3006 0d16 80A7      		std Z+40,r24
 3007 0d18 91A7      		std Z+41,r25
 3008               	.LVL157:
 3009               	.LM465:
 3010               	/* #APP */
 3011               	 ;  22 "buzzer.c" 1
 3012 0d1a 7894      		sei
 3013               	 ;  0 "" 2
 3014               	/* epilogue start */
 3015               	.LM466:
 3016               	/* #NOAPP */
 3017 0d1c 0895      		ret
 3018               	.LFE61:
 3020               	.global	turn_off_buzzer
 3022               	turn_off_buzzer:
 3023               	.LFB62:
 3024               	.LM467:
 3025               	/* prologue: function */
 3026               	/* frame size = 0 */
 3027               	.LM468:
 3028 0d1e E0E4      		ldi r30,lo8(2368)
 3029 0d20 F9E0      		ldi r31,hi8(2368)
 3030 0d22 8181      		ldd r24,Z+1
 3031 0d24 8F7E      		andi r24,lo8(-17)
 3032 0d26 8183      		std Z+1,r24
 3033               	.LM469:
 3034 0d28 E0E6      		ldi r30,lo8(1632)
 3035 0d2a F6E0      		ldi r31,hi8(1632)
 3036 0d2c 8681      		ldd r24,Z+6
 3037 0d2e 8061      		ori r24,lo8(16)
 3038 0d30 8683      		std Z+6,r24
 3039               	/* epilogue start */
 3040               	.LM470:
 3041 0d32 0895      		ret
 3042               	.LFE62:
 3044               	.global	set_pwm
 3046               	set_pwm:
 3047               	.LFB63:
 3048               	.LM471:
 3049               	/* prologue: function */
 3050               	/* frame size = 0 */
 3051               	.LM472:
 3052 0d34 E0E0      		ldi r30,lo8(2560)
 3053 0d36 FAE0      		ldi r31,hi8(2560)
 3054 0d38 81E0      		ldi r24,lo8(1)
 3055 0d3a 8083      		st Z,r24
 3056               	.LM473:
 3057 0d3c 83E0      		ldi r24,lo8(3)
 3058 0d3e 8183      		std Z+1,r24
 3059               	.LM474:
 3060 0d40 1382      		std Z+3,__zero_reg__
 3061               	.LM475:
 3062 0d42 8091 0000 		lds r24,pwm_frequency
 3063 0d46 9091 0000 		lds r25,(pwm_frequency)+1
 3064 0d4a 86AB      		std Z+54,r24
 3065 0d4c 97AB      		std Z+55,r25
 3066               	/* epilogue start */
 3067               	.LM476:
 3068 0d4e 0895      		ret
 3069               	.LFE63:
 3071               	.global	turn_off_pwm0
 3073               	turn_off_pwm0:
 3074               	.LFB64:
 3075               	.LM477:
 3076               	/* prologue: function */
 3077               	/* frame size = 0 */
 3078               	.LM478:
 3079 0d50 E0E0      		ldi r30,lo8(2560)
 3080 0d52 FAE0      		ldi r31,hi8(2560)
 3081 0d54 8181      		ldd r24,Z+1
 3082 0d56 8F7B      		andi r24,lo8(-65)
 3083 0d58 8183      		std Z+1,r24
 3084               	/* epilogue start */
 3085               	.LM479:
 3086 0d5a 0895      		ret
 3087               	.LFE64:
 3089               	.global	turn_off_pwm1
 3091               	turn_off_pwm1:
 3092               	.LFB65:
 3093               	.LM480:
 3094               	/* prologue: function */
 3095               	/* frame size = 0 */
 3096               	.LM481:
 3097 0d5c E0E0      		ldi r30,lo8(2560)
 3098 0d5e FAE0      		ldi r31,hi8(2560)
 3099 0d60 8181      		ldd r24,Z+1
 3100 0d62 8F77      		andi r24,lo8(127)
 3101 0d64 8183      		std Z+1,r24
 3102               	/* epilogue start */
 3103               	.LM482:
 3104 0d66 0895      		ret
 3105               	.LFE65:
 3107               	.global	set_pwm0
 3109               	set_pwm0:
 3110               	.LFB66:
 3111               	.LM483:
 3112               	.LVL158:
 3113               	/* prologue: function */
 3114               	/* frame size = 0 */
 3115               	.LM484:
 3116 0d68 A0E0      		ldi r26,lo8(2560)
 3117 0d6a BAE0      		ldi r27,hi8(2560)
 3118 0d6c 1196      		adiw r26,1
 3119 0d6e 2C91      		ld r18,X
 3120 0d70 1197      		sbiw r26,1
 3121 0d72 2064      		ori r18,lo8(64)
 3122 0d74 1196      		adiw r26,1
 3123 0d76 2C93      		st X,r18
 3124 0d78 1197      		sbiw r26,1
 3125               	.LM485:
 3126 0d7a 24E0      		ldi r18,lo8(4)
 3127 0d7c E0E8      		ldi r30,lo8(1664)
 3128 0d7e F6E0      		ldi r31,hi8(1664)
 3129 0d80 2183      		std Z+1,r18
 3130               	.LM486:
 3131 0d82 9C96      		adiw r26,44
 3132 0d84 8D93      		st X+,r24
 3133 0d86 9C93      		st X,r25
 3134 0d88 9D97      		sbiw r26,44+1
 3135               	/* epilogue start */
 3136               	.LM487:
 3137 0d8a 0895      		ret
 3138               	.LFE66:
 3140               	.global	set_pwm1
 3142               	set_pwm1:
 3143               	.LFB67:
 3144               	.LM488:
 3145               	.LVL159:
 3146               	/* prologue: function */
 3147               	/* frame size = 0 */
 3148               	.LM489:
 3149 0d8c A0E0      		ldi r26,lo8(2560)
 3150 0d8e BAE0      		ldi r27,hi8(2560)
 3151 0d90 1196      		adiw r26,1
 3152 0d92 2C91      		ld r18,X
 3153 0d94 1197      		sbiw r26,1
 3154 0d96 2068      		ori r18,lo8(-128)
 3155 0d98 1196      		adiw r26,1
 3156 0d9a 2C93      		st X,r18
 3157 0d9c 1197      		sbiw r26,1
 3158               	.LM490:
 3159 0d9e 28E0      		ldi r18,lo8(8)
 3160 0da0 E0E8      		ldi r30,lo8(1664)
 3161 0da2 F6E0      		ldi r31,hi8(1664)
 3162 0da4 2183      		std Z+1,r18
 3163               	.LM491:
 3164 0da6 9E96      		adiw r26,46
 3165 0da8 8D93      		st X+,r24
 3166 0daa 9C93      		st X,r25
 3167 0dac 9F97      		sbiw r26,46+1
 3168               	/* epilogue start */
 3169               	.LM492:
 3170 0dae 0895      		ret
 3171               	.LFE67:
 3173               	.global	set_output
 3175               	set_output:
 3176               	.LFB68:
 3177               	.LM493:
 3178               	.LVL160:
 3179               	/* prologue: function */
 3180               	/* frame size = 0 */
 3181               	.LM494:
 3182 0db0 8433      		cpi r24,lo8(52)
 3183 0db2 01F0      		breq .L258
 3184 0db4 8533      		cpi r24,lo8(53)
 3185 0db6 00F4      		brsh .L264
 3186 0db8 8133      		cpi r24,lo8(49)
 3187 0dba 01F0      		breq .L255
 3188 0dbc 8233      		cpi r24,lo8(50)
 3189 0dbe 00F4      		brsh .L265
 3190 0dc0 8033      		cpi r24,lo8(48)
 3191 0dc2 01F0      		breq .+2
 3192 0dc4 00C0      		rjmp .L277
 3193 0dc6 00C0      		rjmp .L290
 3194               	.L265:
 3195 0dc8 8233      		cpi r24,lo8(50)
 3196 0dca 01F0      		breq .L256
 3197 0dcc 8333      		cpi r24,lo8(51)
 3198 0dce 01F0      		breq .+2
 3199 0dd0 00C0      		rjmp .L277
 3200 0dd2 00C0      		rjmp .L291
 3201               	.L264:
 3202 0dd4 8733      		cpi r24,lo8(55)
 3203 0dd6 01F0      		breq .L261
 3204 0dd8 8833      		cpi r24,lo8(56)
 3205 0dda 00F4      		brsh .L266
 3206 0ddc 8533      		cpi r24,lo8(53)
 3207 0dde 01F0      		breq .L259
 3208 0de0 8633      		cpi r24,lo8(54)
 3209 0de2 01F0      		breq .+2
 3210 0de4 00C0      		rjmp .L277
 3211 0de6 00C0      		rjmp .L292
 3212               	.L266:
 3213 0de8 8833      		cpi r24,lo8(56)
 3214 0dea 01F0      		breq .L262
 3215 0dec 8933      		cpi r24,lo8(57)
 3216 0dee 01F0      		breq .+2
 3217 0df0 00C0      		rjmp .L277
 3218 0df2 00C0      		rjmp .L293
 3219               	.L290:
 3220               	.LM495:
 3221 0df4 E0E0      		ldi r30,lo8(1536)
 3222 0df6 F6E0      		ldi r31,hi8(1536)
 3223 0df8 81E0      		ldi r24,lo8(1)
 3224               	.LVL161:
 3225 0dfa 00C0      		rjmp .L280
 3226               	.LVL162:
 3227               	.L255:
 3228               	.LM496:
 3229 0dfc E0E0      		ldi r30,lo8(1536)
 3230 0dfe F6E0      		ldi r31,hi8(1536)
 3231 0e00 82E0      		ldi r24,lo8(2)
 3232               	.LVL163:
 3233 0e02 00C0      		rjmp .L280
 3234               	.LVL164:
 3235               	.L256:
 3236               	.LM497:
 3237 0e04 E0E0      		ldi r30,lo8(1536)
 3238 0e06 F6E0      		ldi r31,hi8(1536)
 3239 0e08 00C0      		rjmp .L288
 3240               	.L291:
 3241               	.LM498:
 3242 0e0a E0E0      		ldi r30,lo8(1536)
 3243 0e0c F6E0      		ldi r31,hi8(1536)
 3244 0e0e 00C0      		rjmp .L289
 3245               	.L258:
 3246               	.LM499:
 3247 0e10 E0E0      		ldi r30,lo8(1536)
 3248 0e12 F6E0      		ldi r31,hi8(1536)
 3249 0e14 80E1      		ldi r24,lo8(16)
 3250               	.LVL165:
 3251 0e16 00C0      		rjmp .L280
 3252               	.LVL166:
 3253               	.L259:
 3254               	.LM500:
 3255 0e18 E0E0      		ldi r30,lo8(1536)
 3256 0e1a F6E0      		ldi r31,hi8(1536)
 3257 0e1c 80E2      		ldi r24,lo8(32)
 3258               	.LVL167:
 3259 0e1e 00C0      		rjmp .L280
 3260               	.LVL168:
 3261               	.L292:
 3262               	.LBB713:
 3263               	.LBB714:
 3264               	.LM501:
 3265 0e20 8091 2003 		lds r24,800
 3266               	.LVL169:
 3267 0e24 8B7F      		andi r24,lo8(-5)
 3268 0e26 8093 2003 		sts 800,r24
 3269               	.LBE714:
 3270               	.LBE713:
 3271               	.LM502:
 3272 0e2a E0E2      		ldi r30,lo8(1568)
 3273 0e2c F6E0      		ldi r31,hi8(1568)
 3274 0e2e 00C0      		rjmp .L288
 3275               	.LVL170:
 3276               	.L261:
 3277               	.LBB715:
 3278               	.LBB716:
 3279               	.LM503:
 3280 0e30 8091 2003 		lds r24,800
 3281               	.LVL171:
 3282 0e34 877F      		andi r24,lo8(-9)
 3283 0e36 8093 2003 		sts 800,r24
 3284               	.LBE716:
 3285               	.LBE715:
 3286               	.LM504:
 3287 0e3a E0E2      		ldi r30,lo8(1568)
 3288 0e3c F6E0      		ldi r31,hi8(1568)
 3289               	.LVL172:
 3290               	.L289:
 3291 0e3e 88E0      		ldi r24,lo8(8)
 3292               	.LVL173:
 3293 0e40 00C0      		rjmp .L280
 3294               	.LVL174:
 3295               	.L262:
 3296               	.LBB717:
 3297               	.LBB718:
 3298               	.LM505:
 3299 0e42 8091 010A 		lds r24,2561
 3300               	.LVL175:
 3301 0e46 8F7B      		andi r24,lo8(-65)
 3302 0e48 E0E0      		ldi r30,lo8(2560)
 3303 0e4a FAE0      		ldi r31,hi8(2560)
 3304 0e4c 8183      		std Z+1,r24
 3305               	.LBE718:
 3306               	.LBE717:
 3307               	.LM506:
 3308 0e4e E0E8      		ldi r30,lo8(1664)
 3309 0e50 F6E0      		ldi r31,hi8(1664)
 3310               	.LVL176:
 3311               	.L288:
 3312 0e52 84E0      		ldi r24,lo8(4)
 3313               	.LVL177:
 3314               	.L280:
 3315 0e54 8183      		std Z+1,r24
 3316               	.LM507:
 3317 0e56 6623      		tst r22
 3318 0e58 01F4      		brne .L278
 3319               	.L275:
 3320               	.LM508:
 3321 0e5a 8683      		std Z+6,r24
 3322 0e5c 0895      		ret
 3323               	.LVL178:
 3324               	.L293:
 3325               	.LBB719:
 3326               	.LBB720:
 3327               	.LM509:
 3328 0e5e 8091 010A 		lds r24,2561
 3329               	.LVL179:
 3330 0e62 8F77      		andi r24,lo8(127)
 3331 0e64 E0E0      		ldi r30,lo8(2560)
 3332 0e66 FAE0      		ldi r31,hi8(2560)
 3333 0e68 8183      		std Z+1,r24
 3334               	.LBE720:
 3335               	.LBE719:
 3336               	.LM510:
 3337 0e6a E0E8      		ldi r30,lo8(1664)
 3338 0e6c F6E0      		ldi r31,hi8(1664)
 3339 0e6e 88E0      		ldi r24,lo8(8)
 3340 0e70 8183      		std Z+1,r24
 3341               	.LM511:
 3342 0e72 6623      		tst r22
 3343 0e74 01F0      		breq .L276
 3344               	.L278:
 3345               	.LM512:
 3346 0e76 8583      		std Z+5,r24
 3347 0e78 0895      		ret
 3348               	.L276:
 3349               	.LM513:
 3350 0e7a 8683      		std Z+6,r24
 3351               	.LVL180:
 3352               	.L277:
 3353 0e7c 0895      		ret
 3354               	.LFE68:
 3356               	.global	read_input
 3358               	read_input:
 3359               	.LFB69:
 3360               	.LM514:
 3361               	.LVL181:
 3362               	/* prologue: function */
 3363               	/* frame size = 0 */
 3364               	.LM515:
 3365 0e7e 8433      		cpi r24,lo8(52)
 3366 0e80 01F4      		brne .+2
 3367 0e82 00C0      		rjmp .L300
 3368 0e84 8533      		cpi r24,lo8(53)
 3369 0e86 00F4      		brsh .L306
 3370 0e88 8133      		cpi r24,lo8(49)
 3371 0e8a 01F0      		breq .L297
 3372 0e8c 8233      		cpi r24,lo8(50)
 3373 0e8e 00F4      		brsh .L307
 3374 0e90 8033      		cpi r24,lo8(48)
 3375 0e92 01F4      		brne .L295
 3376 0e94 00C0      		rjmp .L313
 3377               	.L307:
 3378 0e96 8233      		cpi r24,lo8(50)
 3379 0e98 01F0      		breq .L298
 3380 0e9a 8333      		cpi r24,lo8(51)
 3381 0e9c 01F4      		brne .L295
 3382 0e9e 00C0      		rjmp .L314
 3383               	.L306:
 3384 0ea0 8733      		cpi r24,lo8(55)
 3385 0ea2 01F4      		brne .+2
 3386 0ea4 00C0      		rjmp .L303
 3387 0ea6 8833      		cpi r24,lo8(56)
 3388 0ea8 00F4      		brsh .L308
 3389 0eaa 8533      		cpi r24,lo8(53)
 3390 0eac 01F0      		breq .L301
 3391 0eae 8633      		cpi r24,lo8(54)
 3392 0eb0 01F4      		brne .L295
 3393 0eb2 00C0      		rjmp .L315
 3394               	.L308:
 3395 0eb4 8833      		cpi r24,lo8(56)
 3396 0eb6 01F4      		brne .+2
 3397 0eb8 00C0      		rjmp .L304
 3398 0eba 8933      		cpi r24,lo8(57)
 3399 0ebc 01F4      		brne .+2
 3400 0ebe 00C0      		rjmp .L305
 3401               	.L295:
 3402 0ec0 80ED      		ldi r24,lo8(-48)
 3403               	.LVL182:
 3404 0ec2 0895      		ret
 3405               	.LVL183:
 3406               	.L313:
 3407               	.LM516:
 3408 0ec4 81E0      		ldi r24,lo8(1)
 3409               	.LVL184:
 3410 0ec6 E0E0      		ldi r30,lo8(1536)
 3411 0ec8 F6E0      		ldi r31,hi8(1536)
 3412 0eca 8283      		std Z+2,r24
 3413               	.LM517:
 3414 0ecc 8091 0806 		lds r24,1544
 3415 0ed0 8170      		andi r24,lo8(1)
 3416 0ed2 0895      		ret
 3417               	.LVL185:
 3418               	.L297:
 3419               	.LM518:
 3420 0ed4 82E0      		ldi r24,lo8(2)
 3421               	.LVL186:
 3422 0ed6 E0E0      		ldi r30,lo8(1536)
 3423 0ed8 F6E0      		ldi r31,hi8(1536)
 3424 0eda 8283      		std Z+2,r24
 3425               	.LM519:
 3426 0edc 8091 0806 		lds r24,1544
 3427 0ee0 90E0      		ldi r25,lo8(0)
 3428 0ee2 8270      		andi r24,lo8(2)
 3429 0ee4 9070      		andi r25,hi8(2)
 3430 0ee6 9595      		asr r25
 3431 0ee8 8795      		ror r24
 3432 0eea 0895      		ret
 3433               	.LVL187:
 3434               	.L298:
 3435               	.LM520:
 3436 0eec 84E0      		ldi r24,lo8(4)
 3437               	.LVL188:
 3438 0eee E0E0      		ldi r30,lo8(1536)
 3439 0ef0 F6E0      		ldi r31,hi8(1536)
 3440 0ef2 8283      		std Z+2,r24
 3441               	.LM521:
 3442 0ef4 8091 0806 		lds r24,1544
 3443 0ef8 00C0      		rjmp .L311
 3444               	.LVL189:
 3445               	.L314:
 3446               	.LM522:
 3447 0efa 88E0      		ldi r24,lo8(8)
 3448               	.LVL190:
 3449 0efc E0E0      		ldi r30,lo8(1536)
 3450 0efe F6E0      		ldi r31,hi8(1536)
 3451 0f00 8283      		std Z+2,r24
 3452               	.LM523:
 3453 0f02 8091 0806 		lds r24,1544
 3454 0f06 00C0      		rjmp .L312
 3455               	.LVL191:
 3456               	.L300:
 3457               	.LM524:
 3458 0f08 80E1      		ldi r24,lo8(16)
 3459               	.LVL192:
 3460 0f0a E0E0      		ldi r30,lo8(1536)
 3461 0f0c F6E0      		ldi r31,hi8(1536)
 3462 0f0e 8283      		std Z+2,r24
 3463               	.LM525:
 3464 0f10 8091 0806 		lds r24,1544
 3465 0f14 90E0      		ldi r25,lo8(0)
 3466 0f16 8071      		andi r24,lo8(16)
 3467 0f18 9070      		andi r25,hi8(16)
 3468 0f1a B4E0      		ldi r27,4
 3469 0f1c 9595      	1:	asr r25
 3470 0f1e 8795      		ror r24
 3471 0f20 BA95      		dec r27
 3472 0f22 01F4      		brne 1b
 3473 0f24 0895      		ret
 3474               	.LVL193:
 3475               	.L301:
 3476               	.LM526:
 3477 0f26 80E2      		ldi r24,lo8(32)
 3478               	.LVL194:
 3479 0f28 E0E0      		ldi r30,lo8(1536)
 3480 0f2a F6E0      		ldi r31,hi8(1536)
 3481 0f2c 8283      		std Z+2,r24
 3482               	.LM527:
 3483 0f2e 8091 0806 		lds r24,1544
 3484 0f32 90E0      		ldi r25,lo8(0)
 3485 0f34 8072      		andi r24,lo8(32)
 3486 0f36 9070      		andi r25,hi8(32)
 3487 0f38 A5E0      		ldi r26,5
 3488 0f3a 9595      	1:	asr r25
 3489 0f3c 8795      		ror r24
 3490 0f3e AA95      		dec r26
 3491 0f40 01F4      		brne 1b
 3492 0f42 0895      		ret
 3493               	.LVL195:
 3494               	.L315:
 3495               	.LBB721:
 3496               	.LBB722:
 3497               	.LM528:
 3498 0f44 8091 2003 		lds r24,800
 3499               	.LVL196:
 3500 0f48 8B7F      		andi r24,lo8(-5)
 3501 0f4a 8093 2003 		sts 800,r24
 3502               	.LBE722:
 3503               	.LBE721:
 3504               	.LM529:
 3505 0f4e 84E0      		ldi r24,lo8(4)
 3506 0f50 E0E2      		ldi r30,lo8(1568)
 3507 0f52 F6E0      		ldi r31,hi8(1568)
 3508 0f54 8283      		std Z+2,r24
 3509               	.LM530:
 3510 0f56 8091 2806 		lds r24,1576
 3511 0f5a 00C0      		rjmp .L311
 3512               	.LVL197:
 3513               	.L303:
 3514               	.LBB723:
 3515               	.LBB724:
 3516               	.LM531:
 3517 0f5c 8091 2003 		lds r24,800
 3518               	.LVL198:
 3519 0f60 877F      		andi r24,lo8(-9)
 3520 0f62 8093 2003 		sts 800,r24
 3521               	.LBE724:
 3522               	.LBE723:
 3523               	.LM532:
 3524 0f66 88E0      		ldi r24,lo8(8)
 3525 0f68 E0E2      		ldi r30,lo8(1568)
 3526 0f6a F6E0      		ldi r31,hi8(1568)
 3527 0f6c 8283      		std Z+2,r24
 3528               	.LM533:
 3529 0f6e 8091 2806 		lds r24,1576
 3530               	.L312:
 3531 0f72 90E0      		ldi r25,lo8(0)
 3532 0f74 8870      		andi r24,lo8(8)
 3533 0f76 9070      		andi r25,hi8(8)
 3534 0f78 F3E0      		ldi r31,3
 3535 0f7a 9595      	1:	asr r25
 3536 0f7c 8795      		ror r24
 3537 0f7e FA95      		dec r31
 3538 0f80 01F4      		brne 1b
 3539 0f82 0895      		ret
 3540               	.LVL199:
 3541               	.L304:
 3542               	.LBB725:
 3543               	.LBB726:
 3544               	.LM534:
 3545 0f84 8091 010A 		lds r24,2561
 3546               	.LVL200:
 3547 0f88 8F7B      		andi r24,lo8(-65)
 3548 0f8a E0E0      		ldi r30,lo8(2560)
 3549 0f8c FAE0      		ldi r31,hi8(2560)
 3550 0f8e 8183      		std Z+1,r24
 3551               	.LBE726:
 3552               	.LBE725:
 3553               	.LM535:
 3554 0f90 84E0      		ldi r24,lo8(4)
 3555 0f92 E0E8      		ldi r30,lo8(1664)
 3556 0f94 F6E0      		ldi r31,hi8(1664)
 3557 0f96 8283      		std Z+2,r24
 3558               	.LM536:
 3559 0f98 8091 8806 		lds r24,1672
 3560               	.L311:
 3561 0f9c 90E0      		ldi r25,lo8(0)
 3562 0f9e 8470      		andi r24,lo8(4)
 3563 0fa0 9070      		andi r25,hi8(4)
 3564 0fa2 9595      		asr r25
 3565 0fa4 8795      		ror r24
 3566 0fa6 9595      		asr r25
 3567 0fa8 8795      		ror r24
 3568 0faa 0895      		ret
 3569               	.LVL201:
 3570               	.L305:
 3571               	.LBB727:
 3572               	.LBB728:
 3573               	.LM537:
 3574 0fac 8091 010A 		lds r24,2561
 3575               	.LVL202:
 3576 0fb0 8F77      		andi r24,lo8(127)
 3577 0fb2 E0E0      		ldi r30,lo8(2560)
 3578 0fb4 FAE0      		ldi r31,hi8(2560)
 3579 0fb6 8183      		std Z+1,r24
 3580               	.LBE728:
 3581               	.LBE727:
 3582               	.LM538:
 3583 0fb8 88E0      		ldi r24,lo8(8)
 3584 0fba E0E8      		ldi r30,lo8(1664)
 3585 0fbc F6E0      		ldi r31,hi8(1664)
 3586 0fbe 8283      		std Z+2,r24
 3587               	.LM539:
 3588 0fc0 8091 8806 		lds r24,1672
 3589 0fc4 90E0      		ldi r25,lo8(0)
 3590 0fc6 8870      		andi r24,lo8(8)
 3591 0fc8 9070      		andi r25,hi8(8)
 3592 0fca 73E0      		ldi r23,3
 3593 0fcc 9595      	1:	asr r25
 3594 0fce 8795      		ror r24
 3595 0fd0 7A95      		dec r23
 3596 0fd2 01F4      		brne 1b
 3597               	.LM540:
 3598 0fd4 0895      		ret
 3599               	.LFE69:
 3601               	.global	init_ir_read
 3603               	init_ir_read:
 3604               	.LFB70:
 3605               	.LM541:
 3606               	/* prologue: function */
 3607               	/* frame size = 0 */
 3608               	.LM542:
 3609 0fd6 81E0      		ldi r24,lo8(1)
 3610 0fd8 8093 0000 		sts ir_read_flag,r24
 3611               	.LM543:
 3612 0fdc A0E0      		ldi r26,lo8(2560)
 3613 0fde BAE0      		ldi r27,hi8(2560)
 3614 0fe0 85E0      		ldi r24,lo8(5)
 3615 0fe2 8C93      		st X,r24
 3616               	.LM544:
 3617 0fe4 90E1      		ldi r25,lo8(16)
 3618 0fe6 1196      		adiw r26,1
 3619 0fe8 9C93      		st X,r25
 3620 0fea 1197      		sbiw r26,1
 3621               	.LM545:
 3622 0fec 88E2      		ldi r24,lo8(40)
 3623 0fee 1396      		adiw r26,3
 3624 0ff0 8C93      		st X,r24
 3625 0ff2 1397      		sbiw r26,3
 3626               	.LM546:
 3627 0ff4 E0E4      		ldi r30,lo8(1600)
 3628 0ff6 F6E0      		ldi r31,hi8(1600)
 3629 0ff8 9283      		std Z+2,r25
 3630               	.LM547:
 3631 0ffa 8489      		ldd r24,Z+20
 3632 0ffc 8064      		ori r24,lo8(64)
 3633 0ffe 848B      		std Z+20,r24
 3634               	.LM548:
 3635 1000 84E6      		ldi r24,lo8(100)
 3636 1002 8093 8001 		sts 384,r24
 3637               	.LM549:
 3638 1006 80E4      		ldi r24,lo8(8000)
 3639 1008 9FE1      		ldi r25,hi8(8000)
 3640 100a D696      		adiw r26,54
 3641 100c 8D93      		st X+,r24
 3642 100e 9C93      		st X,r25
 3643 1010 D797      		sbiw r26,54+1
 3644               	.LM550:
 3645 1012 1092 0000 		sts signal_count,__zero_reg__
 3646               	.LM551:
 3647 1016 1092 0000 		sts ir_read_time_out,__zero_reg__
 3648               	.LM552:
 3649 101a 83E0      		ldi r24,lo8(3)
 3650 101c 1696      		adiw r26,6
 3651 101e 8C93      		st X,r24
 3652 1020 1697      		sbiw r26,6
 3653               	.LM553:
 3654 1022 1796      		adiw r26,7
 3655 1024 8C93      		st X,r24
 3656               	.LM554:
 3657 1026 E0EA      		ldi r30,lo8(160)
 3658 1028 F0E0      		ldi r31,hi8(160)
 3659 102a 8281      		ldd r24,Z+2
 3660 102c 8460      		ori r24,lo8(4)
 3661 102e 8283      		std Z+2,r24
 3662               	/* epilogue start */
 3663               	.LM555:
 3664 1030 0895      		ret
 3665               	.LFE70:
 3667               	.global	ir_fail
 3669               	ir_fail:
 3670               	.LFB73:
 3671               	.LM556:
 3672               	/* prologue: function */
 3673               	/* frame size = 0 */
 3674               	.L319:
 3675               	.LBB729:
 3676               	.LBB730:
 3677               	.LM557:
 3678 1032 8091 B109 		lds r24,2481
 3679 1036 85FF      		sbrs r24,5
 3680 1038 00C0      		rjmp .L319
 3681               	.LM558:
 3682 103a 85E4      		ldi r24,lo8(69)
 3683 103c 8093 B009 		sts 2480,r24
 3684               	.L320:
 3685               	.LBE730:
 3686               	.LBE729:
 3687               	.LBB731:
 3688               	.LBB732:
 3689               	.LM559:
 3690 1040 8091 B109 		lds r24,2481
 3691 1044 85FF      		sbrs r24,5
 3692 1046 00C0      		rjmp .L320
 3693               	.LM560:
 3694 1048 82E5      		ldi r24,lo8(82)
 3695 104a 8093 B009 		sts 2480,r24
 3696               	.L321:
 3697               	.LBE732:
 3698               	.LBE731:
 3699               	.LBB733:
 3700               	.LBB734:
 3701               	.LM561:
 3702 104e 8091 B109 		lds r24,2481
 3703 1052 85FF      		sbrs r24,5
 3704 1054 00C0      		rjmp .L321
 3705               	.LM562:
 3706 1056 82E5      		ldi r24,lo8(82)
 3707 1058 8093 B009 		sts 2480,r24
 3708               	.LBE734:
 3709               	.LBE733:
 3710               	.LM563:
 3711 105c 1092 0000 		sts ir_read_flag,__zero_reg__
 3712               	/* epilogue start */
 3713               	.LM564:
 3714 1060 0895      		ret
 3715               	.LFE73:
 3717               	.global	disable_ir_read
 3719               	disable_ir_read:
 3720               	.LFB74:
 3721               	.LM565:
 3722               	/* prologue: function */
 3723               	/* frame size = 0 */
 3724               	.LM566:
 3725 1062 E0E0      		ldi r30,lo8(2560)
 3726 1064 FAE0      		ldi r31,hi8(2560)
 3727 1066 1682      		std Z+6,__zero_reg__
 3728               	.LM567:
 3729 1068 1782      		std Z+7,__zero_reg__
 3730               	.LM568:
 3731 106a 1092 8001 		sts 384,__zero_reg__
 3732               	.LM569:
 3733 106e 1382      		std Z+3,__zero_reg__
 3734               	.LM570:
 3735 1070 1182      		std Z+1,__zero_reg__
 3736               	.LM571:
 3737 1072 1082      		st Z,__zero_reg__
 3738               	/* epilogue start */
 3739               	.LM572:
 3740 1074 0895      		ret
 3741               	.LFE74:
 3743               	.global	dump_data
 3745               	dump_data:
 3746               	.LFB75:
 3747               	.LM573:
 3748               	/* prologue: function */
 3749               	/* frame size = 0 */
 3750               	.LM574:
 3751 1076 8091 0000 		lds r24,signal_count
 3752 107a 8530      		cpi r24,lo8(5)
 3753 107c 00F0      		brlo .L329
 3754               	.LM575:
 3755 107e 9091 0000 		lds r25,signal_count
 3756               	.L330:
 3757               	.LBB735:
 3758               	.LBB736:
 3759               	.LM576:
 3760 1082 8091 B109 		lds r24,2481
 3761 1086 85FF      		sbrs r24,5
 3762 1088 00C0      		rjmp .L330
 3763               	.LBE736:
 3764               	.LBE735:
 3765               	.LM577:
 3766 108a 9150      		subi r25,lo8(-(-1))
 3767               	.LBB738:
 3768               	.LBB737:
 3769               	.LM578:
 3770 108c 9093 B009 		sts 2480,r25
 3771 1090 92E0      		ldi r25,lo8(2)
 3772               	.LVL203:
 3773 1092 00C0      		rjmp .L331
 3774               	.L333:
 3775               	.LBE737:
 3776               	.LBE738:
 3777               	.LBB739:
 3778               	.LM579:
 3779 1094 E92F      		mov r30,r25
 3780 1096 F0E0      		ldi r31,lo8(0)
 3781 1098 E050      		subi r30,lo8(-(captured_signal))
 3782 109a F040      		sbci r31,hi8(-(captured_signal))
 3783 109c E081      		ld r30,Z
 3784               	.L332:
 3785               	.LBB740:
 3786               	.LBB741:
 3787               	.LM580:
 3788 109e 8091 B109 		lds r24,2481
 3789 10a2 85FF      		sbrs r24,5
 3790 10a4 00C0      		rjmp .L332
 3791               	.LM581:
 3792 10a6 E093 B009 		sts 2480,r30
 3793               	.LBE741:
 3794               	.LBE740:
 3795               	.LM582:
 3796 10aa 9F5F      		subi r25,lo8(-(1))
 3797               	.L331:
 3798 10ac 8091 0000 		lds r24,signal_count
 3799 10b0 9817      		cp r25,r24
 3800 10b2 00F0      		brlo .L333
 3801               	.LBE739:
 3802               	.LM583:
 3803 10b4 1092 0000 		sts ir_read_flag,__zero_reg__
 3804 10b8 0895      		ret
 3805               	.LVL204:
 3806               	.L329:
 3807               	.LM584:
 3808 10ba 0E94 0000 		call ir_fail
 3809 10be 0895      		ret
 3810               	.LFE75:
 3812               	.global	__vector_47
 3814               	__vector_47:
 3815               	.LFB72:
 3816               	.LM585:
 3817 10c0 1F92      		push __zero_reg__
 3818 10c2 0F92      		push r0
 3819 10c4 0FB6      		in r0,__SREG__
 3820 10c6 0F92      		push r0
 3821 10c8 1124      		clr __zero_reg__
 3822 10ca 2F93      		push r18
 3823 10cc 3F93      		push r19
 3824 10ce 4F93      		push r20
 3825 10d0 5F93      		push r21
 3826 10d2 6F93      		push r22
 3827 10d4 7F93      		push r23
 3828 10d6 8F93      		push r24
 3829 10d8 9F93      		push r25
 3830 10da AF93      		push r26
 3831 10dc BF93      		push r27
 3832 10de EF93      		push r30
 3833 10e0 FF93      		push r31
 3834               	/* prologue: Signal */
 3835               	/* frame size = 0 */
 3836               	.LM586:
 3837 10e2 8091 0000 		lds r24,signal_count
 3838 10e6 8823      		tst r24
 3839 10e8 01F0      		breq .L339
 3840               	.LM587:
 3841 10ea 0E94 0000 		call disable_ir_read
 3842               	.LM588:
 3843 10ee 0E94 0000 		call dump_data
 3844 10f2 00C0      		rjmp .L341
 3845               	.L339:
 3846               	.LM589:
 3847 10f4 8091 0000 		lds r24,ir_read_time_out
 3848 10f8 8F5F      		subi r24,lo8(-(1))
 3849 10fa 8093 0000 		sts ir_read_time_out,r24
 3850               	.LM590:
 3851 10fe 8091 0000 		lds r24,ir_read_time_out
 3852 1102 8B3F      		cpi r24,lo8(-5)
 3853 1104 00F0      		brlo .L341
 3854               	.LM591:
 3855 1106 0E94 0000 		call disable_ir_read
 3856               	.LM592:
 3857 110a 0E94 0000 		call ir_fail
 3858               	.L341:
 3859               	/* epilogue start */
 3860               	.LM593:
 3861 110e FF91      		pop r31
 3862 1110 EF91      		pop r30
 3863 1112 BF91      		pop r27
 3864 1114 AF91      		pop r26
 3865 1116 9F91      		pop r25
 3866 1118 8F91      		pop r24
 3867 111a 7F91      		pop r23
 3868 111c 6F91      		pop r22
 3869 111e 5F91      		pop r21
 3870 1120 4F91      		pop r20
 3871 1122 3F91      		pop r19
 3872 1124 2F91      		pop r18
 3873 1126 0F90      		pop r0
 3874 1128 0FBE      		out __SREG__,r0
 3875 112a 0F90      		pop r0
 3876 112c 1F90      		pop __zero_reg__
 3877 112e 1895      		reti
 3878               	.LFE72:
 3880               	.global	__vector_49
 3882               	__vector_49:
 3883               	.LFB71:
 3884               	.LM594:
 3885 1130 1F92      		push __zero_reg__
 3886 1132 0F92      		push r0
 3887 1134 0FB6      		in r0,__SREG__
 3888 1136 0F92      		push r0
 3889 1138 1124      		clr __zero_reg__
 3890 113a 2F93      		push r18
 3891 113c 3F93      		push r19
 3892 113e 4F93      		push r20
 3893 1140 5F93      		push r21
 3894 1142 6F93      		push r22
 3895 1144 7F93      		push r23
 3896 1146 8F93      		push r24
 3897 1148 9F93      		push r25
 3898 114a AF93      		push r26
 3899 114c BF93      		push r27
 3900 114e EF93      		push r30
 3901 1150 FF93      		push r31
 3902               	/* prologue: Signal */
 3903               	/* frame size = 0 */
 3904               	.LM595:
 3905 1152 E0E0      		ldi r30,lo8(2560)
 3906 1154 FAE0      		ldi r31,hi8(2560)
 3907 1156 10A2      		std Z+32,__zero_reg__
 3908 1158 11A2      		std Z+33,__zero_reg__
 3909               	.LM596:
 3910 115a 8091 0000 		lds r24,signal_count
 3911 115e 803C      		cpi r24,lo8(-64)
 3912 1160 00F0      		brlo .L343
 3913               	.LM597:
 3914 1162 0E94 0000 		call disable_ir_read
 3915               	.LM598:
 3916 1166 0E94 0000 		call ir_fail
 3917 116a 00C0      		rjmp .L347
 3918               	.L343:
 3919               	.LM599:
 3920 116c E091 0000 		lds r30,signal_count
 3921 1170 F0E0      		ldi r31,lo8(0)
 3922 1172 8091 280A 		lds r24,2600
 3923 1176 E050      		subi r30,lo8(-(captured_signal+1))
 3924 1178 F040      		sbci r31,hi8(-(captured_signal+1))
 3925 117a 8083      		st Z,r24
 3926               	.LM600:
 3927 117c E091 0000 		lds r30,signal_count
 3928 1180 F0E0      		ldi r31,lo8(0)
 3929 1182 8091 290A 		lds r24,2601
 3930 1186 8F77      		andi r24,lo8(127)
 3931 1188 E050      		subi r30,lo8(-(captured_signal))
 3932 118a F040      		sbci r31,hi8(-(captured_signal))
 3933 118c 8083      		st Z,r24
 3934               	.LM601:
 3935 118e E091 0000 		lds r30,signal_count
 3936 1192 F0E0      		ldi r31,lo8(0)
 3937 1194 E050      		subi r30,lo8(-(captured_signal+1))
 3938 1196 F040      		sbci r31,hi8(-(captured_signal+1))
 3939 1198 8081      		ld r24,Z
 3940 119a 8034      		cpi r24,lo8(64)
 3941 119c 00F4      		brsh .L345
 3942 119e E091 0000 		lds r30,signal_count
 3943 11a2 F0E0      		ldi r31,lo8(0)
 3944 11a4 E050      		subi r30,lo8(-(captured_signal))
 3945 11a6 F040      		sbci r31,hi8(-(captured_signal))
 3946 11a8 8081      		ld r24,Z
 3947 11aa 8823      		tst r24
 3948 11ac 01F4      		brne .L345
 3949               	.LM602:
 3950 11ae 1092 0000 		sts signal_count,__zero_reg__
 3951               	.L345:
 3952               	.LM603:
 3953 11b2 8091 0000 		lds r24,signal_count
 3954 11b6 E091 0000 		lds r30,signal_count
 3955 11ba F0E0      		ldi r31,lo8(0)
 3956 11bc E050      		subi r30,lo8(-(captured_signal))
 3957 11be F040      		sbci r31,hi8(-(captured_signal))
 3958 11c0 E081      		ld r30,Z
 3959 11c2 8131      		cpi r24,lo8(17)
 3960 11c4 00F0      		brlo .L346
 3961 11c6 E131      		cpi r30,lo8(17)
 3962 11c8 00F0      		brlo .L346
 3963               	.LM604:
 3964 11ca 0E94 0000 		call disable_ir_read
 3965               	.LM605:
 3966 11ce 0E94 0000 		call dump_data
 3967 11d2 00C0      		rjmp .L347
 3968               	.L346:
 3969               	.LM606:
 3970 11d4 8091 0000 		lds r24,signal_count
 3971 11d8 8E5F      		subi r24,lo8(-(2))
 3972 11da 8093 0000 		sts signal_count,r24
 3973               	.L347:
 3974               	/* epilogue start */
 3975               	.LM607:
 3976 11de FF91      		pop r31
 3977 11e0 EF91      		pop r30
 3978 11e2 BF91      		pop r27
 3979 11e4 AF91      		pop r26
 3980 11e6 9F91      		pop r25
 3981 11e8 8F91      		pop r24
 3982 11ea 7F91      		pop r23
 3983 11ec 6F91      		pop r22
 3984 11ee 5F91      		pop r21
 3985 11f0 4F91      		pop r20
 3986 11f2 3F91      		pop r19
 3987 11f4 2F91      		pop r18
 3988 11f6 0F90      		pop r0
 3989 11f8 0FBE      		out __SREG__,r0
 3990 11fa 0F90      		pop r0
 3991 11fc 1F90      		pop __zero_reg__
 3992 11fe 1895      		reti
 3993               	.LFE71:
 3995               	.global	read_data_from_serial
 3997               	read_data_from_serial:
 3998               	.LFB79:
 3999               	.LM608:
 4000 1200 EF92      		push r14
 4001 1202 FF92      		push r15
 4002 1204 1F93      		push r17
 4003 1206 CF93      		push r28
 4004 1208 DF93      		push r29
 4005               	/* prologue: function */
 4006               	/* frame size = 0 */
 4007               	.LM609:
 4008 120a 80EB      		ldi r24,lo8(2480)
 4009 120c 99E0      		ldi r25,hi8(2480)
 4010 120e 0E94 0000 		call uart_getchar_timeout
 4011 1212 9C01      		movw r18,r24
 4012               	.LVL205:
 4013               	.LM610:
 4014 1214 182F      		mov r17,r24
 4015               	.LVL206:
 4016               	.L349:
 4017               	.LBB742:
 4018               	.LBB743:
 4019               	.LM611:
 4020 1216 8091 B109 		lds r24,2481
 4021               	.LVL207:
 4022 121a 85FF      		sbrs r24,5
 4023 121c 00C0      		rjmp .L349
 4024               	.LM612:
 4025 121e 1093 B009 		sts 2480,r17
 4026 1222 C0E0      		ldi r28,lo8(0)
 4027 1224 D0E0      		ldi r29,hi8(0)
 4028               	.LVL208:
 4029               	.LBE743:
 4030               	.LBE742:
 4031               	.LBB744:
 4032               	.LM613:
 4033 1226 7901      		movw r14,r18
 4034 1228 0894      		sec
 4035 122a E108      		sbc r14,__zero_reg__
 4036 122c F108      		sbc r15,__zero_reg__
 4037 122e 00C0      		rjmp .L350
 4038               	.L354:
 4039               	.LM614:
 4040 1230 80EB      		ldi r24,lo8(2480)
 4041 1232 99E0      		ldi r25,hi8(2480)
 4042 1234 0E94 0000 		call uart_getchar_timeout
 4043               	.LVL209:
 4044               	.LM615:
 4045 1238 21E0      		ldi r18,hi8(256)
 4046 123a 8030      		cpi r24,lo8(256)
 4047 123c 9207      		cpc r25,r18
 4048               	.LVL210:
 4049 123e 01F4      		brne .L351
 4050 1240 20E0      		ldi r18,lo8(0)
 4051 1242 30E0      		ldi r19,hi8(0)
 4052 1244 00C0      		rjmp .L352
 4053               	.L351:
 4054               	.LM616:
 4055 1246 982F      		mov r25,r24
 4056               	.L353:
 4057               	.LBB745:
 4058               	.LBB746:
 4059               	.LM617:
 4060 1248 8091 B109 		lds r24,2481
 4061               	.LVL211:
 4062 124c 85FF      		sbrs r24,5
 4063 124e 00C0      		rjmp .L353
 4064               	.LM618:
 4065 1250 9093 B009 		sts 2480,r25
 4066               	.LBE746:
 4067               	.LBE745:
 4068               	.LM619:
 4069 1254 FE01      		movw r30,r28
 4070 1256 E050      		subi r30,lo8(-(robotData))
 4071 1258 F040      		sbci r31,hi8(-(robotData))
 4072 125a 94A7      		std Z+44,r25
 4073               	.LM620:
 4074 125c 2196      		adiw r28,1
 4075               	.LVL212:
 4076               	.L350:
 4077 125e CE15      		cp r28,r14
 4078 1260 DF05      		cpc r29,r15
 4079 1262 04F0      		brlt .L354
 4080               	.LBE744:
 4081               	.LM621:
 4082 1264 1150      		subi r17,lo8(-(-1))
 4083 1266 1093 0000 		sts robotData+36,r17
 4084 126a 21E0      		ldi r18,lo8(1)
 4085 126c 30E0      		ldi r19,hi8(1)
 4086               	.LVL213:
 4087               	.L352:
 4088               	.LM622:
 4089 126e C901      		movw r24,r18
 4090               	.LVL214:
 4091               	/* epilogue start */
 4092 1270 DF91      		pop r29
 4093 1272 CF91      		pop r28
 4094               	.LVL215:
 4095 1274 1F91      		pop r17
 4096 1276 FF90      		pop r15
 4097 1278 EF90      		pop r14
 4098 127a 0895      		ret
 4099               	.LFE79:
 4101               	.global	EEPROM_ReadByte
 4103               	EEPROM_ReadByte:
 4104               	.LFB81:
 4105               	.LM623:
 4106               	.LVL216:
 4107               	/* prologue: function */
 4108               	/* frame size = 0 */
 4109 127c 982F      		mov r25,r24
 4110               	.LVL217:
 4111               	.L359:
 4112               	.LBB747:
 4113               	.LBB748:
 4114               	.LM624:
 4115 127e E0EC      		ldi r30,lo8(448)
 4116 1280 F1E0      		ldi r31,hi8(448)
 4117 1282 8091 CF01 		lds r24,463
 4118 1286 87FD      		sbrc r24,7
 4119 1288 00C0      		rjmp .L359
 4120               	.LBE748:
 4121               	.LBE747:
 4122               	.LM625:
 4123 128a 262F      		mov r18,r22
 4124               	.LVL218:
 4125 128c 30E0      		ldi r19,lo8(0)
 4126               	.LVL219:
 4127 128e 2F71      		andi r18,lo8(31)
 4128 1290 3070      		andi r19,hi8(31)
 4129               	.LVL220:
 4130 1292 892F      		mov r24,r25
 4131 1294 90E0      		ldi r25,lo8(0)
 4132               	.LVL221:
 4133 1296 45E0      		ldi r20,5
 4134 1298 880F      	1:	lsl r24
 4135 129a 991F      		rol r25
 4136 129c 4A95      		dec r20
 4137 129e 01F4      		brne 1b
 4138               	.LVL222:
 4139 12a0 282B      		or r18,r24
 4140 12a2 392B      		or r19,r25
 4141               	.LM626:
 4142 12a4 2093 C001 		sts 448,r18
 4143               	.LM627:
 4144 12a8 832F      		mov r24,r19
 4145               	.LVL223:
 4146 12aa 8F71      		andi r24,lo8(31)
 4147 12ac 8183      		std Z+1,r24
 4148               	.LM628:
 4149 12ae 1282      		std Z+2,__zero_reg__
 4150               	.LM629:
 4151 12b0 86E0      		ldi r24,lo8(6)
 4152 12b2 8287      		std Z+10,r24
 4153               	.LM630:
 4154               	/* #APP */
 4155               	 ;  129 "eeprom_driver.c" 1
 4156 12b4 EF93      		push r30
 4157 12b6 FF93      		push r31
 4158 12b8 0F93      		push r16
 4159 12ba 2F93      		push r18
 4160 12bc EBEC      		ldi r30, 0xCB
 4161 12be F1E0      		ldi r31, 0x01
 4162 12c0 08ED      		ldi r16, 0xD8
 4163 12c2 21E0      		ldi r18, 0x01
 4164 12c4 04BF      		out 0x34, r16
 4165 12c6 2083      		st Z, r18
 4166 12c8 2F91      		pop r18
 4167 12ca 0F91      		pop r16
 4168 12cc FF91      		pop r31
 4169 12ce EF91      		pop r30
 4170               		
 4171               	 ;  0 "" 2
 4172               	.LM631:
 4173               	/* #NOAPP */
 4174 12d0 8091 C401 		lds r24,452
 4175               	/* epilogue start */
 4176               	.LM632:
 4177 12d4 0895      		ret
 4178               	.LFE81:
 4180               	.global	print_data_from_eeprom
 4182               	print_data_from_eeprom:
 4183               	.LFB78:
 4184               	.LM633:
 4185               	.LVL224:
 4186 12d6 AF92      		push r10
 4187 12d8 BF92      		push r11
 4188 12da CF92      		push r12
 4189 12dc DF92      		push r13
 4190 12de EF92      		push r14
 4191 12e0 FF92      		push r15
 4192 12e2 0F93      		push r16
 4193 12e4 1F93      		push r17
 4194 12e6 CF93      		push r28
 4195 12e8 DF93      		push r29
 4196               	/* prologue: function */
 4197               	/* frame size = 0 */
 4198               	.LM634:
 4199 12ea 9C01      		movw r18,r24
 4200 12ec 220F      		lsl r18
 4201 12ee 331F      		rol r19
 4202 12f0 280F      		add r18,r24
 4203 12f2 391F      		adc r19,r25
 4204 12f4 220F      		lsl r18
 4205 12f6 331F      		rol r19
 4206 12f8 C22E      		mov r12,r18
 4207 12fa 822F      		mov r24,r18
 4208               	.LVL225:
 4209 12fc 60E0      		ldi r22,lo8(0)
 4210 12fe 0E94 0000 		call EEPROM_ReadByte
 4211 1302 282F      		mov r18,r24
 4212 1304 90E0      		ldi r25,lo8(0)
 4213               	.LVL226:
 4214               	.LM635:
 4215 1306 7C01      		movw r14,r24
 4216               	.LVL227:
 4217 1308 65E0      		ldi r22,5
 4218 130a F594      	1:	asr r15
 4219 130c E794      		ror r14
 4220 130e 6A95      		dec r22
 4221 1310 01F4      		brne 1b
 4222               	.LM636:
 4223 1312 5FE1      		ldi r21,lo8(31)
 4224 1314 A52E      		mov r10,r21
 4225 1316 B12C      		mov r11,__zero_reg__
 4226               	.LVL228:
 4227 1318 A822      		and r10,r24
 4228 131a B922      		and r11,r25
 4229               	.L363:
 4230               	.LBB749:
 4231               	.LBB750:
 4232               	.LM637:
 4233 131c 8091 B109 		lds r24,2481
 4234               	.LVL229:
 4235 1320 85FF      		sbrs r24,5
 4236 1322 00C0      		rjmp .L363
 4237               	.LM638:
 4238 1324 2093 B009 		sts 2480,r18
 4239 1328 C1E0      		ldi r28,lo8(1)
 4240 132a D0E0      		ldi r29,hi8(1)
 4241               	.LVL230:
 4242 132c 00E0      		ldi r16,lo8(0)
 4243 132e 10E0      		ldi r17,hi8(0)
 4244               	.LVL231:
 4245 1330 00C0      		rjmp .L364
 4246               	.L366:
 4247               	.LBE750:
 4248               	.LBE749:
 4249               	.LBB751:
 4250               	.LM639:
 4251 1332 DC2C      		mov r13,r12
 4252 1334 D00E      		add r13,r16
 4253               	.L371:
 4254 1336 8D2D      		mov r24,r13
 4255 1338 6C2F      		mov r22,r28
 4256 133a 0E94 0000 		call EEPROM_ReadByte
 4257               	.LVL232:
 4258 133e 982F      		mov r25,r24
 4259               	.L365:
 4260               	.LBB752:
 4261               	.LBB753:
 4262               	.LM640:
 4263 1340 8091 B109 		lds r24,2481
 4264 1344 85FF      		sbrs r24,5
 4265 1346 00C0      		rjmp .L365
 4266               	.LM641:
 4267 1348 9093 B009 		sts 2480,r25
 4268               	.LBE753:
 4269               	.LBE752:
 4270               	.LM642:
 4271 134c 2196      		adiw r28,1
 4272               	.LM643:
 4273 134e C032      		cpi r28,32
 4274 1350 D105      		cpc r29,__zero_reg__
 4275 1352 04F0      		brlt .L371
 4276               	.LM644:
 4277 1354 0F5F      		subi r16,lo8(-(1))
 4278 1356 1F4F      		sbci r17,hi8(-(1))
 4279 1358 C0E0      		ldi r28,lo8(0)
 4280 135a D0E0      		ldi r29,hi8(0)
 4281               	.LVL233:
 4282               	.L364:
 4283 135c 0E15      		cp r16,r14
 4284 135e 1F05      		cpc r17,r15
 4285 1360 04F0      		brlt .L366
 4286 1362 00C0      		rjmp .L378
 4287               	.L369:
 4288               	.LBE751:
 4289               	.LM645:
 4290 1364 812F      		mov r24,r17
 4291 1366 6C2F      		mov r22,r28
 4292 1368 0E94 0000 		call EEPROM_ReadByte
 4293               	.LVL234:
 4294 136c 982F      		mov r25,r24
 4295               	.L368:
 4296               	.LBB754:
 4297               	.LBB755:
 4298               	.LM646:
 4299 136e 8091 B109 		lds r24,2481
 4300 1372 85FF      		sbrs r24,5
 4301 1374 00C0      		rjmp .L368
 4302               	.LM647:
 4303 1376 9093 B009 		sts 2480,r25
 4304               	.LBE755:
 4305               	.LBE754:
 4306               	.LM648:
 4307 137a 2196      		adiw r28,1
 4308 137c 00C0      		rjmp .L377
 4309               	.LVL235:
 4310               	.L378:
 4311               	.LM649:
 4312 137e 1C2D      		mov r17,r12
 4313 1380 1E0D      		add r17,r14
 4314               	.L377:
 4315               	.LM650:
 4316 1382 CA15      		cp r28,r10
 4317 1384 DB05      		cpc r29,r11
 4318 1386 04F0      		brlt .L369
 4319               	/* epilogue start */
 4320               	.LM651:
 4321 1388 DF91      		pop r29
 4322 138a CF91      		pop r28
 4323               	.LVL236:
 4324 138c 1F91      		pop r17
 4325 138e 0F91      		pop r16
 4326               	.LVL237:
 4327 1390 FF90      		pop r15
 4328 1392 EF90      		pop r14
 4329               	.LVL238:
 4330 1394 DF90      		pop r13
 4331 1396 CF90      		pop r12
 4332 1398 BF90      		pop r11
 4333 139a AF90      		pop r10
 4334               	.LVL239:
 4335 139c 0895      		ret
 4336               	.LFE78:
 4338               	.global	read_data_from_eeprom
 4340               	read_data_from_eeprom:
 4341               	.LFB77:
 4342               	.LM652:
 4343               	.LVL240:
 4344 139e 5F92      		push r5
 4345 13a0 6F92      		push r6
 4346 13a2 7F92      		push r7
 4347 13a4 8F92      		push r8
 4348 13a6 9F92      		push r9
 4349 13a8 AF92      		push r10
 4350 13aa BF92      		push r11
 4351 13ac CF92      		push r12
 4352 13ae DF92      		push r13
 4353 13b0 EF92      		push r14
 4354 13b2 FF92      		push r15
 4355 13b4 0F93      		push r16
 4356 13b6 1F93      		push r17
 4357 13b8 CF93      		push r28
 4358 13ba DF93      		push r29
 4359               	/* prologue: function */
 4360               	/* frame size = 0 */
 4361               	.LM653:
 4362 13bc 9C01      		movw r18,r24
 4363 13be 220F      		lsl r18
 4364 13c0 331F      		rol r19
 4365 13c2 280F      		add r18,r24
 4366 13c4 391F      		adc r19,r25
 4367 13c6 220F      		lsl r18
 4368 13c8 331F      		rol r19
 4369 13ca 522E      		mov r5,r18
 4370 13cc 822F      		mov r24,r18
 4371               	.LVL241:
 4372 13ce 60E0      		ldi r22,lo8(0)
 4373 13d0 0E94 0000 		call EEPROM_ReadByte
 4374 13d4 B82E      		mov r11,r24
 4375 13d6 90E0      		ldi r25,lo8(0)
 4376               	.LVL242:
 4377               	.LM654:
 4378 13d8 4C01      		movw r8,r24
 4379               	.LVL243:
 4380 13da B5E0      		ldi r27,5
 4381 13dc 9594      	1:	asr r9
 4382 13de 8794      		ror r8
 4383 13e0 BA95      		dec r27
 4384 13e2 01F4      		brne 1b
 4385               	.LM655:
 4386 13e4 AFE1      		ldi r26,lo8(31)
 4387 13e6 6A2E      		mov r6,r26
 4388 13e8 712C      		mov r7,__zero_reg__
 4389               	.LVL244:
 4390 13ea 6822      		and r6,r24
 4391 13ec 7922      		and r7,r25
 4392 13ee EE24      		clr r14
 4393 13f0 FF24      		clr r15
 4394               	.LVL245:
 4395 13f2 C1E0      		ldi r28,lo8(1)
 4396 13f4 D0E0      		ldi r29,hi8(1)
 4397               	.LVL246:
 4398 13f6 00E0      		ldi r16,lo8(0)
 4399 13f8 10E0      		ldi r17,hi8(0)
 4400               	.LVL247:
 4401 13fa 00C0      		rjmp .L380
 4402               	.LVL248:
 4403               	.L381:
 4404               	.LBB756:
 4405               	.LM656:
 4406 13fc 8A2D      		mov r24,r10
 4407 13fe 6C2F      		mov r22,r28
 4408 1400 0E94 0000 		call EEPROM_ReadByte
 4409               	.LVL249:
 4410 1404 F601      		movw r30,r12
 4411 1406 8193      		st Z+,r24
 4412 1408 6F01      		movw r12,r30
 4413               	.LM657:
 4414 140a 0894      		sec
 4415 140c E11C      		adc r14,__zero_reg__
 4416 140e F11C      		adc r15,__zero_reg__
 4417               	.LM658:
 4418 1410 2196      		adiw r28,1
 4419               	.LM659:
 4420 1412 C032      		cpi r28,32
 4421 1414 D105      		cpc r29,__zero_reg__
 4422 1416 04F0      		brlt .L381
 4423               	.LM660:
 4424 1418 0F5F      		subi r16,lo8(-(1))
 4425 141a 1F4F      		sbci r17,hi8(-(1))
 4426 141c C0E0      		ldi r28,lo8(0)
 4427 141e D0E0      		ldi r29,hi8(0)
 4428               	.LVL250:
 4429               	.L380:
 4430 1420 C701      		movw r24,r14
 4431               	.LVL251:
 4432 1422 8C96      		adiw r24,44
 4433 1424 0815      		cp r16,r8
 4434 1426 1905      		cpc r17,r9
 4435 1428 04F0      		brlt .L382
 4436 142a 8C01      		movw r16,r24
 4437               	.LVL252:
 4438 142c 0050      		subi r16,lo8(-(robotData))
 4439 142e 1040      		sbci r17,hi8(-(robotData))
 4440               	.LBE756:
 4441               	.LM661:
 4442 1430 F52C      		mov r15,r5
 4443 1432 F80C      		add r15,r8
 4444 1434 00C0      		rjmp .L383
 4445               	.LVL253:
 4446               	.L382:
 4447               	.LBB757:
 4448               	.LM662:
 4449 1436 F0E0      		ldi r31,lo8(robotData)
 4450 1438 CF2E      		mov r12,r31
 4451 143a F0E0      		ldi r31,hi8(robotData)
 4452 143c DF2E      		mov r13,r31
 4453 143e C80E      		add r12,r24
 4454 1440 D91E      		adc r13,r25
 4455               	.LM663:
 4456 1442 A52C      		mov r10,r5
 4457 1444 A00E      		add r10,r16
 4458 1446 00C0      		rjmp .L381
 4459               	.LVL254:
 4460               	.L384:
 4461               	.LBE757:
 4462               	.LM664:
 4463 1448 8F2D      		mov r24,r15
 4464 144a 6C2F      		mov r22,r28
 4465 144c 0E94 0000 		call EEPROM_ReadByte
 4466               	.LVL255:
 4467 1450 F801      		movw r30,r16
 4468 1452 8193      		st Z+,r24
 4469 1454 8F01      		movw r16,r30
 4470               	.LM665:
 4471 1456 2196      		adiw r28,1
 4472               	.LVL256:
 4473               	.L383:
 4474               	.LM666:
 4475 1458 C615      		cp r28,r6
 4476 145a D705      		cpc r29,r7
 4477 145c 04F0      		brlt .L384
 4478               	.LM667:
 4479 145e BA94      		dec r11
 4480 1460 B092 0000 		sts robotData+36,r11
 4481               	/* epilogue start */
 4482               	.LM668:
 4483 1464 DF91      		pop r29
 4484 1466 CF91      		pop r28
 4485               	.LVL257:
 4486 1468 1F91      		pop r17
 4487 146a 0F91      		pop r16
 4488 146c FF90      		pop r15
 4489 146e EF90      		pop r14
 4490               	.LVL258:
 4491 1470 DF90      		pop r13
 4492 1472 CF90      		pop r12
 4493 1474 BF90      		pop r11
 4494 1476 AF90      		pop r10
 4495 1478 9F90      		pop r9
 4496 147a 8F90      		pop r8
 4497               	.LVL259:
 4498 147c 7F90      		pop r7
 4499 147e 6F90      		pop r6
 4500               	.LVL260:
 4501 1480 5F90      		pop r5
 4502 1482 0895      		ret
 4503               	.LFE77:
 4505               	.global	EEPROM_WaitForNVM
 4507               	EEPROM_WaitForNVM:
 4508               	.LFB82:
 4509               	.LM669:
 4510               	/* prologue: function */
 4511               	/* frame size = 0 */
 4512               	.L388:
 4513               	.LM670:
 4514 1484 8091 CF01 		lds r24,463
 4515 1488 87FD      		sbrc r24,7
 4516 148a 00C0      		rjmp .L388
 4517               	/* epilogue start */
 4518               	.LM671:
 4519 148c 0895      		ret
 4520               	.LFE82:
 4522               	.global	EEPROM_FlushBuffer
 4524               	EEPROM_FlushBuffer:
 4525               	.LFB83:
 4526               	.LM672:
 4527               	/* prologue: function */
 4528               	/* frame size = 0 */
 4529               	.L392:
 4530               	.LBB758:
 4531               	.LBB759:
 4532               	.LM673:
 4533 148e 8091 CF01 		lds r24,463
 4534 1492 87FD      		sbrc r24,7
 4535 1494 00C0      		rjmp .L392
 4536               	.LBE759:
 4537               	.LBE758:
 4538               	.LM674:
 4539 1496 8091 CF01 		lds r24,463
 4540 149a 81FF      		sbrs r24,1
 4541 149c 00C0      		rjmp .L394
 4542               	.LM675:
 4543 149e 86E3      		ldi r24,lo8(54)
 4544 14a0 E0EC      		ldi r30,lo8(448)
 4545 14a2 F1E0      		ldi r31,hi8(448)
 4546 14a4 8287      		std Z+10,r24
 4547               	.LM676:
 4548               	/* #APP */
 4549               	 ;  166 "eeprom_driver.c" 1
 4550 14a6 EF93      		push r30
 4551 14a8 FF93      		push r31
 4552 14aa 0F93      		push r16
 4553 14ac 2F93      		push r18
 4554 14ae EBEC      		ldi r30, 0xCB
 4555 14b0 F1E0      		ldi r31, 0x01
 4556 14b2 08ED      		ldi r16, 0xD8
 4557 14b4 21E0      		ldi r18, 0x01
 4558 14b6 04BF      		out 0x34, r16
 4559 14b8 2083      		st Z, r18
 4560 14ba 2F91      		pop r18
 4561 14bc 0F91      		pop r16
 4562 14be FF91      		pop r31
 4563 14c0 EF91      		pop r30
 4564               		
 4565               	 ;  0 "" 2
 4566               	/* #NOAPP */
 4567               	.L394:
 4568 14c2 0895      		ret
 4569               	.LFE83:
 4571               	.global	EEPROM_WriteByte
 4573               	EEPROM_WriteByte:
 4574               	.LFB80:
 4575               	.LM677:
 4576               	.LVL261:
 4577 14c4 DF92      		push r13
 4578 14c6 EF92      		push r14
 4579 14c8 FF92      		push r15
 4580 14ca 0F93      		push r16
 4581 14cc 1F93      		push r17
 4582               	/* prologue: function */
 4583               	/* frame size = 0 */
 4584 14ce E82E      		mov r14,r24
 4585 14d0 062F      		mov r16,r22
 4586 14d2 D42E      		mov r13,r20
 4587               	.LM678:
 4588 14d4 0E94 0000 		call EEPROM_FlushBuffer
 4589               	.LVL262:
 4590               	.LM679:
 4591 14d8 E0EC      		ldi r30,lo8(448)
 4592 14da F1E0      		ldi r31,hi8(448)
 4593 14dc 83E3      		ldi r24,lo8(51)
 4594 14de 8287      		std Z+10,r24
 4595               	.LM680:
 4596 14e0 10E0      		ldi r17,lo8(0)
 4597               	.LVL263:
 4598 14e2 0F71      		andi r16,lo8(31)
 4599 14e4 1070      		andi r17,hi8(31)
 4600               	.LVL264:
 4601 14e6 FF24      		clr r15
 4602               	.LVL265:
 4603 14e8 85E0      		ldi r24,5
 4604 14ea EE0C      	1:	lsl r14
 4605 14ec FF1C      		rol r15
 4606 14ee 8A95      		dec r24
 4607 14f0 01F4      		brne 1b
 4608               	.LVL266:
 4609 14f2 0E29      		or r16,r14
 4610 14f4 1F29      		or r17,r15
 4611               	.LM681:
 4612 14f6 0083      		st Z,r16
 4613               	.LM682:
 4614 14f8 812F      		mov r24,r17
 4615               	.LVL267:
 4616 14fa 8F71      		andi r24,lo8(31)
 4617 14fc 8183      		std Z+1,r24
 4618               	.LM683:
 4619 14fe 1282      		std Z+2,__zero_reg__
 4620               	.LM684:
 4621 1500 D482      		std Z+4,r13
 4622               	.LM685:
 4623 1502 85E3      		ldi r24,lo8(53)
 4624 1504 8287      		std Z+10,r24
 4625               	.LM686:
 4626               	/* #APP */
 4627               	 ;  99 "eeprom_driver.c" 1
 4628 1506 EF93      		push r30
 4629 1508 FF93      		push r31
 4630 150a 0F93      		push r16
 4631 150c 2F93      		push r18
 4632 150e EBEC      		ldi r30, 0xCB
 4633 1510 F1E0      		ldi r31, 0x01
 4634 1512 08ED      		ldi r16, 0xD8
 4635 1514 21E0      		ldi r18, 0x01
 4636 1516 04BF      		out 0x34, r16
 4637 1518 2083      		st Z, r18
 4638 151a 2F91      		pop r18
 4639 151c 0F91      		pop r16
 4640 151e FF91      		pop r31
 4641 1520 EF91      		pop r30
 4642               		
 4643               	 ;  0 "" 2
 4644               	/* epilogue start */
 4645               	.LM687:
 4646               	/* #NOAPP */
 4647 1522 1F91      		pop r17
 4648 1524 0F91      		pop r16
 4649               	.LVL268:
 4650 1526 FF90      		pop r15
 4651               	.LVL269:
 4652 1528 EF90      		pop r14
 4653               	.LVL270:
 4654 152a DF90      		pop r13
 4655               	.LVL271:
 4656 152c 0895      		ret
 4657               	.LFE80:
 4659               	.global	write_data_to_eeprom
 4661               	write_data_to_eeprom:
 4662               	.LFB76:
 4663               	.LM688:
 4664               	.LVL272:
 4665 152e 8F92      		push r8
 4666 1530 9F92      		push r9
 4667 1532 AF92      		push r10
 4668 1534 BF92      		push r11
 4669 1536 CF92      		push r12
 4670 1538 DF92      		push r13
 4671 153a EF92      		push r14
 4672 153c FF92      		push r15
 4673 153e 0F93      		push r16
 4674 1540 1F93      		push r17
 4675 1542 CF93      		push r28
 4676 1544 DF93      		push r29
 4677               	/* prologue: function */
 4678               	/* frame size = 0 */
 4679 1546 9C01      		movw r18,r24
 4680               	.LM689:
 4681 1548 8091 0000 		lds r24,signal_count
 4682               	.LVL273:
 4683 154c 90E0      		ldi r25,lo8(0)
 4684 154e 0197      		sbiw r24,1
 4685 1550 60E2      		ldi r22,lo8(32)
 4686 1552 70E0      		ldi r23,hi8(32)
 4687 1554 0E94 0000 		call __divmodhi4
 4688 1558 6B01      		movw r12,r22
 4689               	.LM690:
 4690 155a 8091 0000 		lds r24,signal_count
 4691 155e 90E0      		ldi r25,lo8(0)
 4692 1560 0197      		sbiw r24,1
 4693 1562 60E2      		ldi r22,lo8(32)
 4694 1564 70E0      		ldi r23,hi8(32)
 4695 1566 0E94 0000 		call __divmodhi4
 4696 156a 5C01      		movw r10,r24
 4697               	.LM691:
 4698 156c C901      		movw r24,r18
 4699 156e 880F      		lsl r24
 4700 1570 991F      		rol r25
 4701 1572 820F      		add r24,r18
 4702 1574 931F      		adc r25,r19
 4703 1576 880F      		lsl r24
 4704 1578 991F      		rol r25
 4705               	.LVL274:
 4706 157a 882E      		mov r8,r24
 4707 157c 4091 0000 		lds r20,signal_count
 4708 1580 4150      		subi r20,lo8(-(-1))
 4709 1582 60E0      		ldi r22,lo8(0)
 4710 1584 0E94 0000 		call EEPROM_WriteByte
 4711 1588 92E0      		ldi r25,lo8(2)
 4712 158a E92E      		mov r14,r25
 4713 158c F12C      		mov r15,__zero_reg__
 4714               	.LVL275:
 4715 158e C1E0      		ldi r28,lo8(1)
 4716 1590 D0E0      		ldi r29,hi8(1)
 4717               	.LVL276:
 4718 1592 00E0      		ldi r16,lo8(0)
 4719 1594 10E0      		ldi r17,hi8(0)
 4720               	.LVL277:
 4721 1596 00C0      		rjmp .L399
 4722               	.LVL278:
 4723               	.L400:
 4724               	.LBB760:
 4725               	.LM692:
 4726 1598 982C      		mov r9,r8
 4727 159a 900E      		add r9,r16
 4728               	.L404:
 4729 159c F701      		movw r30,r14
 4730 159e E050      		subi r30,lo8(-(captured_signal))
 4731 15a0 F040      		sbci r31,hi8(-(captured_signal))
 4732 15a2 4081      		ld r20,Z
 4733 15a4 892D      		mov r24,r9
 4734 15a6 6C2F      		mov r22,r28
 4735 15a8 0E94 0000 		call EEPROM_WriteByte
 4736               	.LM693:
 4737 15ac 0894      		sec
 4738 15ae E11C      		adc r14,__zero_reg__
 4739 15b0 F11C      		adc r15,__zero_reg__
 4740               	.LM694:
 4741 15b2 2196      		adiw r28,1
 4742               	.LM695:
 4743 15b4 C032      		cpi r28,32
 4744 15b6 D105      		cpc r29,__zero_reg__
 4745 15b8 04F0      		brlt .L404
 4746               	.LM696:
 4747 15ba 0F5F      		subi r16,lo8(-(1))
 4748 15bc 1F4F      		sbci r17,hi8(-(1))
 4749 15be C0E0      		ldi r28,lo8(0)
 4750 15c0 D0E0      		ldi r29,hi8(0)
 4751               	.L399:
 4752 15c2 0C15      		cp r16,r12
 4753 15c4 1D05      		cpc r17,r13
 4754 15c6 04F0      		brlt .L400
 4755 15c8 00C0      		rjmp .L408
 4756               	.LVL279:
 4757               	.L402:
 4758               	.LBE760:
 4759               	.LM697:
 4760 15ca F701      		movw r30,r14
 4761 15cc E050      		subi r30,lo8(-(captured_signal))
 4762 15ce F040      		sbci r31,hi8(-(captured_signal))
 4763 15d0 4081      		ld r20,Z
 4764 15d2 812F      		mov r24,r17
 4765 15d4 6C2F      		mov r22,r28
 4766 15d6 0E94 0000 		call EEPROM_WriteByte
 4767               	.LM698:
 4768 15da 0894      		sec
 4769 15dc E11C      		adc r14,__zero_reg__
 4770 15de F11C      		adc r15,__zero_reg__
 4771               	.LM699:
 4772 15e0 2196      		adiw r28,1
 4773 15e2 00C0      		rjmp .L407
 4774               	.LVL280:
 4775               	.L408:
 4776               	.LM700:
 4777 15e4 182D      		mov r17,r8
 4778 15e6 1C0D      		add r17,r12
 4779               	.LVL281:
 4780               	.L407:
 4781               	.LM701:
 4782 15e8 CA15      		cp r28,r10
 4783 15ea DB05      		cpc r29,r11
 4784 15ec 04F0      		brlt .L402
 4785               	/* epilogue start */
 4786               	.LM702:
 4787 15ee DF91      		pop r29
 4788 15f0 CF91      		pop r28
 4789               	.LVL282:
 4790 15f2 1F91      		pop r17
 4791 15f4 0F91      		pop r16
 4792               	.LVL283:
 4793 15f6 FF90      		pop r15
 4794 15f8 EF90      		pop r14
 4795               	.LVL284:
 4796 15fa DF90      		pop r13
 4797 15fc CF90      		pop r12
 4798               	.LVL285:
 4799 15fe BF90      		pop r11
 4800 1600 AF90      		pop r10
 4801               	.LVL286:
 4802 1602 9F90      		pop r9
 4803 1604 8F90      		pop r8
 4804 1606 0895      		ret
 4805               	.LFE76:
 4807               	.global	EEPROM_LoadByte
 4809               	EEPROM_LoadByte:
 4810               	.LFB84:
 4811               	.LM703:
 4812               	.LVL287:
 4813               	/* prologue: function */
 4814               	/* frame size = 0 */
 4815 1608 982F      		mov r25,r24
 4816               	.LVL288:
 4817               	.L410:
 4818               	.LBB761:
 4819               	.LBB762:
 4820               	.LM704:
 4821 160a E0EC      		ldi r30,lo8(448)
 4822 160c F1E0      		ldi r31,hi8(448)
 4823 160e 8091 CF01 		lds r24,463
 4824 1612 87FD      		sbrc r24,7
 4825 1614 00C0      		rjmp .L410
 4826               	.LBE762:
 4827               	.LBE761:
 4828               	.LM705:
 4829 1616 83E3      		ldi r24,lo8(51)
 4830 1618 8287      		std Z+10,r24
 4831               	.LM706:
 4832 161a 9093 C001 		sts 448,r25
 4833               	.LM707:
 4834 161e 1182      		std Z+1,__zero_reg__
 4835               	.LM708:
 4836 1620 1282      		std Z+2,__zero_reg__
 4837               	.LM709:
 4838 1622 6483      		std Z+4,r22
 4839               	/* epilogue start */
 4840               	.LM710:
 4841 1624 0895      		ret
 4842               	.LFE84:
 4844               	.global	EEPROM_LoadPage
 4846               	EEPROM_LoadPage:
 4847               	.LFB85:
 4848               	.LM711:
 4849               	.LVL289:
 4850               	/* prologue: function */
 4851               	/* frame size = 0 */
 4852 1626 DC01      		movw r26,r24
 4853               	.LVL290:
 4854               	.L414:
 4855               	.LBB763:
 4856               	.LBB764:
 4857               	.LM712:
 4858 1628 E0EC      		ldi r30,lo8(448)
 4859 162a F1E0      		ldi r31,hi8(448)
 4860 162c 8091 CF01 		lds r24,463
 4861 1630 87FD      		sbrc r24,7
 4862 1632 00C0      		rjmp .L414
 4863               	.LBE764:
 4864               	.LBE763:
 4865               	.LM713:
 4866 1634 83E3      		ldi r24,lo8(51)
 4867 1636 8287      		std Z+10,r24
 4868               	.LM714:
 4869 1638 1182      		std Z+1,__zero_reg__
 4870               	.LM715:
 4871 163a 1282      		std Z+2,__zero_reg__
 4872 163c 90E0      		ldi r25,lo8(0)
 4873               	.LVL291:
 4874               	.L415:
 4875               	.LBB765:
 4876               	.LM716:
 4877 163e 9093 C001 		sts 448,r25
 4878               	.LM717:
 4879 1642 8D91      		ld r24,X+
 4880 1644 8483      		std Z+4,r24
 4881               	.LM718:
 4882 1646 9F5F      		subi r25,lo8(-(1))
 4883 1648 9032      		cpi r25,lo8(32)
 4884 164a 01F4      		brne .L415
 4885               	/* epilogue start */
 4886               	.LBE765:
 4887               	.LM719:
 4888 164c 0895      		ret
 4889               	.LFE85:
 4891               	.global	EEPROM_AtomicWritePage
 4893               	EEPROM_AtomicWritePage:
 4894               	.LFB86:
 4895               	.LM720:
 4896               	.LVL292:
 4897               	/* prologue: function */
 4898               	/* frame size = 0 */
 4899 164e 982F      		mov r25,r24
 4900               	.LVL293:
 4901               	.L420:
 4902               	.LBB766:
 4903               	.LBB767:
 4904               	.LM721:
 4905 1650 E0EC      		ldi r30,lo8(448)
 4906 1652 F1E0      		ldi r31,hi8(448)
 4907 1654 8091 CF01 		lds r24,463
 4908 1658 87FD      		sbrc r24,7
 4909 165a 00C0      		rjmp .L420
 4910               	.LBE767:
 4911               	.LBE766:
 4912               	.LM722:
 4913 165c 892F      		mov r24,r25
 4914               	.LVL294:
 4915 165e 90E0      		ldi r25,lo8(0)
 4916               	.LVL295:
 4917 1660 55E0      		ldi r21,5
 4918 1662 880F      	1:	lsl r24
 4919 1664 991F      		rol r25
 4920 1666 5A95      		dec r21
 4921 1668 01F4      		brne 1b
 4922               	.LVL296:
 4923               	.LM723:
 4924 166a 8093 C001 		sts 448,r24
 4925               	.LM724:
 4926 166e 892F      		mov r24,r25
 4927               	.LVL297:
 4928 1670 8F71      		andi r24,lo8(31)
 4929 1672 8183      		std Z+1,r24
 4930               	.LM725:
 4931 1674 1282      		std Z+2,__zero_reg__
 4932               	.LM726:
 4933 1676 85E3      		ldi r24,lo8(53)
 4934 1678 8287      		std Z+10,r24
 4935               	.LM727:
 4936               	/* #APP */
 4937               	 ;  263 "eeprom_driver.c" 1
 4938 167a EF93      		push r30
 4939 167c FF93      		push r31
 4940 167e 0F93      		push r16
 4941 1680 2F93      		push r18
 4942 1682 EBEC      		ldi r30, 0xCB
 4943 1684 F1E0      		ldi r31, 0x01
 4944 1686 08ED      		ldi r16, 0xD8
 4945 1688 21E0      		ldi r18, 0x01
 4946 168a 04BF      		out 0x34, r16
 4947 168c 2083      		st Z, r18
 4948 168e 2F91      		pop r18
 4949 1690 0F91      		pop r16
 4950 1692 FF91      		pop r31
 4951 1694 EF91      		pop r30
 4952               		
 4953               	 ;  0 "" 2
 4954               	/* epilogue start */
 4955               	.LM728:
 4956               	/* #NOAPP */
 4957 1696 0895      		ret
 4958               	.LFE86:
 4960               	.global	EEPROM_ErasePage
 4962               	EEPROM_ErasePage:
 4963               	.LFB87:
 4964               	.LM729:
 4965               	.LVL298:
 4966               	/* prologue: function */
 4967               	/* frame size = 0 */
 4968 1698 982F      		mov r25,r24
 4969               	.LVL299:
 4970               	.L424:
 4971               	.LBB768:
 4972               	.LBB769:
 4973               	.LM730:
 4974 169a E0EC      		ldi r30,lo8(448)
 4975 169c F1E0      		ldi r31,hi8(448)
 4976 169e 8091 CF01 		lds r24,463
 4977 16a2 87FD      		sbrc r24,7
 4978 16a4 00C0      		rjmp .L424
 4979               	.LBE769:
 4980               	.LBE768:
 4981               	.LM731:
 4982 16a6 892F      		mov r24,r25
 4983               	.LVL300:
 4984 16a8 90E0      		ldi r25,lo8(0)
 4985               	.LVL301:
 4986 16aa 65E0      		ldi r22,5
 4987 16ac 880F      	1:	lsl r24
 4988 16ae 991F      		rol r25
 4989 16b0 6A95      		dec r22
 4990 16b2 01F4      		brne 1b
 4991               	.LVL302:
 4992               	.LM732:
 4993 16b4 8093 C001 		sts 448,r24
 4994               	.LM733:
 4995 16b8 892F      		mov r24,r25
 4996               	.LVL303:
 4997 16ba 8F71      		andi r24,lo8(31)
 4998 16bc 8183      		std Z+1,r24
 4999               	.LM734:
 5000 16be 1282      		std Z+2,__zero_reg__
 5001               	.LM735:
 5002 16c0 82E3      		ldi r24,lo8(50)
 5003 16c2 8287      		std Z+10,r24
 5004               	.LM736:
 5005               	/* #APP */
 5006               	 ;  288 "eeprom_driver.c" 1
 5007 16c4 EF93      		push r30
 5008 16c6 FF93      		push r31
 5009 16c8 0F93      		push r16
 5010 16ca 2F93      		push r18
 5011 16cc EBEC      		ldi r30, 0xCB
 5012 16ce F1E0      		ldi r31, 0x01
 5013 16d0 08ED      		ldi r16, 0xD8
 5014 16d2 21E0      		ldi r18, 0x01
 5015 16d4 04BF      		out 0x34, r16
 5016 16d6 2083      		st Z, r18
 5017 16d8 2F91      		pop r18
 5018 16da 0F91      		pop r16
 5019 16dc FF91      		pop r31
 5020 16de EF91      		pop r30
 5021               		
 5022               	 ;  0 "" 2
 5023               	/* epilogue start */
 5024               	.LM737:
 5025               	/* #NOAPP */
 5026 16e0 0895      		ret
 5027               	.LFE87:
 5029               	.global	EEPROM_SplitWritePage
 5031               	EEPROM_SplitWritePage:
 5032               	.LFB88:
 5033               	.LM738:
 5034               	.LVL304:
 5035               	/* prologue: function */
 5036               	/* frame size = 0 */
 5037 16e2 982F      		mov r25,r24
 5038               	.LVL305:
 5039               	.L428:
 5040               	.LBB770:
 5041               	.LBB771:
 5042               	.LM739:
 5043 16e4 E0EC      		ldi r30,lo8(448)
 5044 16e6 F1E0      		ldi r31,hi8(448)
 5045 16e8 8091 CF01 		lds r24,463
 5046 16ec 87FD      		sbrc r24,7
 5047 16ee 00C0      		rjmp .L428
 5048               	.LBE771:
 5049               	.LBE770:
 5050               	.LM740:
 5051 16f0 892F      		mov r24,r25
 5052               	.LVL306:
 5053 16f2 90E0      		ldi r25,lo8(0)
 5054               	.LVL307:
 5055 16f4 75E0      		ldi r23,5
 5056 16f6 880F      	1:	lsl r24
 5057 16f8 991F      		rol r25
 5058 16fa 7A95      		dec r23
 5059 16fc 01F4      		brne 1b
 5060               	.LVL308:
 5061               	.LM741:
 5062 16fe 8093 C001 		sts 448,r24
 5063               	.LM742:
 5064 1702 892F      		mov r24,r25
 5065               	.LVL309:
 5066 1704 8F71      		andi r24,lo8(31)
 5067 1706 8183      		std Z+1,r24
 5068               	.LM743:
 5069 1708 1282      		std Z+2,__zero_reg__
 5070               	.LM744:
 5071 170a 84E3      		ldi r24,lo8(52)
 5072 170c 8287      		std Z+10,r24
 5073               	.LM745:
 5074               	/* #APP */
 5075               	 ;  317 "eeprom_driver.c" 1
 5076 170e EF93      		push r30
 5077 1710 FF93      		push r31
 5078 1712 0F93      		push r16
 5079 1714 2F93      		push r18
 5080 1716 EBEC      		ldi r30, 0xCB
 5081 1718 F1E0      		ldi r31, 0x01
 5082 171a 08ED      		ldi r16, 0xD8
 5083 171c 21E0      		ldi r18, 0x01
 5084 171e 04BF      		out 0x34, r16
 5085 1720 2083      		st Z, r18
 5086 1722 2F91      		pop r18
 5087 1724 0F91      		pop r16
 5088 1726 FF91      		pop r31
 5089 1728 EF91      		pop r30
 5090               		
 5091               	 ;  0 "" 2
 5092               	/* epilogue start */
 5093               	.LM746:
 5094               	/* #NOAPP */
 5095 172a 0895      		ret
 5096               	.LFE88:
 5098               	.global	EEPROM_EraseAll
 5100               	EEPROM_EraseAll:
 5101               	.LFB89:
 5102               	.LM747:
 5103               	/* prologue: function */
 5104               	/* frame size = 0 */
 5105               	.L432:
 5106               	.LBB772:
 5107               	.LBB773:
 5108               	.LM748:
 5109 172c 8091 CF01 		lds r24,463
 5110 1730 87FD      		sbrc r24,7
 5111 1732 00C0      		rjmp .L432
 5112               	.LBE773:
 5113               	.LBE772:
 5114               	.LM749:
 5115 1734 80E3      		ldi r24,lo8(48)
 5116 1736 E0EC      		ldi r30,lo8(448)
 5117 1738 F1E0      		ldi r31,hi8(448)
 5118 173a 8287      		std Z+10,r24
 5119               	.LM750:
 5120               	/* #APP */
 5121               	 ;  331 "eeprom_driver.c" 1
 5122 173c EF93      		push r30
 5123 173e FF93      		push r31
 5124 1740 0F93      		push r16
 5125 1742 2F93      		push r18
 5126 1744 EBEC      		ldi r30, 0xCB
 5127 1746 F1E0      		ldi r31, 0x01
 5128 1748 08ED      		ldi r16, 0xD8
 5129 174a 21E0      		ldi r18, 0x01
 5130 174c 04BF      		out 0x34, r16
 5131 174e 2083      		st Z, r18
 5132 1750 2F91      		pop r18
 5133 1752 0F91      		pop r16
 5134 1754 FF91      		pop r31
 5135 1756 EF91      		pop r30
 5136               		
 5137               	 ;  0 "" 2
 5138               	/* epilogue start */
 5139               	.LM751:
 5140               	/* #NOAPP */
 5141 1758 0895      		ret
 5142               	.LFE89:
 5144               	.global	main
 5146               	main:
 5147               	.LFB90:
 5148               	.LM752:
 5149 175a 2F92      		push r2
 5150 175c 3F92      		push r3
 5151 175e 4F92      		push r4
 5152 1760 5F92      		push r5
 5153 1762 6F92      		push r6
 5154 1764 7F92      		push r7
 5155 1766 8F92      		push r8
 5156 1768 9F92      		push r9
 5157 176a AF92      		push r10
 5158 176c BF92      		push r11
 5159 176e CF92      		push r12
 5160 1770 DF92      		push r13
 5161 1772 EF92      		push r14
 5162 1774 FF92      		push r15
 5163 1776 0F93      		push r16
 5164 1778 1F93      		push r17
 5165 177a DF93      		push r29
 5166 177c CF93      		push r28
 5167 177e CDB7      		in r28,__SP_L__
 5168 1780 DEB7      		in r29,__SP_H__
 5169 1782 A397      		sbiw r28,35
 5170 1784 CDBF      		out __SP_L__,r28
 5171 1786 DEBF      		out __SP_H__,r29
 5172               	/* prologue: function */
 5173               	/* frame size = 35 */
 5174               	.LM753:
 5175 1788 0E94 0000 		call init_clock
 5176               	.LM754:
 5177 178c 0E94 0000 		call init_led
 5178               	.LM755:
 5179 1790 0E94 0000 		call init_adc
 5180               	.LM756:
 5181 1794 0E94 0000 		call init_ir
 5182               	.LM757:
 5183 1798 0E94 0000 		call init_BT
 5184               	.LM758:
 5185 179c 0E94 0000 		call init_dac
 5186               	.LM759:
 5187 17a0 0E94 0000 		call init_buzzer
 5188               	.LM760:
 5189 17a4 0E94 0000 		call initAccel
 5190               	.LM761:
 5191 17a8 83E8      		ldi r24,lo8(131)
 5192 17aa 90E0      		ldi r25,hi8(131)
 5193 17ac 6DEF      		ldi r22,lo8(-3)
 5194 17ae 0E94 0000 		call init_aux_uart
 5195               	.LM762:
 5196 17b2 8091 CC01 		lds r24,460
 5197 17b6 877F      		andi r24,lo8(-9)
 5198 17b8 E0EC      		ldi r30,lo8(448)
 5199 17ba F1E0      		ldi r31,hi8(448)
 5200 17bc 8487      		std Z+12,r24
 5201               	.LM763:
 5202               	/* #APP */
 5203               	 ;  56 "mainFirmware.c" 1
 5204 17be 7894      		sei
 5205               	 ;  0 "" 2
 5206               	/* #NOAPP */
 5207 17c0 CC24      		clr r12
 5208 17c2 DD24      		clr r13
 5209               	.LVL310:
 5210               	.LBB774:
 5211               	.LBB775:
 5212               	.LM764:
 5213 17c4 85E4      		ldi r24,lo8(69)
 5214 17c6 882E      		mov r8,r24
 5215               	.LVL311:
 5216               	.L1021:
 5217               	.LBE775:
 5218               	.LBE774:
 5219               	.LBB777:
 5220               	.LBB778:
 5221               	.LM765:
 5222 17c8 2FEF      		ldi r18,lo8(-1)
 5223 17ca 2093 3909 		sts 2361,r18
 5224               	.LM766:
 5225 17ce 2093 3B09 		sts 2363,r18
 5226               	.LM767:
 5227 17d2 2093 3D09 		sts 2365,r18
 5228               	.LBE778:
 5229               	.LBE777:
 5230               	.LBB779:
 5231               	.LBB780:
 5232               	.LM768:
 5233 17d6 E0E4      		ldi r30,lo8(2112)
 5234 17d8 F8E0      		ldi r31,hi8(2112)
 5235 17da 1682      		std Z+6,__zero_reg__
 5236               	.LBB781:
 5237               	.LBB782:
 5238               	.LM769:
 5239               	/* #APP */
 5240               	 ;  42 "ir.c" 1
 5241 17dc F894      		cli
 5242               	 ;  0 "" 2
 5243               	.LM770:
 5244               	/* #NOAPP */
 5245 17de E0E0      		ldi r30,lo8(2048)
 5246 17e0 F8E0      		ldi r31,hi8(2048)
 5247 17e2 10A6      		std Z+40,__zero_reg__
 5248 17e4 11A6      		std Z+41,__zero_reg__
 5249               	.LM771:
 5250               	/* #APP */
 5251               	 ;  44 "ir.c" 1
 5252 17e6 7894      		sei
 5253               	 ;  0 "" 2
 5254               	.LVL312:
 5255               	/* #NOAPP */
 5256               	.L1020:
 5257               	.LBE782:
 5258               	.LBE781:
 5259               	.LBE780:
 5260               	.LBE779:
 5261               	.LBB783:
 5262               	.LBB784:
 5263               	.LM772:
 5264 17e8 8091 B109 		lds r24,2481
 5265               	.LVL313:
 5266 17ec 85FF      		sbrs r24,5
 5267 17ee 00C0      		rjmp .L1020
 5268               	.LM773:
 5269 17f0 32E4      		ldi r19,lo8(66)
 5270 17f2 3093 B009 		sts 2480,r19
 5271               	.L438:
 5272               	.LBE784:
 5273               	.LBE783:
 5274               	.LBB785:
 5275               	.LBB786:
 5276               	.LM774:
 5277 17f6 8091 B109 		lds r24,2481
 5278 17fa 85FF      		sbrs r24,5
 5279 17fc 00C0      		rjmp .L438
 5280               	.LM775:
 5281 17fe 4CE4      		ldi r20,lo8(76)
 5282 1800 4093 B009 		sts 2480,r20
 5283               	.LBE786:
 5284               	.LBE785:
 5285               	.LBB787:
 5286               	.LBB788:
 5287               	.LM776:
 5288 1804 9091 0000 		lds r25,BT_data+258
 5289               	.LVL314:
 5290               	.LM777:
 5291 1808 8091 0000 		lds r24,BT_data+259
 5292               	.LVL315:
 5293               	.LBE788:
 5294               	.LBE787:
 5295               	.LM778:
 5296 180c 9817      		cp r25,r24
 5297 180e 01F0      		breq .L439
 5298               	.LBB789:
 5299               	.LBB790:
 5300               	.LM779:
 5301 1810 E091 0000 		lds r30,BT_data+259
 5302               	.LVL316:
 5303 1814 F0E0      		ldi r31,lo8(0)
 5304 1816 E050      		subi r30,lo8(-(BT_data))
 5305 1818 F040      		sbci r31,hi8(-(BT_data))
 5306 181a 9281      		ldd r25,Z+2
 5307               	.LVL317:
 5308               	.LM780:
 5309 181c 8091 0000 		lds r24,BT_data+259
 5310               	.LVL318:
 5311 1820 8F5F      		subi r24,lo8(-(1))
 5312 1822 8093 0000 		sts BT_data+259,r24
 5313               	.LBE790:
 5314               	.LBE789:
 5315               	.LM781:
 5316 1826 9038      		cpi r25,lo8(-128)
 5317 1828 01F4      		brne .L804
 5318               	.LBB791:
 5319               	.LBB792:
 5320               	.LM782:
 5321 182a 57E8      		ldi r21,lo8(-121)
 5322 182c 5093 A608 		sts 2214,r21
 5323 1830 60EE      		ldi r22,lo8(-32)
 5324 1832 6093 A708 		sts 2215,r22
 5325               	.L441:
 5326               	.LBE792:
 5327               	.LBE791:
 5328               	.LBB793:
 5329               	.LBB794:
 5330               	.LM783:
 5331 1836 8091 A108 		lds r24,2209
 5332 183a 85FF      		sbrs r24,5
 5333 183c 00C0      		rjmp .L441
 5334               	.LM784:
 5335 183e 80E8      		ldi r24,lo8(-128)
 5336 1840 8093 A008 		sts 2208,r24
 5337               	.LBE794:
 5338               	.LBE793:
 5339               	.LM785:
 5340 1844 0E94 0000 		call serial_bridge
 5341               	.LVL319:
 5342 1848 00C0      		rjmp .L439
 5343               	.LVL320:
 5344               	.L804:
 5345               	.LBB795:
 5346               	.LBB796:
 5347               	.LM786:
 5348 184a 8091 B109 		lds r24,2481
 5349 184e 85FF      		sbrs r24,5
 5350 1850 00C0      		rjmp .L804
 5351               	.LM787:
 5352 1852 9093 B009 		sts 2480,r25
 5353               	.LBE796:
 5354               	.LBE795:
 5355               	.LM788:
 5356 1856 9A32      		cpi r25,lo8(42)
 5357 1858 01F0      		breq .L442
 5358               	.LVL321:
 5359               	.L439:
 5360 185a 88E8      		ldi r24,lo8(5000)
 5361 185c 93E1      		ldi r25,hi8(5000)
 5362               	.LVL322:
 5363               	.L443:
 5364               	.LBB797:
 5365               	.LBB798:
 5366               	.LBB799:
 5367               	.LBB800:
 5368               	.LM789:
 5369 185e E0E2      		ldi r30,lo8(800)
 5370 1860 F3E0      		ldi r31,hi8(800)
 5371               	/* #APP */
 5372               	 ;  105 "c:/winavr-20100110/lib/gcc/../../avr/include/util/delay_basic.h" 1
 5373 1862 3197      		1: sbiw r30,1
 5374 1864 01F4      		brne 1b
 5375               	 ;  0 "" 2
 5376               	/* #NOAPP */
 5377               	.LBE800:
 5378               	.LBE799:
 5379               	.LM790:
 5380 1866 0197      		sbiw r24,1
 5381               	.LM791:
 5382 1868 01F4      		brne .L443
 5383 186a 00C0      		rjmp .L1020
 5384               	.LVL323:
 5385               	.L442:
 5386 186c 80E0      		ldi r24,lo8(0)
 5387 186e 90E0      		ldi r25,hi8(0)
 5388 1870 A0E0      		ldi r26,hlo8(0)
 5389 1872 B0E0      		ldi r27,hhi8(0)
 5390               	.LVL324:
 5391               	.LBE798:
 5392               	.LBE797:
 5393               	.LBB801:
 5394               	.LBB802:
 5395               	.LM792:
 5396 1874 02E5      		ldi r16,lo8(82)
 5397 1876 902E      		mov r9,r16
 5398               	.LVL325:
 5399               	.LBE802:
 5400               	.LBE801:
 5401               	.LBB804:
 5402               	.LBB805:
 5403               	.LM793:
 5404 1878 412C      		mov r4,__zero_reg__
 5405 187a 1AE0      		ldi r17,hi8(2560)
 5406 187c 512E      		mov r5,r17
 5407               	.LVL326:
 5408               	.L720:
 5409               	.LBE805:
 5410               	.LBE804:
 5411               	.LM794:
 5412 187e 9C01      		movw r18,r24
 5413 1880 AD01      		movw r20,r26
 5414 1882 2F5F      		subi r18,lo8(-(1))
 5415 1884 3F4F      		sbci r19,hi8(-(1))
 5416 1886 4F4F      		sbci r20,hlo8(-(1))
 5417 1888 5F4F      		sbci r21,hhi8(-(1))
 5418 188a 28A3      		std Y+32,r18
 5419 188c 39A3      		std Y+33,r19
 5420 188e 4AA3      		std Y+34,r20
 5421 1890 5BA3      		std Y+35,r21
 5422               	.LVL327:
 5423               	.LBB807:
 5424               	.LBB808:
 5425               	.LM795:
 5426 1892 9091 0000 		lds r25,BT_data+258
 5427               	.LVL328:
 5428               	.LM796:
 5429 1896 8091 0000 		lds r24,BT_data+259
 5430               	.LVL329:
 5431               	.LBE808:
 5432               	.LBE807:
 5433               	.LM797:
 5434 189a 9817      		cp r25,r24
 5435 189c 01F4      		brne .+4
 5436 189e 0C94 0000 		jmp .L444
 5437               	.LBB809:
 5438               	.LBB810:
 5439               	.LM798:
 5440 18a2 E091 0000 		lds r30,BT_data+259
 5441 18a6 F0E0      		ldi r31,lo8(0)
 5442 18a8 E050      		subi r30,lo8(-(BT_data))
 5443 18aa F040      		sbci r31,hi8(-(BT_data))
 5444 18ac 9281      		ldd r25,Z+2
 5445               	.LVL330:
 5446               	.LM799:
 5447 18ae 8091 0000 		lds r24,BT_data+259
 5448               	.LVL331:
 5449 18b2 8F5F      		subi r24,lo8(-(1))
 5450 18b4 8093 0000 		sts BT_data+259,r24
 5451               	.LBE810:
 5452               	.LBE809:
 5453               	.LM800:
 5454 18b8 9923      		tst r25
 5455 18ba 01F4      		brne .+4
 5456 18bc 0C94 0000 		jmp .L444
 5457               	.L803:
 5458               	.LBB811:
 5459               	.LBB812:
 5460               	.LM801:
 5461 18c0 8091 B109 		lds r24,2481
 5462 18c4 85FF      		sbrs r24,5
 5463 18c6 00C0      		rjmp .L803
 5464               	.LM802:
 5465 18c8 9093 B009 		sts 2480,r25
 5466               	.LBE812:
 5467               	.LBE811:
 5468               	.LM803:
 5469 18cc 9335      		cpi r25,lo8(83)
 5470 18ce 01F4      		brne .+2
 5471 18d0 00C0      		rjmp .L459
 5472 18d2 9435      		cpi r25,lo8(84)
 5473 18d4 00F4      		brsh .L472
 5474 18d6 9934      		cpi r25,lo8(73)
 5475 18d8 01F4      		brne .+2
 5476 18da 00C0      		rjmp .L454
 5477 18dc 9A34      		cpi r25,lo8(74)
 5478 18de 00F4      		brsh .L473
 5479 18e0 9234      		cpi r25,lo8(66)
 5480 18e2 01F4      		brne .+2
 5481 18e4 00C0      		rjmp .L451
 5482 18e6 9334      		cpi r25,lo8(67)
 5483 18e8 00F4      		brsh .L474
 5484 18ea 9E33      		cpi r25,lo8(62)
 5485 18ec 01F4      		brne .+2
 5486 18ee 00C0      		rjmp .L449
 5487 18f0 9F33      		cpi r25,lo8(63)
 5488 18f2 00F4      		brsh .L475
 5489 18f4 9132      		cpi r25,lo8(33)
 5490 18f6 01F4      		brne .+2
 5491 18f8 00C0      		rjmp .L447
 5492 18fa 9C33      		cpi r25,lo8(60)
 5493 18fc 01F0      		breq .+4
 5494 18fe 0C94 0000 		jmp .L446
 5495 1902 00C0      		rjmp .L1030
 5496               	.L475:
 5497 1904 9134      		cpi r25,lo8(65)
 5498 1906 01F0      		breq .+4
 5499 1908 0C94 0000 		jmp .L446
 5500 190c 00C0      		rjmp .L1031
 5501               	.L474:
 5502 190e 9334      		cpi r25,lo8(67)
 5503 1910 01F4      		brne .+2
 5504 1912 00C0      		rjmp .L452
 5505 1914 9734      		cpi r25,lo8(71)
 5506 1916 01F0      		breq .+4
 5507 1918 0C94 0000 		jmp .L446
 5508 191c 00C0      		rjmp .L1032
 5509               	.L473:
 5510 191e 9035      		cpi r25,lo8(80)
 5511 1920 01F4      		brne .+2
 5512 1922 00C0      		rjmp .L457
 5513 1924 9135      		cpi r25,lo8(81)
 5514 1926 00F4      		brsh .L476
 5515 1928 9C34      		cpi r25,lo8(76)
 5516 192a 01F4      		brne .+2
 5517 192c 00C0      		rjmp .L455
 5518 192e 9F34      		cpi r25,lo8(79)
 5519 1930 01F0      		breq .+4
 5520 1932 0C94 0000 		jmp .L446
 5521 1936 00C0      		rjmp .L1033
 5522               	.L476:
 5523 1938 9135      		cpi r25,lo8(81)
 5524 193a 01F4      		brne .+2
 5525 193c 00C0      		rjmp .L1021
 5526 193e 9235      		cpi r25,lo8(82)
 5527 1940 01F0      		breq .+4
 5528 1942 0C94 0000 		jmp .L446
 5529 1946 00C0      		rjmp .L1034
 5530               	.L472:
 5531 1948 9436      		cpi r25,lo8(100)
 5532 194a 01F4      		brne .+2
 5533 194c 00C0      		rjmp .L465
 5534 194e 9536      		cpi r25,lo8(101)
 5535 1950 00F4      		brsh .L477
 5536 1952 9835      		cpi r25,lo8(88)
 5537 1954 01F4      		brne .+2
 5538 1956 00C0      		rjmp .L462
 5539 1958 9935      		cpi r25,lo8(89)
 5540 195a 00F4      		brsh .L478
 5541 195c 9435      		cpi r25,lo8(84)
 5542 195e 01F4      		brne .+2
 5543 1960 00C0      		rjmp .L460
 5544 1962 9635      		cpi r25,lo8(86)
 5545 1964 01F0      		breq .+4
 5546 1966 0C94 0000 		jmp .L446
 5547 196a 00C0      		rjmp .L1035
 5548               	.L478:
 5549 196c 9A35      		cpi r25,lo8(90)
 5550 196e 01F4      		brne .+2
 5551 1970 00C0      		rjmp .L463
 5552 1972 9236      		cpi r25,lo8(98)
 5553 1974 01F0      		breq .+4
 5554 1976 0C94 0000 		jmp .L446
 5555 197a 00C0      		rjmp .L1036
 5556               	.L477:
 5557 197c 9037      		cpi r25,lo8(112)
 5558 197e 01F4      		brne .+2
 5559 1980 00C0      		rjmp .L468
 5560 1982 9137      		cpi r25,lo8(113)
 5561 1984 00F4      		brsh .L479
 5562 1986 9736      		cpi r25,lo8(103)
 5563 1988 01F4      		brne .+2
 5564 198a 00C0      		rjmp .L466
 5565 198c 9936      		cpi r25,lo8(105)
 5566 198e 01F0      		breq .+4
 5567 1990 0C94 0000 		jmp .L446
 5568 1994 00C0      		rjmp .L1037
 5569               	.L479:
 5570 1996 9337      		cpi r25,lo8(115)
 5571 1998 01F4      		brne .+2
 5572 199a 00C0      		rjmp .L470
 5573 199c 9437      		cpi r25,lo8(116)
 5574 199e 01F4      		brne .+4
 5575 19a0 0C94 0000 		jmp .L471
 5576 19a4 9237      		cpi r25,lo8(114)
 5577 19a6 01F0      		breq .+4
 5578 19a8 0C94 0000 		jmp .L446
 5579 19ac 20E0      		ldi r18,lo8(0)
 5580               	.LVL332:
 5581 19ae 00C0      		rjmp .L480
 5582               	.LVL333:
 5583               	.L1037:
 5584 19b0 00E0      		ldi r16,lo8(0)
 5585 19b2 10E0      		ldi r17,hi8(0)
 5586               	.LVL334:
 5587 19b4 00C0      		rjmp .L481
 5588               	.LVL335:
 5589               	.L1031:
 5590               	.LM804:
 5591 19b6 0E94 0000 		call updateAccel
 5592               	.LVL336:
 5593               	.LM805:
 5594 19ba 9091 0000 		lds r25,_acc
 5595               	.L482:
 5596               	.LBB813:
 5597               	.LBB814:
 5598               	.LM806:
 5599 19be 8091 B109 		lds r24,2481
 5600 19c2 85FF      		sbrs r24,5
 5601 19c4 00C0      		rjmp .L482
 5602               	.LM807:
 5603 19c6 9093 B009 		sts 2480,r25
 5604               	.LBE814:
 5605               	.LBE813:
 5606               	.LM808:
 5607 19ca 9091 0000 		lds r25,_acc+1
 5608               	.L483:
 5609               	.LBB815:
 5610               	.LBB816:
 5611               	.LM809:
 5612 19ce 8091 B109 		lds r24,2481
 5613 19d2 85FF      		sbrs r24,5
 5614 19d4 00C0      		rjmp .L483
 5615               	.LM810:
 5616 19d6 9093 B009 		sts 2480,r25
 5617               	.LBE816:
 5618               	.LBE815:
 5619               	.LM811:
 5620 19da 9091 0000 		lds r25,_acc+2
 5621               	.L484:
 5622               	.LBB817:
 5623               	.LBB818:
 5624               	.LM812:
 5625 19de 8091 B109 		lds r24,2481
 5626 19e2 85FF      		sbrs r24,5
 5627 19e4 00C0      		rjmp .L484
 5628               	.LM813:
 5629 19e6 9093 B009 		sts 2480,r25
 5630               	.LBE818:
 5631               	.LBE817:
 5632               	.LM814:
 5633 19ea 9091 0000 		lds r25,_acc+3
 5634               	.L485:
 5635               	.LBB819:
 5636               	.LBB820:
 5637               	.LM815:
 5638 19ee 8091 B109 		lds r24,2481
 5639 19f2 85FF      		sbrs r24,5
 5640 19f4 00C0      		rjmp .L485
 5641 19f6 00C0      		rjmp .L1027
 5642               	.LVL337:
 5643               	.L451:
 5644               	.LBE820:
 5645               	.LBE819:
 5646               	.LM816:
 5647 19f8 80EB      		ldi r24,lo8(2480)
 5648 19fa 99E0      		ldi r25,hi8(2480)
 5649 19fc 0E94 0000 		call uart_getchar_timeout
 5650               	.LVL338:
 5651 1a00 8C01      		movw r16,r24
 5652               	.LVL339:
 5653               	.LM817:
 5654 1a02 31E0      		ldi r19,hi8(256)
 5655 1a04 8030      		cpi r24,lo8(256)
 5656 1a06 9307      		cpc r25,r19
 5657 1a08 01F4      		brne .L788
 5658               	.LVL340:
 5659               	.L785:
 5660               	.LBB821:
 5661               	.LBB822:
 5662               	.LM818:
 5663 1a0a 8091 B109 		lds r24,2481
 5664               	.LVL341:
 5665 1a0e 85FF      		sbrs r24,5
 5666 1a10 00C0      		rjmp .L785
 5667               	.LM819:
 5668 1a12 8092 B009 		sts 2480,r8
 5669               	.L489:
 5670               	.LBE822:
 5671               	.LBE821:
 5672               	.LBB823:
 5673               	.LBB824:
 5674               	.LM820:
 5675 1a16 8091 B109 		lds r24,2481
 5676 1a1a 85FF      		sbrs r24,5
 5677 1a1c 00C0      		rjmp .L489
 5678               	.LM821:
 5679 1a1e 9092 B009 		sts 2480,r9
 5680               	.L490:
 5681               	.LBE824:
 5682               	.LBE823:
 5683               	.LBB825:
 5684               	.LBB826:
 5685               	.LM822:
 5686 1a22 8091 B109 		lds r24,2481
 5687 1a26 85FF      		sbrs r24,5
 5688 1a28 00C0      		rjmp .L490
 5689 1a2a 00C0      		rjmp .L1022
 5690               	.LVL342:
 5691               	.L788:
 5692               	.LBE826:
 5693               	.LBE825:
 5694               	.LBB827:
 5695               	.LBB828:
 5696 1a2c 8091 B109 		lds r24,2481
 5697               	.LVL343:
 5698 1a30 85FF      		sbrs r24,5
 5699 1a32 00C0      		rjmp .L788
 5700               	.LM823:
 5701 1a34 0093 B009 		sts 2480,r16
 5702               	.LBE828:
 5703               	.LBE827:
 5704               	.LM824:
 5705 1a38 80EB      		ldi r24,lo8(2480)
 5706 1a3a 99E0      		ldi r25,hi8(2480)
 5707 1a3c 0E94 0000 		call uart_getchar_timeout
 5708 1a40 9C01      		movw r18,r24
 5709 1a42 6C01      		movw r12,r24
 5710               	.LM825:
 5711 1a44 41E0      		ldi r20,hi8(256)
 5712 1a46 8030      		cpi r24,lo8(256)
 5713 1a48 9407      		cpc r25,r20
 5714 1a4a 01F4      		brne .L787
 5715               	.LVL344:
 5716               	.L786:
 5717               	.LBB829:
 5718               	.LBB830:
 5719               	.LM826:
 5720 1a4c 8091 B109 		lds r24,2481
 5721 1a50 85FF      		sbrs r24,5
 5722 1a52 00C0      		rjmp .L786
 5723               	.LM827:
 5724 1a54 8092 B009 		sts 2480,r8
 5725               	.L493:
 5726               	.LBE830:
 5727               	.LBE829:
 5728               	.LBB831:
 5729               	.LBB832:
 5730               	.LM828:
 5731 1a58 8091 B109 		lds r24,2481
 5732 1a5c 85FF      		sbrs r24,5
 5733 1a5e 00C0      		rjmp .L493
 5734               	.LM829:
 5735 1a60 9092 B009 		sts 2480,r9
 5736               	.L494:
 5737               	.LBE832:
 5738               	.LBE831:
 5739               	.LBB833:
 5740               	.LBB834:
 5741               	.LM830:
 5742 1a64 8091 B109 		lds r24,2481
 5743 1a68 85FF      		sbrs r24,5
 5744 1a6a 00C0      		rjmp .L494
 5745 1a6c 00C0      		rjmp .L1022
 5746               	.LVL345:
 5747               	.L787:
 5748               	.LBE834:
 5749               	.LBE833:
 5750               	.LBB835:
 5751               	.LBB836:
 5752 1a6e 8091 B109 		lds r24,2481
 5753 1a72 85FF      		sbrs r24,5
 5754 1a74 00C0      		rjmp .L787
 5755               	.LM831:
 5756 1a76 2093 B009 		sts 2480,r18
 5757               	.LBE836:
 5758               	.LBE835:
 5759               	.LM832:
 5760 1a7a 902F      		mov r25,r16
 5761 1a7c 8827      		clr r24
 5762 1a7e 280F      		add r18,r24
 5763 1a80 391F      		adc r19,r25
 5764               	.LVL346:
 5765               	.LBB837:
 5766               	.LBB838:
 5767               	.LM833:
 5768 1a82 8091 4109 		lds r24,2369
 5769 1a86 8061      		ori r24,lo8(16)
 5770 1a88 8093 4109 		sts 2369,r24
 5771               	.LM834:
 5772               	/* #APP */
 5773               	 ;  20 "buzzer.c" 1
 5774 1a8c F894      		cli
 5775               	 ;  0 "" 2
 5776               	.LM835:
 5777               	/* #NOAPP */
 5778 1a8e 2093 6809 		sts 2408,r18
 5779 1a92 3093 6909 		sts (2408)+1,r19
 5780               	.LM836:
 5781               	/* #APP */
 5782               	 ;  22 "buzzer.c" 1
 5783 1a96 7894      		sei
 5784               	 ;  0 "" 2
 5785               	/* #NOAPP */
 5786 1a98 00C0      		rjmp .L446
 5787               	.LVL347:
 5788               	.L1036:
 5789               	.LBE838:
 5790               	.LBE837:
 5791               	.LBB839:
 5792               	.LBB840:
 5793               	.LM837:
 5794 1a9a 8091 4109 		lds r24,2369
 5795 1a9e 8F7E      		andi r24,lo8(-17)
 5796 1aa0 8093 4109 		sts 2369,r24
 5797               	.LM838:
 5798 1aa4 8091 6606 		lds r24,1638
 5799 1aa8 8061      		ori r24,lo8(16)
 5800 1aaa 8093 6606 		sts 1638,r24
 5801 1aae 00C0      		rjmp .L446
 5802               	.L455:
 5803               	.LBE840:
 5804               	.LBE839:
 5805               	.LM839:
 5806 1ab0 80E3      		ldi r24,lo8(48)
 5807 1ab2 0E94 0000 		call read_analog
 5808               	.LVL348:
 5809 1ab6 982F      		mov r25,r24
 5810               	.L495:
 5811               	.LBB841:
 5812               	.LBB842:
 5813               	.LM840:
 5814 1ab8 8091 B109 		lds r24,2481
 5815 1abc 85FF      		sbrs r24,5
 5816 1abe 00C0      		rjmp .L495
 5817 1ac0 00C0      		rjmp .L1027
 5818               	.LVL349:
 5819               	.L460:
 5820               	.LBE842:
 5821               	.LBE841:
 5822               	.LM841:
 5823 1ac2 0E94 0000 		call read_internal_temperature
 5824               	.LVL350:
 5825 1ac6 982F      		mov r25,r24
 5826               	.L496:
 5827               	.LBB843:
 5828               	.LBB844:
 5829               	.LM842:
 5830 1ac8 8091 B109 		lds r24,2481
 5831 1acc 85FF      		sbrs r24,5
 5832 1ace 00C0      		rjmp .L496
 5833 1ad0 00C0      		rjmp .L1027
 5834               	.LVL351:
 5835               	.L1035:
 5836               	.LBE844:
 5837               	.LBE843:
 5838               	.LM843:
 5839 1ad2 88E3      		ldi r24,lo8(56)
 5840 1ad4 0E94 0000 		call read_analog
 5841               	.LVL352:
 5842 1ad8 982F      		mov r25,r24
 5843               	.L497:
 5844               	.LBB845:
 5845               	.LBB846:
 5846               	.LM844:
 5847 1ada 8091 B109 		lds r24,2481
 5848 1ade 85FF      		sbrs r24,5
 5849 1ae0 00C0      		rjmp .L497
 5850 1ae2 00C0      		rjmp .L1027
 5851               	.LVL353:
 5852               	.L462:
 5853               	.LBE846:
 5854               	.LBE845:
 5855               	.LM845:
 5856 1ae4 80E0      		ldi r24,lo8(0)
 5857 1ae6 0E94 0000 		call read_analog
 5858               	.LVL354:
 5859 1aea 982F      		mov r25,r24
 5860               	.L498:
 5861               	.LBB847:
 5862               	.LBB848:
 5863               	.LM846:
 5864 1aec 8091 B109 		lds r24,2481
 5865 1af0 85FF      		sbrs r24,5
 5866 1af2 00C0      		rjmp .L498
 5867               	.LM847:
 5868 1af4 9093 B009 		sts 2480,r25
 5869               	.LBE848:
 5870               	.LBE847:
 5871               	.LM848:
 5872 1af8 88E0      		ldi r24,lo8(8)
 5873 1afa 0E94 0000 		call read_analog
 5874 1afe 982F      		mov r25,r24
 5875               	.L499:
 5876               	.LBB849:
 5877               	.LBB850:
 5878               	.LM849:
 5879 1b00 8091 B109 		lds r24,2481
 5880 1b04 85FF      		sbrs r24,5
 5881 1b06 00C0      		rjmp .L499
 5882               	.LM850:
 5883 1b08 9093 B009 		sts 2480,r25
 5884               	.LBE850:
 5885               	.LBE849:
 5886               	.LM851:
 5887 1b0c 80E1      		ldi r24,lo8(16)
 5888 1b0e 0E94 0000 		call read_analog
 5889 1b12 982F      		mov r25,r24
 5890               	.L500:
 5891               	.LBB851:
 5892               	.LBB852:
 5893               	.LM852:
 5894 1b14 8091 B109 		lds r24,2481
 5895 1b18 85FF      		sbrs r24,5
 5896 1b1a 00C0      		rjmp .L500
 5897               	.LM853:
 5898 1b1c 9093 B009 		sts 2480,r25
 5899               	.LBE852:
 5900               	.LBE851:
 5901               	.LM854:
 5902 1b20 88E1      		ldi r24,lo8(24)
 5903 1b22 0E94 0000 		call read_analog
 5904 1b26 982F      		mov r25,r24
 5905               	.L501:
 5906               	.LBB853:
 5907               	.LBB854:
 5908               	.LM855:
 5909 1b28 8091 B109 		lds r24,2481
 5910 1b2c 85FF      		sbrs r24,5
 5911 1b2e 00C0      		rjmp .L501
 5912               	.LM856:
 5913 1b30 9093 B009 		sts 2480,r25
 5914               	.LBE854:
 5915               	.LBE853:
 5916               	.LM857:
 5917 1b34 80E2      		ldi r24,lo8(32)
 5918 1b36 0E94 0000 		call read_analog
 5919 1b3a 982F      		mov r25,r24
 5920               	.L502:
 5921               	.LBB855:
 5922               	.LBB856:
 5923               	.LM858:
 5924 1b3c 8091 B109 		lds r24,2481
 5925 1b40 85FF      		sbrs r24,5
 5926 1b42 00C0      		rjmp .L502
 5927               	.LM859:
 5928 1b44 9093 B009 		sts 2480,r25
 5929               	.LBE856:
 5930               	.LBE855:
 5931               	.LM860:
 5932 1b48 80E2      		ldi r24,lo8(32)
 5933 1b4a 0E94 0000 		call read_analog
 5934 1b4e 982F      		mov r25,r24
 5935               	.L503:
 5936               	.LBB857:
 5937               	.LBB858:
 5938               	.LM861:
 5939 1b50 8091 B109 		lds r24,2481
 5940 1b54 85FF      		sbrs r24,5
 5941 1b56 00C0      		rjmp .L503
 5942               	.L1027:
 5943               	.LM862:
 5944 1b58 9093 B009 		sts 2480,r25
 5945 1b5c 00C0      		rjmp .L446
 5946               	.LVL355:
 5947               	.L1033:
 5948               	.LBE858:
 5949               	.LBE857:
 5950               	.LM863:
 5951 1b5e 80EB      		ldi r24,lo8(2480)
 5952 1b60 99E0      		ldi r25,hi8(2480)
 5953 1b62 0E94 0000 		call uart_getchar_timeout
 5954               	.LVL356:
 5955               	.LM864:
 5956 1b66 51E0      		ldi r21,hi8(256)
 5957 1b68 8030      		cpi r24,lo8(256)
 5958 1b6a 9507      		cpc r25,r21
 5959               	.LVL357:
 5960 1b6c 01F4      		brne .L504
 5961               	.L782:
 5962               	.LBB859:
 5963               	.LBB860:
 5964               	.LM865:
 5965 1b6e 8091 B109 		lds r24,2481
 5966               	.LVL358:
 5967 1b72 85FF      		sbrs r24,5
 5968 1b74 00C0      		rjmp .L782
 5969               	.LM866:
 5970 1b76 8092 B009 		sts 2480,r8
 5971               	.L506:
 5972               	.LBE860:
 5973               	.LBE859:
 5974               	.LBB861:
 5975               	.LBB862:
 5976               	.LM867:
 5977 1b7a 8091 B109 		lds r24,2481
 5978 1b7e 85FF      		sbrs r24,5
 5979 1b80 00C0      		rjmp .L506
 5980               	.LM868:
 5981 1b82 9092 B009 		sts 2480,r9
 5982               	.L507:
 5983               	.LBE862:
 5984               	.LBE861:
 5985               	.LBB863:
 5986               	.LBB864:
 5987               	.LM869:
 5988 1b86 8091 B109 		lds r24,2481
 5989 1b8a 85FF      		sbrs r24,5
 5990 1b8c 00C0      		rjmp .L507
 5991 1b8e 00C0      		rjmp .L1022
 5992               	.LVL359:
 5993               	.L504:
 5994               	.LBE864:
 5995               	.LBE863:
 5996               	.LM870:
 5997 1b90 082F      		mov r16,r24
 5998               	.LVL360:
 5999               	.L508:
 6000               	.LBB865:
 6001               	.LBB866:
 6002               	.LM871:
 6003 1b92 8091 B109 		lds r24,2481
 6004               	.LVL361:
 6005 1b96 85FF      		sbrs r24,5
 6006 1b98 00C0      		rjmp .L508
 6007               	.LM872:
 6008 1b9a 0093 B009 		sts 2480,r16
 6009               	.LBE866:
 6010               	.LBE865:
 6011               	.LM873:
 6012 1b9e 80EB      		ldi r24,lo8(2480)
 6013 1ba0 99E0      		ldi r25,hi8(2480)
 6014 1ba2 0E94 0000 		call uart_getchar_timeout
 6015               	.LM874:
 6016 1ba6 61E0      		ldi r22,hi8(256)
 6017 1ba8 8030      		cpi r24,lo8(256)
 6018 1baa 9607      		cpc r25,r22
 6019               	.LVL362:
 6020 1bac 01F4      		brne .L509
 6021               	.L783:
 6022               	.LBB867:
 6023               	.LBB868:
 6024               	.LM875:
 6025 1bae 8091 B109 		lds r24,2481
 6026               	.LVL363:
 6027 1bb2 85FF      		sbrs r24,5
 6028 1bb4 00C0      		rjmp .L783
 6029               	.LM876:
 6030 1bb6 8092 B009 		sts 2480,r8
 6031               	.L511:
 6032               	.LBE868:
 6033               	.LBE867:
 6034               	.LBB869:
 6035               	.LBB870:
 6036               	.LM877:
 6037 1bba 8091 B109 		lds r24,2481
 6038 1bbe 85FF      		sbrs r24,5
 6039 1bc0 00C0      		rjmp .L511
 6040               	.LM878:
 6041 1bc2 9092 B009 		sts 2480,r9
 6042               	.L512:
 6043               	.LBE870:
 6044               	.LBE869:
 6045               	.LBB871:
 6046               	.LBB872:
 6047               	.LM879:
 6048 1bc6 8091 B109 		lds r24,2481
 6049 1bca 85FF      		sbrs r24,5
 6050 1bcc 00C0      		rjmp .L512
 6051 1bce 00C0      		rjmp .L1022
 6052               	.LVL364:
 6053               	.L509:
 6054               	.LBE872:
 6055               	.LBE871:
 6056               	.LM880:
 6057 1bd0 182F      		mov r17,r24
 6058               	.L513:
 6059               	.LBB873:
 6060               	.LBB874:
 6061               	.LM881:
 6062 1bd2 8091 B109 		lds r24,2481
 6063               	.LVL365:
 6064 1bd6 85FF      		sbrs r24,5
 6065 1bd8 00C0      		rjmp .L513
 6066               	.LM882:
 6067 1bda 1093 B009 		sts 2480,r17
 6068               	.LBE874:
 6069               	.LBE873:
 6070               	.LM883:
 6071 1bde 80EB      		ldi r24,lo8(2480)
 6072 1be0 99E0      		ldi r25,hi8(2480)
 6073 1be2 0E94 0000 		call uart_getchar_timeout
 6074               	.LM884:
 6075 1be6 E1E0      		ldi r30,hi8(256)
 6076 1be8 8030      		cpi r24,lo8(256)
 6077 1bea 9E07      		cpc r25,r30
 6078               	.LVL366:
 6079 1bec 01F4      		brne .L514
 6080               	.L784:
 6081               	.LBB875:
 6082               	.LBB876:
 6083               	.LM885:
 6084 1bee 8091 B109 		lds r24,2481
 6085               	.LVL367:
 6086 1bf2 85FF      		sbrs r24,5
 6087 1bf4 00C0      		rjmp .L784
 6088               	.LM886:
 6089 1bf6 8092 B009 		sts 2480,r8
 6090               	.L516:
 6091               	.LBE876:
 6092               	.LBE875:
 6093               	.LBB877:
 6094               	.LBB878:
 6095               	.LM887:
 6096 1bfa 8091 B109 		lds r24,2481
 6097 1bfe 85FF      		sbrs r24,5
 6098 1c00 00C0      		rjmp .L516
 6099               	.LM888:
 6100 1c02 9092 B009 		sts 2480,r9
 6101               	.L517:
 6102               	.LBE878:
 6103               	.LBE877:
 6104               	.LBB879:
 6105               	.LBB880:
 6106               	.LM889:
 6107 1c06 8091 B109 		lds r24,2481
 6108 1c0a 85FF      		sbrs r24,5
 6109 1c0c 00C0      		rjmp .L517
 6110 1c0e 00C0      		rjmp .L1022
 6111               	.LVL368:
 6112               	.L514:
 6113               	.LBE880:
 6114               	.LBE879:
 6115               	.LM890:
 6116 1c10 982F      		mov r25,r24
 6117               	.L518:
 6118               	.LBB881:
 6119               	.LBB882:
 6120               	.LM891:
 6121 1c12 8091 B109 		lds r24,2481
 6122               	.LVL369:
 6123 1c16 85FF      		sbrs r24,5
 6124 1c18 00C0      		rjmp .L518
 6125               	.LM892:
 6126 1c1a 9093 B009 		sts 2480,r25
 6127               	.LBE882:
 6128               	.LBE881:
 6129               	.LBB883:
 6130               	.LBB884:
 6131               	.LM893:
 6132 1c1e 0095      		com r16
 6133 1c20 0093 3909 		sts 2361,r16
 6134               	.LM894:
 6135 1c24 9095      		com r25
 6136 1c26 9093 3B09 		sts 2363,r25
 6137               	.LM895:
 6138 1c2a 1095      		com r17
 6139 1c2c 1093 3D09 		sts 2365,r17
 6140 1c30 00C0      		rjmp .L446
 6141               	.LVL370:
 6142               	.L454:
 6143               	.LBE884:
 6144               	.LBE883:
 6145               	.LM896:
 6146 1c32 80EB      		ldi r24,lo8(2480)
 6147 1c34 99E0      		ldi r25,hi8(2480)
 6148 1c36 0E94 0000 		call uart_getchar_timeout
 6149               	.LVL371:
 6150 1c3a 8C01      		movw r16,r24
 6151               	.LVL372:
 6152 1c3c 5C01      		movw r10,r24
 6153               	.LM897:
 6154 1c3e F1E0      		ldi r31,hi8(256)
 6155 1c40 8030      		cpi r24,lo8(256)
 6156 1c42 9F07      		cpc r25,r31
 6157 1c44 01F4      		brne .L777
 6158               	.L754:
 6159               	.LBB885:
 6160               	.LBB886:
 6161               	.LM898:
 6162 1c46 8091 B109 		lds r24,2481
 6163 1c4a 85FF      		sbrs r24,5
 6164 1c4c 00C0      		rjmp .L754
 6165               	.LM899:
 6166 1c4e 8092 B009 		sts 2480,r8
 6167               	.L521:
 6168               	.LBE886:
 6169               	.LBE885:
 6170               	.LBB887:
 6171               	.LBB888:
 6172               	.LM900:
 6173 1c52 8091 B109 		lds r24,2481
 6174 1c56 85FF      		sbrs r24,5
 6175 1c58 00C0      		rjmp .L521
 6176               	.LM901:
 6177 1c5a 9092 B009 		sts 2480,r9
 6178               	.L522:
 6179               	.LBE888:
 6180               	.LBE887:
 6181               	.LBB889:
 6182               	.LBB890:
 6183               	.LM902:
 6184 1c5e 8091 B109 		lds r24,2481
 6185 1c62 85FF      		sbrs r24,5
 6186 1c64 00C0      		rjmp .L522
 6187 1c66 00C0      		rjmp .L1022
 6188               	.LVL373:
 6189               	.L777:
 6190               	.LBE890:
 6191               	.LBE889:
 6192               	.LBB891:
 6193               	.LBB892:
 6194 1c68 8091 B109 		lds r24,2481
 6195 1c6c 85FF      		sbrs r24,5
 6196 1c6e 00C0      		rjmp .L777
 6197               	.LM903:
 6198 1c70 0093 B009 		sts 2480,r16
 6199               	.LBE892:
 6200               	.LBE891:
 6201               	.LM904:
 6202 1c74 80EB      		ldi r24,lo8(2480)
 6203 1c76 99E0      		ldi r25,hi8(2480)
 6204 1c78 0E94 0000 		call uart_getchar_timeout
 6205 1c7c 9C01      		movw r18,r24
 6206 1c7e 6C01      		movw r12,r24
 6207               	.LM905:
 6208 1c80 41E0      		ldi r20,hi8(256)
 6209 1c82 8030      		cpi r24,lo8(256)
 6210 1c84 9407      		cpc r25,r20
 6211 1c86 01F4      		brne .L776
 6212               	.LVL374:
 6213               	.L755:
 6214               	.LBB893:
 6215               	.LBB894:
 6216               	.LM906:
 6217 1c88 8091 B109 		lds r24,2481
 6218 1c8c 85FF      		sbrs r24,5
 6219 1c8e 00C0      		rjmp .L755
 6220               	.LM907:
 6221 1c90 8092 B009 		sts 2480,r8
 6222               	.L525:
 6223               	.LBE894:
 6224               	.LBE893:
 6225               	.LBB895:
 6226               	.LBB896:
 6227               	.LM908:
 6228 1c94 8091 B109 		lds r24,2481
 6229 1c98 85FF      		sbrs r24,5
 6230 1c9a 00C0      		rjmp .L525
 6231               	.LM909:
 6232 1c9c 9092 B009 		sts 2480,r9
 6233               	.L526:
 6234               	.LBE896:
 6235               	.LBE895:
 6236               	.LBB897:
 6237               	.LBB898:
 6238               	.LM910:
 6239 1ca0 8091 B109 		lds r24,2481
 6240 1ca4 85FF      		sbrs r24,5
 6241 1ca6 00C0      		rjmp .L526
 6242 1ca8 00C0      		rjmp .L1022
 6243               	.LVL375:
 6244               	.L776:
 6245               	.LBE898:
 6246               	.LBE897:
 6247               	.LBB899:
 6248               	.LBB900:
 6249 1caa 8091 B109 		lds r24,2481
 6250 1cae 85FF      		sbrs r24,5
 6251 1cb0 00C0      		rjmp .L776
 6252               	.LM911:
 6253 1cb2 2093 B009 		sts 2480,r18
 6254               	.LBE900:
 6255               	.LBE899:
 6256               	.LM912:
 6257 1cb6 902F      		mov r25,r16
 6258 1cb8 8827      		clr r24
 6259 1cba 820F      		add r24,r18
 6260 1cbc 931F      		adc r25,r19
 6261 1cbe 8093 0000 		sts robotData,r24
 6262 1cc2 9093 0000 		sts (robotData)+1,r25
 6263               	.LBB901:
 6264               	.LBB902:
 6265               	.LM913:
 6266               	/* #APP */
 6267               	 ;  50 "ir.c" 1
 6268 1cc6 F894      		cli
 6269               	 ;  0 "" 2
 6270               	.LM914:
 6271               	/* #NOAPP */
 6272 1cc8 8093 3608 		sts 2102,r24
 6273 1ccc 9093 3708 		sts (2102)+1,r25
 6274               	.LM915:
 6275               	/* #APP */
 6276               	 ;  52 "ir.c" 1
 6277 1cd0 7894      		sei
 6278               	 ;  0 "" 2
 6279               	/* #NOAPP */
 6280               	.LBE902:
 6281               	.LBE901:
 6282               	.LM916:
 6283 1cd2 80EB      		ldi r24,lo8(2480)
 6284 1cd4 99E0      		ldi r25,hi8(2480)
 6285 1cd6 0E94 0000 		call uart_getchar_timeout
 6286 1cda 6C01      		movw r12,r24
 6287               	.LM917:
 6288 1cdc 51E0      		ldi r21,hi8(256)
 6289 1cde 8030      		cpi r24,lo8(256)
 6290 1ce0 9507      		cpc r25,r21
 6291 1ce2 01F4      		brne .L527
 6292               	.L756:
 6293               	.LBB903:
 6294               	.LBB904:
 6295               	.LM918:
 6296 1ce4 8091 B109 		lds r24,2481
 6297 1ce8 85FF      		sbrs r24,5
 6298 1cea 00C0      		rjmp .L756
 6299               	.LM919:
 6300 1cec 8092 B009 		sts 2480,r8
 6301               	.L529:
 6302               	.LBE904:
 6303               	.LBE903:
 6304               	.LBB905:
 6305               	.LBB906:
 6306               	.LM920:
 6307 1cf0 8091 B109 		lds r24,2481
 6308 1cf4 85FF      		sbrs r24,5
 6309 1cf6 00C0      		rjmp .L529
 6310               	.LM921:
 6311 1cf8 9092 B009 		sts 2480,r9
 6312               	.L530:
 6313               	.LBE906:
 6314               	.LBE905:
 6315               	.LBB907:
 6316               	.LBB908:
 6317               	.LM922:
 6318 1cfc 8091 B109 		lds r24,2481
 6319 1d00 85FF      		sbrs r24,5
 6320 1d02 00C0      		rjmp .L530
 6321 1d04 00C0      		rjmp .L1022
 6322               	.LVL376:
 6323               	.L527:
 6324               	.LBE908:
 6325               	.LBE907:
 6326               	.LM923:
 6327 1d06 982F      		mov r25,r24
 6328 1d08 C092 0000 		sts robotData+2,r12
 6329               	.LVL377:
 6330               	.L531:
 6331               	.LBB909:
 6332               	.LBB910:
 6333               	.LM924:
 6334 1d0c 8091 B109 		lds r24,2481
 6335 1d10 85FF      		sbrs r24,5
 6336 1d12 00C0      		rjmp .L531
 6337               	.LM925:
 6338 1d14 9093 B009 		sts 2480,r25
 6339               	.LBE910:
 6340               	.LBE909:
 6341               	.LM926:
 6342 1d18 9131      		cpi r25,lo8(17)
 6343 1d1a 00F4      		brsh .L757
 6344 1d1c F0E0      		ldi r31,lo8(robotData+3)
 6345 1d1e 6F2E      		mov r6,r31
 6346 1d20 F0E0      		ldi r31,hi8(robotData+3)
 6347 1d22 7F2E      		mov r7,r31
 6348 1d24 00E0      		ldi r16,lo8(0)
 6349 1d26 10E0      		ldi r17,hi8(0)
 6350               	.LVL378:
 6351 1d28 00C0      		rjmp .L533
 6352               	.LVL379:
 6353               	.L757:
 6354               	.LBB911:
 6355               	.LBB912:
 6356               	.LM927:
 6357 1d2a 8091 B109 		lds r24,2481
 6358 1d2e 85FF      		sbrs r24,5
 6359 1d30 00C0      		rjmp .L757
 6360 1d32 00C0      		rjmp .L1022
 6361               	.LVL380:
 6362               	.L542:
 6363               	.LBE912:
 6364               	.LBE911:
 6365               	.LM928:
 6366 1d34 80EB      		ldi r24,lo8(2480)
 6367 1d36 99E0      		ldi r25,hi8(2480)
 6368 1d38 0E94 0000 		call uart_getchar_timeout
 6369               	.LVL381:
 6370 1d3c F82E      		mov r15,r24
 6371               	.LVL382:
 6372 1d3e 5C01      		movw r10,r24
 6373               	.LM929:
 6374 1d40 60E0      		ldi r22,lo8(256)
 6375 1d42 A616      		cp r10,r22
 6376 1d44 61E0      		ldi r22,hi8(256)
 6377 1d46 B606      		cpc r11,r22
 6378 1d48 01F4      		brne .L775
 6379               	.LVL383:
 6380               	.L758:
 6381               	.LBB913:
 6382               	.LBB914:
 6383               	.LM930:
 6384 1d4a 8091 B109 		lds r24,2481
 6385 1d4e 85FF      		sbrs r24,5
 6386 1d50 00C0      		rjmp .L758
 6387               	.LM931:
 6388 1d52 8092 B009 		sts 2480,r8
 6389               	.L536:
 6390               	.LBE914:
 6391               	.LBE913:
 6392               	.LBB915:
 6393               	.LBB916:
 6394               	.LM932:
 6395 1d56 8091 B109 		lds r24,2481
 6396 1d5a 85FF      		sbrs r24,5
 6397 1d5c 00C0      		rjmp .L536
 6398               	.LM933:
 6399 1d5e 9092 B009 		sts 2480,r9
 6400               	.L537:
 6401               	.LBE916:
 6402               	.LBE915:
 6403               	.LBB917:
 6404               	.LBB918:
 6405               	.LM934:
 6406 1d62 8091 B109 		lds r24,2481
 6407 1d66 85FF      		sbrs r24,5
 6408 1d68 00C0      		rjmp .L537
 6409 1d6a 00C0      		rjmp .L1022
 6410               	.LVL384:
 6411               	.L775:
 6412               	.LBE918:
 6413               	.LBE917:
 6414               	.LBB919:
 6415               	.LBB920:
 6416 1d6c 8091 B109 		lds r24,2481
 6417 1d70 85FF      		sbrs r24,5
 6418 1d72 00C0      		rjmp .L775
 6419               	.LM935:
 6420 1d74 F092 B009 		sts 2480,r15
 6421               	.LBE920:
 6422               	.LBE919:
 6423               	.LM936:
 6424 1d78 80EB      		ldi r24,lo8(2480)
 6425 1d7a 99E0      		ldi r25,hi8(2480)
 6426 1d7c 0E94 0000 		call uart_getchar_timeout
 6427 1d80 9C01      		movw r18,r24
 6428 1d82 6C01      		movw r12,r24
 6429               	.LM937:
 6430 1d84 81E0      		ldi r24,hi8(256)
 6431 1d86 2030      		cpi r18,lo8(256)
 6432 1d88 3807      		cpc r19,r24
 6433 1d8a 01F4      		brne .L774
 6434               	.LVL385:
 6435               	.L759:
 6436               	.LBB921:
 6437               	.LBB922:
 6438               	.LM938:
 6439 1d8c 8091 B109 		lds r24,2481
 6440 1d90 85FF      		sbrs r24,5
 6441 1d92 00C0      		rjmp .L759
 6442               	.LM939:
 6443 1d94 8092 B009 		sts 2480,r8
 6444               	.L540:
 6445               	.LBE922:
 6446               	.LBE921:
 6447               	.LBB923:
 6448               	.LBB924:
 6449               	.LM940:
 6450 1d98 8091 B109 		lds r24,2481
 6451 1d9c 85FF      		sbrs r24,5
 6452 1d9e 00C0      		rjmp .L540
 6453               	.LM941:
 6454 1da0 9092 B009 		sts 2480,r9
 6455               	.L541:
 6456               	.LBE924:
 6457               	.LBE923:
 6458               	.LBB925:
 6459               	.LBB926:
 6460               	.LM942:
 6461 1da4 8091 B109 		lds r24,2481
 6462 1da8 85FF      		sbrs r24,5
 6463 1daa 00C0      		rjmp .L541
 6464 1dac 00C0      		rjmp .L1022
 6465               	.L774:
 6466               	.LBE926:
 6467               	.LBE925:
 6468               	.LBB927:
 6469               	.LBB928:
 6470 1dae 8091 B109 		lds r24,2481
 6471 1db2 85FF      		sbrs r24,5
 6472 1db4 00C0      		rjmp .L774
 6473               	.LM943:
 6474 1db6 2093 B009 		sts 2480,r18
 6475               	.LBE928:
 6476               	.LBE927:
 6477               	.LM944:
 6478 1dba 3F2C      		mov r3,r15
 6479 1dbc 2224      		clr r2
 6480 1dbe 220D      		add r18,r2
 6481 1dc0 331D      		adc r19,r3
 6482 1dc2 F301      		movw r30,r6
 6483 1dc4 2193      		st Z+,r18
 6484 1dc6 3193      		st Z+,r19
 6485 1dc8 3F01      		movw r6,r30
 6486               	.LM945:
 6487 1dca 0F5F      		subi r16,lo8(-(1))
 6488 1dcc 1F4F      		sbci r17,hi8(-(1))
 6489               	.LVL386:
 6490               	.L533:
 6491 1dce 8091 0000 		lds r24,robotData+2
 6492 1dd2 90E0      		ldi r25,lo8(0)
 6493 1dd4 0817      		cp r16,r24
 6494 1dd6 1907      		cpc r17,r25
 6495 1dd8 04F4      		brge .+2
 6496 1dda 00C0      		rjmp .L542
 6497               	.LM946:
 6498 1ddc F0E0      		ldi r31,lo8(256)
 6499 1dde AF16      		cp r10,r31
 6500 1de0 F1E0      		ldi r31,hi8(256)
 6501 1de2 BF06      		cpc r11,r31
 6502 1de4 01F4      		brne .+2
 6503 1de6 00C0      		rjmp .L446
 6504 1de8 20E0      		ldi r18,lo8(256)
 6505 1dea C216      		cp r12,r18
 6506 1dec 21E0      		ldi r18,hi8(256)
 6507 1dee D206      		cpc r13,r18
 6508               	.LVL387:
 6509 1df0 01F4      		brne .+2
 6510 1df2 00C0      		rjmp .L446
 6511               	.LM947:
 6512 1df4 80EB      		ldi r24,lo8(2480)
 6513 1df6 99E0      		ldi r25,hi8(2480)
 6514 1df8 0E94 0000 		call uart_getchar_timeout
 6515 1dfc 6C01      		movw r12,r24
 6516               	.LM948:
 6517 1dfe 31E0      		ldi r19,hi8(256)
 6518 1e00 8030      		cpi r24,lo8(256)
 6519 1e02 9307      		cpc r25,r19
 6520 1e04 01F4      		brne .L543
 6521               	.L760:
 6522               	.LBB929:
 6523               	.LBB930:
 6524               	.LM949:
 6525 1e06 8091 B109 		lds r24,2481
 6526 1e0a 85FF      		sbrs r24,5
 6527 1e0c 00C0      		rjmp .L760
 6528               	.LM950:
 6529 1e0e 8092 B009 		sts 2480,r8
 6530               	.L545:
 6531               	.LBE930:
 6532               	.LBE929:
 6533               	.LBB931:
 6534               	.LBB932:
 6535               	.LM951:
 6536 1e12 8091 B109 		lds r24,2481
 6537 1e16 85FF      		sbrs r24,5
 6538 1e18 00C0      		rjmp .L545
 6539               	.LM952:
 6540 1e1a 9092 B009 		sts 2480,r9
 6541               	.L546:
 6542               	.LBE932:
 6543               	.LBE931:
 6544               	.LBB933:
 6545               	.LBB934:
 6546               	.LM953:
 6547 1e1e 8091 B109 		lds r24,2481
 6548 1e22 85FF      		sbrs r24,5
 6549 1e24 00C0      		rjmp .L546
 6550 1e26 00C0      		rjmp .L1022
 6551               	.LVL388:
 6552               	.L543:
 6553               	.LBE934:
 6554               	.LBE933:
 6555               	.LM954:
 6556 1e28 982F      		mov r25,r24
 6557 1e2a C092 0000 		sts robotData+35,r12
 6558               	.LVL389:
 6559               	.L547:
 6560               	.LBB935:
 6561               	.LBB936:
 6562               	.LM955:
 6563 1e2e 8091 B109 		lds r24,2481
 6564 1e32 85FF      		sbrs r24,5
 6565 1e34 00C0      		rjmp .L547
 6566               	.LM956:
 6567 1e36 9093 B009 		sts 2480,r25
 6568               	.LBE936:
 6569               	.LBE935:
 6570               	.LM957:
 6571 1e3a 80EB      		ldi r24,lo8(2480)
 6572 1e3c 99E0      		ldi r25,hi8(2480)
 6573 1e3e 0E94 0000 		call uart_getchar_timeout
 6574 1e42 6C01      		movw r12,r24
 6575               	.LM958:
 6576 1e44 41E0      		ldi r20,hi8(256)
 6577 1e46 8030      		cpi r24,lo8(256)
 6578 1e48 9407      		cpc r25,r20
 6579 1e4a 01F4      		brne .L548
 6580               	.L761:
 6581               	.LBB937:
 6582               	.LBB938:
 6583               	.LM959:
 6584 1e4c 8091 B109 		lds r24,2481
 6585 1e50 85FF      		sbrs r24,5
 6586 1e52 00C0      		rjmp .L761
 6587               	.LM960:
 6588 1e54 8092 B009 		sts 2480,r8
 6589               	.L550:
 6590               	.LBE938:
 6591               	.LBE937:
 6592               	.LBB939:
 6593               	.LBB940:
 6594               	.LM961:
 6595 1e58 8091 B109 		lds r24,2481
 6596 1e5c 85FF      		sbrs r24,5
 6597 1e5e 00C0      		rjmp .L550
 6598               	.LM962:
 6599 1e60 9092 B009 		sts 2480,r9
 6600               	.L551:
 6601               	.LBE940:
 6602               	.LBE939:
 6603               	.LBB941:
 6604               	.LBB942:
 6605               	.LM963:
 6606 1e64 8091 B109 		lds r24,2481
 6607 1e68 85FF      		sbrs r24,5
 6608 1e6a 00C0      		rjmp .L551
 6609 1e6c 00C0      		rjmp .L1022
 6610               	.LVL390:
 6611               	.L548:
 6612               	.LBE942:
 6613               	.LBE941:
 6614               	.LM964:
 6615 1e6e 282F      		mov r18,r24
 6616               	.LVL391:
 6617               	.L552:
 6618               	.LBB943:
 6619               	.LBB944:
 6620               	.LM965:
 6621 1e70 8091 B109 		lds r24,2481
 6622 1e74 85FF      		sbrs r24,5
 6623 1e76 00C0      		rjmp .L552
 6624               	.LM966:
 6625 1e78 2093 B009 		sts 2480,r18
 6626               	.LBE944:
 6627               	.LBE943:
 6628               	.LM967:
 6629 1e7c 2093 0000 		sts robotData+36,r18
 6630               	.LM968:
 6631 1e80 822F      		mov r24,r18
 6632 1e82 90E0      		ldi r25,lo8(0)
 6633 1e84 0197      		sbiw r24,1
 6634 1e86 68E0      		ldi r22,lo8(8)
 6635 1e88 70E0      		ldi r23,hi8(8)
 6636 1e8a 0E94 0000 		call __divmodhi4
 6637 1e8e 6F5F      		subi r22,lo8(-(1))
 6638 1e90 6093 0000 		sts robotData+37,r22
 6639               	.L553:
 6640               	.LBB945:
 6641               	.LBB946:
 6642               	.LM969:
 6643 1e94 8091 B109 		lds r24,2481
 6644 1e98 85FF      		sbrs r24,5
 6645 1e9a 00C0      		rjmp .L553
 6646               	.LM970:
 6647 1e9c 2093 B009 		sts 2480,r18
 6648               	.LBE946:
 6649               	.LBE945:
 6650               	.LM971:
 6651 1ea0 80EB      		ldi r24,lo8(2480)
 6652 1ea2 99E0      		ldi r25,hi8(2480)
 6653 1ea4 0E94 0000 		call uart_getchar_timeout
 6654 1ea8 8C01      		movw r16,r24
 6655               	.LVL392:
 6656               	.LM972:
 6657 1eaa 51E0      		ldi r21,hi8(256)
 6658 1eac 8030      		cpi r24,lo8(256)
 6659 1eae 9507      		cpc r25,r21
 6660 1eb0 01F4      		brne .L773
 6661               	.L762:
 6662               	.LBB947:
 6663               	.LBB948:
 6664               	.LM973:
 6665 1eb2 8091 B109 		lds r24,2481
 6666 1eb6 85FF      		sbrs r24,5
 6667 1eb8 00C0      		rjmp .L762
 6668               	.LM974:
 6669 1eba 8092 B009 		sts 2480,r8
 6670               	.L556:
 6671               	.LBE948:
 6672               	.LBE947:
 6673               	.LBB949:
 6674               	.LBB950:
 6675               	.LM975:
 6676 1ebe 8091 B109 		lds r24,2481
 6677 1ec2 85FF      		sbrs r24,5
 6678 1ec4 00C0      		rjmp .L556
 6679               	.LM976:
 6680 1ec6 9092 B009 		sts 2480,r9
 6681               	.L557:
 6682               	.LBE950:
 6683               	.LBE949:
 6684               	.LBB951:
 6685               	.LBB952:
 6686               	.LM977:
 6687 1eca 8091 B109 		lds r24,2481
 6688 1ece 85FF      		sbrs r24,5
 6689 1ed0 00C0      		rjmp .L557
 6690 1ed2 00C0      		rjmp .L1022
 6691               	.LVL393:
 6692               	.L773:
 6693               	.LBE952:
 6694               	.LBE951:
 6695               	.LBB953:
 6696               	.LBB954:
 6697 1ed4 8091 B109 		lds r24,2481
 6698 1ed8 85FF      		sbrs r24,5
 6699 1eda 00C0      		rjmp .L773
 6700               	.LM978:
 6701 1edc 0093 B009 		sts 2480,r16
 6702               	.LBE954:
 6703               	.LBE953:
 6704               	.LM979:
 6705 1ee0 80EB      		ldi r24,lo8(2480)
 6706 1ee2 99E0      		ldi r25,hi8(2480)
 6707 1ee4 0E94 0000 		call uart_getchar_timeout
 6708 1ee8 9C01      		movw r18,r24
 6709 1eea 6C01      		movw r12,r24
 6710               	.LM980:
 6711 1eec 61E0      		ldi r22,hi8(256)
 6712 1eee 8030      		cpi r24,lo8(256)
 6713 1ef0 9607      		cpc r25,r22
 6714 1ef2 01F4      		brne .L772
 6715               	.LVL394:
 6716               	.L763:
 6717               	.LBB955:
 6718               	.LBB956:
 6719               	.LM981:
 6720 1ef4 8091 B109 		lds r24,2481
 6721 1ef8 85FF      		sbrs r24,5
 6722 1efa 00C0      		rjmp .L763
 6723               	.LM982:
 6724 1efc 8092 B009 		sts 2480,r8
 6725               	.L560:
 6726               	.LBE956:
 6727               	.LBE955:
 6728               	.LBB957:
 6729               	.LBB958:
 6730               	.LM983:
 6731 1f00 8091 B109 		lds r24,2481
 6732 1f04 85FF      		sbrs r24,5
 6733 1f06 00C0      		rjmp .L560
 6734               	.LM984:
 6735 1f08 9092 B009 		sts 2480,r9
 6736               	.L561:
 6737               	.LBE958:
 6738               	.LBE957:
 6739               	.LBB959:
 6740               	.LBB960:
 6741               	.LM985:
 6742 1f0c 8091 B109 		lds r24,2481
 6743 1f10 85FF      		sbrs r24,5
 6744 1f12 00C0      		rjmp .L561
 6745 1f14 00C0      		rjmp .L1022
 6746               	.LVL395:
 6747               	.L772:
 6748               	.LBE960:
 6749               	.LBE959:
 6750               	.LBB961:
 6751               	.LBB962:
 6752 1f16 8091 B109 		lds r24,2481
 6753 1f1a 85FF      		sbrs r24,5
 6754 1f1c 00C0      		rjmp .L772
 6755               	.LM986:
 6756 1f1e 2093 B009 		sts 2480,r18
 6757               	.LBE962:
 6758               	.LBE961:
 6759               	.LM987:
 6760 1f22 902F      		mov r25,r16
 6761 1f24 8827      		clr r24
 6762 1f26 280F      		add r18,r24
 6763 1f28 391F      		adc r19,r25
 6764               	.LVL396:
 6765 1f2a 2093 0000 		sts robotData+38,r18
 6766 1f2e 3093 0000 		sts (robotData+38)+1,r19
 6767               	.LM988:
 6768 1f32 80EB      		ldi r24,lo8(2480)
 6769 1f34 99E0      		ldi r25,hi8(2480)
 6770 1f36 0E94 0000 		call uart_getchar_timeout
 6771               	.LVL397:
 6772 1f3a 8C01      		movw r16,r24
 6773               	.LVL398:
 6774               	.LM989:
 6775 1f3c 81E0      		ldi r24,hi8(256)
 6776 1f3e 0030      		cpi r16,lo8(256)
 6777 1f40 1807      		cpc r17,r24
 6778 1f42 01F4      		brne .L771
 6779               	.LVL399:
 6780               	.L764:
 6781               	.LBB963:
 6782               	.LBB964:
 6783               	.LM990:
 6784 1f44 8091 B109 		lds r24,2481
 6785 1f48 85FF      		sbrs r24,5
 6786 1f4a 00C0      		rjmp .L764
 6787               	.LM991:
 6788 1f4c 8092 B009 		sts 2480,r8
 6789               	.L564:
 6790               	.LBE964:
 6791               	.LBE963:
 6792               	.LBB965:
 6793               	.LBB966:
 6794               	.LM992:
 6795 1f50 8091 B109 		lds r24,2481
 6796 1f54 85FF      		sbrs r24,5
 6797 1f56 00C0      		rjmp .L564
 6798               	.LM993:
 6799 1f58 9092 B009 		sts 2480,r9
 6800               	.L565:
 6801               	.LBE966:
 6802               	.LBE965:
 6803               	.LBB967:
 6804               	.LBB968:
 6805               	.LM994:
 6806 1f5c 8091 B109 		lds r24,2481
 6807 1f60 85FF      		sbrs r24,5
 6808 1f62 00C0      		rjmp .L565
 6809 1f64 00C0      		rjmp .L1022
 6810               	.L771:
 6811               	.LBE968:
 6812               	.LBE967:
 6813               	.LBB969:
 6814               	.LBB970:
 6815 1f66 8091 B109 		lds r24,2481
 6816 1f6a 85FF      		sbrs r24,5
 6817 1f6c 00C0      		rjmp .L771
 6818               	.LM995:
 6819 1f6e 0093 B009 		sts 2480,r16
 6820               	.LBE970:
 6821               	.LBE969:
 6822               	.LM996:
 6823 1f72 80EB      		ldi r24,lo8(2480)
 6824 1f74 99E0      		ldi r25,hi8(2480)
 6825 1f76 0E94 0000 		call uart_getchar_timeout
 6826 1f7a 9C01      		movw r18,r24
 6827 1f7c 6C01      		movw r12,r24
 6828               	.LVL400:
 6829               	.LM997:
 6830 1f7e 91E0      		ldi r25,hi8(256)
 6831 1f80 2030      		cpi r18,lo8(256)
 6832 1f82 3907      		cpc r19,r25
 6833 1f84 01F4      		brne .L770
 6834               	.LVL401:
 6835               	.L765:
 6836               	.LBB971:
 6837               	.LBB972:
 6838               	.LM998:
 6839 1f86 8091 B109 		lds r24,2481
 6840 1f8a 85FF      		sbrs r24,5
 6841 1f8c 00C0      		rjmp .L765
 6842               	.LM999:
 6843 1f8e 8092 B009 		sts 2480,r8
 6844               	.L568:
 6845               	.LBE972:
 6846               	.LBE971:
 6847               	.LBB973:
 6848               	.LBB974:
 6849               	.LM1000:
 6850 1f92 8091 B109 		lds r24,2481
 6851 1f96 85FF      		sbrs r24,5
 6852 1f98 00C0      		rjmp .L568
 6853               	.LM1001:
 6854 1f9a 9092 B009 		sts 2480,r9
 6855               	.L569:
 6856               	.LBE974:
 6857               	.LBE973:
 6858               	.LBB975:
 6859               	.LBB976:
 6860               	.LM1002:
 6861 1f9e 8091 B109 		lds r24,2481
 6862 1fa2 85FF      		sbrs r24,5
 6863 1fa4 00C0      		rjmp .L569
 6864 1fa6 00C0      		rjmp .L1022
 6865               	.LVL402:
 6866               	.L770:
 6867               	.LBE976:
 6868               	.LBE975:
 6869               	.LBB977:
 6870               	.LBB978:
 6871 1fa8 8091 B109 		lds r24,2481
 6872 1fac 85FF      		sbrs r24,5
 6873 1fae 00C0      		rjmp .L770
 6874               	.LM1003:
 6875 1fb0 2093 B009 		sts 2480,r18
 6876               	.LBE978:
 6877               	.LBE977:
 6878               	.LM1004:
 6879 1fb4 902F      		mov r25,r16
 6880 1fb6 8827      		clr r24
 6881 1fb8 280F      		add r18,r24
 6882 1fba 391F      		adc r19,r25
 6883 1fbc 2093 0000 		sts robotData+40,r18
 6884 1fc0 3093 0000 		sts (robotData+40)+1,r19
 6885               	.LM1005:
 6886 1fc4 80EB      		ldi r24,lo8(2480)
 6887 1fc6 99E0      		ldi r25,hi8(2480)
 6888 1fc8 0E94 0000 		call uart_getchar_timeout
 6889               	.LVL403:
 6890 1fcc 8C01      		movw r16,r24
 6891               	.LVL404:
 6892               	.LM1006:
 6893 1fce E1E0      		ldi r30,hi8(256)
 6894 1fd0 8030      		cpi r24,lo8(256)
 6895 1fd2 9E07      		cpc r25,r30
 6896 1fd4 01F4      		brne .L769
 6897               	.L766:
 6898               	.LBB979:
 6899               	.LBB980:
 6900               	.LM1007:
 6901 1fd6 8091 B109 		lds r24,2481
 6902 1fda 85FF      		sbrs r24,5
 6903 1fdc 00C0      		rjmp .L766
 6904               	.LM1008:
 6905 1fde 8092 B009 		sts 2480,r8
 6906               	.L572:
 6907               	.LBE980:
 6908               	.LBE979:
 6909               	.LBB981:
 6910               	.LBB982:
 6911               	.LM1009:
 6912 1fe2 8091 B109 		lds r24,2481
 6913 1fe6 85FF      		sbrs r24,5
 6914 1fe8 00C0      		rjmp .L572
 6915               	.LM1010:
 6916 1fea 9092 B009 		sts 2480,r9
 6917               	.L573:
 6918               	.LBE982:
 6919               	.LBE981:
 6920               	.LBB983:
 6921               	.LBB984:
 6922               	.LM1011:
 6923 1fee 8091 B109 		lds r24,2481
 6924 1ff2 85FF      		sbrs r24,5
 6925 1ff4 00C0      		rjmp .L573
 6926 1ff6 00C0      		rjmp .L1022
 6927               	.LVL405:
 6928               	.L769:
 6929               	.LBE984:
 6930               	.LBE983:
 6931               	.LBB985:
 6932               	.LBB986:
 6933 1ff8 8091 B109 		lds r24,2481
 6934 1ffc 85FF      		sbrs r24,5
 6935 1ffe 00C0      		rjmp .L769
 6936               	.LM1012:
 6937 2000 0093 B009 		sts 2480,r16
 6938               	.LBE986:
 6939               	.LBE985:
 6940               	.LM1013:
 6941 2004 80EB      		ldi r24,lo8(2480)
 6942 2006 99E0      		ldi r25,hi8(2480)
 6943 2008 0E94 0000 		call uart_getchar_timeout
 6944 200c 9C01      		movw r18,r24
 6945 200e 6C01      		movw r12,r24
 6946               	.LVL406:
 6947               	.LM1014:
 6948 2010 F1E0      		ldi r31,hi8(256)
 6949 2012 8030      		cpi r24,lo8(256)
 6950 2014 9F07      		cpc r25,r31
 6951 2016 01F4      		brne .L768
 6952               	.LVL407:
 6953               	.L767:
 6954               	.LBB987:
 6955               	.LBB988:
 6956               	.LM1015:
 6957 2018 8091 B109 		lds r24,2481
 6958 201c 85FF      		sbrs r24,5
 6959 201e 00C0      		rjmp .L767
 6960               	.LM1016:
 6961 2020 8092 B009 		sts 2480,r8
 6962               	.L576:
 6963               	.LBE988:
 6964               	.LBE987:
 6965               	.LBB989:
 6966               	.LBB990:
 6967               	.LM1017:
 6968 2024 8091 B109 		lds r24,2481
 6969 2028 85FF      		sbrs r24,5
 6970 202a 00C0      		rjmp .L576
 6971               	.LM1018:
 6972 202c 9092 B009 		sts 2480,r9
 6973               	.L577:
 6974               	.LBE990:
 6975               	.LBE989:
 6976               	.LBB991:
 6977               	.LBB992:
 6978               	.LM1019:
 6979 2030 8091 B109 		lds r24,2481
 6980 2034 85FF      		sbrs r24,5
 6981 2036 00C0      		rjmp .L577
 6982 2038 00C0      		rjmp .L1022
 6983               	.LVL408:
 6984               	.L768:
 6985               	.LBE992:
 6986               	.LBE991:
 6987               	.LBB993:
 6988               	.LBB994:
 6989 203a 8091 B109 		lds r24,2481
 6990 203e 85FF      		sbrs r24,5
 6991 2040 00C0      		rjmp .L768
 6992               	.LM1020:
 6993 2042 2093 B009 		sts 2480,r18
 6994               	.LBE994:
 6995               	.LBE993:
 6996               	.LM1021:
 6997 2046 902F      		mov r25,r16
 6998 2048 8827      		clr r24
 6999 204a 280F      		add r18,r24
 7000 204c 391F      		adc r19,r25
 7001               	.LVL409:
 7002 204e 2093 0000 		sts robotData+42,r18
 7003 2052 3093 0000 		sts (robotData+42)+1,r19
 7004 2056 00C0      		rjmp .L446
 7005               	.LVL410:
 7006               	.L583:
 7007               	.LM1022:
 7008 2058 80EB      		ldi r24,lo8(2480)
 7009 205a 99E0      		ldi r25,hi8(2480)
 7010 205c 0E94 0000 		call uart_getchar_timeout
 7011 2060 6C01      		movw r12,r24
 7012               	.LM1023:
 7013 2062 21E0      		ldi r18,hi8(256)
 7014 2064 8030      		cpi r24,lo8(256)
 7015 2066 9207      		cpc r25,r18
 7016 2068 01F4      		brne .L578
 7017               	.L749:
 7018               	.LBB995:
 7019               	.LBB996:
 7020               	.LM1024:
 7021 206a 8091 B109 		lds r24,2481
 7022 206e 85FF      		sbrs r24,5
 7023 2070 00C0      		rjmp .L749
 7024               	.LM1025:
 7025 2072 8092 B009 		sts 2480,r8
 7026               	.L580:
 7027               	.LBE996:
 7028               	.LBE995:
 7029               	.LBB997:
 7030               	.LBB998:
 7031               	.LM1026:
 7032 2076 8091 B109 		lds r24,2481
 7033 207a 85FF      		sbrs r24,5
 7034 207c 00C0      		rjmp .L580
 7035               	.LM1027:
 7036 207e 9092 B009 		sts 2480,r9
 7037               	.L581:
 7038               	.LBE998:
 7039               	.LBE997:
 7040               	.LBB999:
 7041               	.LBB1000:
 7042               	.LM1028:
 7043 2082 8091 B109 		lds r24,2481
 7044 2086 85FF      		sbrs r24,5
 7045 2088 00C0      		rjmp .L581
 7046 208a 00C0      		rjmp .L1022
 7047               	.LVL411:
 7048               	.L578:
 7049               	.LBE1000:
 7050               	.LBE999:
 7051               	.LM1029:
 7052 208c 982F      		mov r25,r24
 7053 208e F801      		movw r30,r16
 7054 2090 E050      		subi r30,lo8(-(robotData))
 7055 2092 F040      		sbci r31,hi8(-(robotData))
 7056 2094 C4A6      		std Z+44,r12
 7057               	.LVL412:
 7058               	.L582:
 7059               	.LBB1001:
 7060               	.LBB1002:
 7061               	.LM1030:
 7062 2096 8091 B109 		lds r24,2481
 7063 209a 85FF      		sbrs r24,5
 7064 209c 00C0      		rjmp .L582
 7065               	.LM1031:
 7066 209e 9093 B009 		sts 2480,r25
 7067               	.LBE1002:
 7068               	.LBE1001:
 7069               	.LM1032:
 7070 20a2 0F5F      		subi r16,lo8(-(1))
 7071 20a4 1F4F      		sbci r17,hi8(-(1))
 7072               	.LVL413:
 7073               	.L481:
 7074 20a6 8091 0000 		lds r24,robotData+37
 7075 20aa 90E0      		ldi r25,lo8(0)
 7076               	.LVL414:
 7077 20ac 0817      		cp r16,r24
 7078 20ae 1907      		cpc r17,r25
 7079 20b0 04F0      		brlt .L583
 7080               	.LM1033:
 7081 20b2 30E0      		ldi r19,lo8(256)
 7082 20b4 C316      		cp r12,r19
 7083 20b6 31E0      		ldi r19,hi8(256)
 7084 20b8 D306      		cpc r13,r19
 7085 20ba 01F4      		brne .+2
 7086 20bc 00C0      		rjmp .L446
 7087               	.LM1034:
 7088 20be 80EB      		ldi r24,lo8(2480)
 7089 20c0 99E0      		ldi r25,hi8(2480)
 7090 20c2 0E94 0000 		call uart_getchar_timeout
 7091 20c6 8C01      		movw r16,r24
 7092               	.LVL415:
 7093               	.LM1035:
 7094 20c8 41E0      		ldi r20,hi8(256)
 7095 20ca 8030      		cpi r24,lo8(256)
 7096 20cc 9407      		cpc r25,r20
 7097 20ce 01F4      		brne .L753
 7098               	.LVL416:
 7099               	.L750:
 7100               	.LBB1003:
 7101               	.LBB1004:
 7102               	.LM1036:
 7103 20d0 8091 B109 		lds r24,2481
 7104               	.LVL417:
 7105 20d4 85FF      		sbrs r24,5
 7106 20d6 00C0      		rjmp .L750
 7107               	.LM1037:
 7108 20d8 8092 B009 		sts 2480,r8
 7109               	.L586:
 7110               	.LBE1004:
 7111               	.LBE1003:
 7112               	.LBB1005:
 7113               	.LBB1006:
 7114               	.LM1038:
 7115 20dc 8091 B109 		lds r24,2481
 7116 20e0 85FF      		sbrs r24,5
 7117 20e2 00C0      		rjmp .L586
 7118               	.LM1039:
 7119 20e4 9092 B009 		sts 2480,r9
 7120               	.L587:
 7121               	.LBE1006:
 7122               	.LBE1005:
 7123               	.LBB1007:
 7124               	.LBB1008:
 7125               	.LM1040:
 7126 20e8 8091 B109 		lds r24,2481
 7127 20ec 85FF      		sbrs r24,5
 7128 20ee 00C0      		rjmp .L587
 7129 20f0 00C0      		rjmp .L1022
 7130               	.LVL418:
 7131               	.L753:
 7132               	.LBE1008:
 7133               	.LBE1007:
 7134               	.LBB1009:
 7135               	.LBB1010:
 7136 20f2 8091 B109 		lds r24,2481
 7137               	.LVL419:
 7138 20f6 85FF      		sbrs r24,5
 7139 20f8 00C0      		rjmp .L753
 7140               	.LM1041:
 7141 20fa 0093 B009 		sts 2480,r16
 7142               	.LBE1010:
 7143               	.LBE1009:
 7144               	.LM1042:
 7145 20fe 80EB      		ldi r24,lo8(2480)
 7146 2100 99E0      		ldi r25,hi8(2480)
 7147 2102 0E94 0000 		call uart_getchar_timeout
 7148 2106 9C01      		movw r18,r24
 7149 2108 6C01      		movw r12,r24
 7150               	.LM1043:
 7151 210a 51E0      		ldi r21,hi8(256)
 7152 210c 8030      		cpi r24,lo8(256)
 7153 210e 9507      		cpc r25,r21
 7154 2110 01F4      		brne .L752
 7155               	.LVL420:
 7156               	.L751:
 7157               	.LBB1011:
 7158               	.LBB1012:
 7159               	.LM1044:
 7160 2112 8091 B109 		lds r24,2481
 7161 2116 85FF      		sbrs r24,5
 7162 2118 00C0      		rjmp .L751
 7163               	.LM1045:
 7164 211a 8092 B009 		sts 2480,r8
 7165               	.L590:
 7166               	.LBE1012:
 7167               	.LBE1011:
 7168               	.LBB1013:
 7169               	.LBB1014:
 7170               	.LM1046:
 7171 211e 8091 B109 		lds r24,2481
 7172 2122 85FF      		sbrs r24,5
 7173 2124 00C0      		rjmp .L590
 7174               	.LM1047:
 7175 2126 9092 B009 		sts 2480,r9
 7176               	.L591:
 7177               	.LBE1014:
 7178               	.LBE1013:
 7179               	.LBB1015:
 7180               	.LBB1016:
 7181               	.LM1048:
 7182 212a 8091 B109 		lds r24,2481
 7183 212e 85FF      		sbrs r24,5
 7184 2130 00C0      		rjmp .L591
 7185 2132 00C0      		rjmp .L1022
 7186               	.LVL421:
 7187               	.L752:
 7188               	.LBE1016:
 7189               	.LBE1015:
 7190               	.LBB1017:
 7191               	.LBB1018:
 7192 2134 8091 B109 		lds r24,2481
 7193 2138 85FF      		sbrs r24,5
 7194 213a 00C0      		rjmp .L752
 7195               	.LM1049:
 7196 213c 2093 B009 		sts 2480,r18
 7197               	.LBE1018:
 7198               	.LBE1017:
 7199               	.LM1050:
 7200 2140 902F      		mov r25,r16
 7201 2142 8827      		clr r24
 7202 2144 820F      		add r24,r18
 7203 2146 931F      		adc r25,r19
 7204 2148 8093 0000 		sts robotData+236,r24
 7205 214c 9093 0000 		sts (robotData+236)+1,r25
 7206               	.LM1051:
 7207 2150 892B      		or r24,r25
 7208 2152 01F0      		breq .L592
 7209               	.LVL422:
 7210               	.LM1052:
 7211 2154 81E0      		ldi r24,lo8(1)
 7212 2156 90E0      		ldi r25,hi8(1)
 7213 2158 8093 0000 		sts robotData+238,r24
 7214 215c 9093 0000 		sts (robotData+238)+1,r25
 7215 2160 00C0      		rjmp .L1029
 7216               	.L592:
 7217               	.LM1053:
 7218 2162 1092 0000 		sts robotData+238,__zero_reg__
 7219 2166 1092 0000 		sts (robotData+238)+1,__zero_reg__
 7220 216a 00C0      		rjmp .L1029
 7221               	.LVL423:
 7222               	.L447:
 7223               	.LM1054:
 7224 216c 1092 0000 		sts robotData+238,__zero_reg__
 7225 2170 1092 0000 		sts (robotData+238)+1,__zero_reg__
 7226               	.LBB1019:
 7227               	.LBB1020:
 7228               	.LM1055:
 7229 2174 1092 4608 		sts 2118,__zero_reg__
 7230               	.LBB1021:
 7231               	.LBB1022:
 7232               	.LM1056:
 7233               	/* #APP */
 7234               	 ;  42 "ir.c" 1
 7235 2178 F894      		cli
 7236               	 ;  0 "" 2
 7237               	.LM1057:
 7238               	/* #NOAPP */
 7239 217a 1092 2808 		sts 2088,__zero_reg__
 7240 217e 1092 2908 		sts (2088)+1,__zero_reg__
 7241               	.LM1058:
 7242               	/* #APP */
 7243               	 ;  44 "ir.c" 1
 7244 2182 7894      		sei
 7245               	 ;  0 "" 2
 7246               	/* #NOAPP */
 7247 2184 00C0      		rjmp .L446
 7248               	.L1034:
 7249               	.LBE1022:
 7250               	.LBE1021:
 7251               	.LBE1020:
 7252               	.LBE1019:
 7253               	.LM1059:
 7254 2186 0E94 0000 		call init_ir_read
 7255               	.LVL424:
 7256               	.L594:
 7257               	.LM1060:
 7258 218a 8091 0000 		lds r24,ir_read_flag
 7259 218e 8823      		tst r24
 7260 2190 01F4      		brne .L594
 7261 2192 00C0      		rjmp .L446
 7262               	.LVL425:
 7263               	.L459:
 7264               	.LM1061:
 7265 2194 80EB      		ldi r24,lo8(2480)
 7266 2196 99E0      		ldi r25,hi8(2480)
 7267 2198 0E94 0000 		call uart_getchar_timeout
 7268               	.LVL426:
 7269 219c 982F      		mov r25,r24
 7270               	.LVL427:
 7271 219e 9053      		subi r25,lo8(-(-48))
 7272               	.LM1062:
 7273 21a0 9530      		cpi r25,lo8(5)
 7274 21a2 00F4      		brsh .L724
 7275 21a4 8091 0000 		lds r24,signal_count
 7276 21a8 8530      		cpi r24,lo8(5)
 7277 21aa 00F0      		brlo .L724
 7278               	.L725:
 7279               	.LBB1023:
 7280               	.LBB1024:
 7281               	.LM1063:
 7282 21ac 8091 B109 		lds r24,2481
 7283 21b0 85FF      		sbrs r24,5
 7284 21b2 00C0      		rjmp .L725
 7285               	.LBE1024:
 7286               	.LBE1023:
 7287               	.LM1064:
 7288 21b4 905D      		subi r25,lo8(-(48))
 7289               	.LBB1026:
 7290               	.LBB1025:
 7291               	.LM1065:
 7292 21b6 9093 B009 		sts 2480,r25
 7293 21ba 9053      		subi r25,lo8(-(-48))
 7294               	.LBE1025:
 7295               	.LBE1026:
 7296               	.LM1066:
 7297 21bc 892F      		mov r24,r25
 7298 21be 90E0      		ldi r25,lo8(0)
 7299               	.LVL428:
 7300 21c0 0E94 0000 		call write_data_to_eeprom
 7301 21c4 00C0      		rjmp .L446
 7302               	.LVL429:
 7303               	.L724:
 7304               	.LBB1027:
 7305               	.LBB776:
 7306               	.LM1067:
 7307 21c6 8091 B109 		lds r24,2481
 7308 21ca 85FF      		sbrs r24,5
 7309 21cc 00C0      		rjmp .L724
 7310               	.LM1068:
 7311 21ce 8092 B009 		sts 2480,r8
 7312               	.L597:
 7313               	.LBE776:
 7314               	.LBE1027:
 7315               	.LBB1028:
 7316               	.LBB803:
 7317               	.LM1069:
 7318 21d2 8091 B109 		lds r24,2481
 7319 21d6 85FF      		sbrs r24,5
 7320 21d8 00C0      		rjmp .L597
 7321               	.LM1070:
 7322 21da 9092 B009 		sts 2480,r9
 7323               	.L598:
 7324               	.LBE803:
 7325               	.LBE1028:
 7326               	.LBB1029:
 7327               	.LBB1030:
 7328               	.LM1071:
 7329 21de 8091 B109 		lds r24,2481
 7330 21e2 85FF      		sbrs r24,5
 7331 21e4 00C0      		rjmp .L598
 7332 21e6 00C0      		rjmp .L1022
 7333               	.LVL430:
 7334               	.L470:
 7335               	.LBE1030:
 7336               	.LBE1029:
 7337               	.LM1072:
 7338 21e8 0E94 0000 		call read_data_from_serial
 7339               	.LVL431:
 7340 21ec 892B      		or r24,r25
 7341 21ee 01F4      		brne .+2
 7342 21f0 00C0      		rjmp .L744
 7343               	.LM1073:
 7344 21f2 80EB      		ldi r24,lo8(2480)
 7345 21f4 99E0      		ldi r25,hi8(2480)
 7346 21f6 0E94 0000 		call uart_getchar_timeout
 7347 21fa 8C01      		movw r16,r24
 7348               	.LVL432:
 7349               	.LM1074:
 7350 21fc 91E0      		ldi r25,hi8(256)
 7351 21fe 0030      		cpi r16,lo8(256)
 7352 2200 1907      		cpc r17,r25
 7353 2202 01F4      		brne .L743
 7354               	.LVL433:
 7355               	.L740:
 7356               	.LBB1031:
 7357               	.LBB1032:
 7358               	.LM1075:
 7359 2204 8091 B109 		lds r24,2481
 7360 2208 85FF      		sbrs r24,5
 7361 220a 00C0      		rjmp .L740
 7362               	.LM1076:
 7363 220c 8092 B009 		sts 2480,r8
 7364               	.L602:
 7365               	.LBE1032:
 7366               	.LBE1031:
 7367               	.LBB1033:
 7368               	.LBB1034:
 7369               	.LM1077:
 7370 2210 8091 B109 		lds r24,2481
 7371 2214 85FF      		sbrs r24,5
 7372 2216 00C0      		rjmp .L602
 7373               	.LM1078:
 7374 2218 9092 B009 		sts 2480,r9
 7375               	.L603:
 7376               	.LBE1034:
 7377               	.LBE1033:
 7378               	.LBB1035:
 7379               	.LBB1036:
 7380               	.LM1079:
 7381 221c 8091 B109 		lds r24,2481
 7382 2220 85FF      		sbrs r24,5
 7383 2222 00C0      		rjmp .L603
 7384 2224 00C0      		rjmp .L1022
 7385               	.L743:
 7386               	.LBE1036:
 7387               	.LBE1035:
 7388               	.LBB1037:
 7389               	.LBB1038:
 7390 2226 8091 B109 		lds r24,2481
 7391 222a 85FF      		sbrs r24,5
 7392 222c 00C0      		rjmp .L743
 7393               	.LM1080:
 7394 222e 0093 B009 		sts 2480,r16
 7395               	.LBE1038:
 7396               	.LBE1037:
 7397               	.LM1081:
 7398 2232 80EB      		ldi r24,lo8(2480)
 7399 2234 99E0      		ldi r25,hi8(2480)
 7400 2236 0E94 0000 		call uart_getchar_timeout
 7401 223a 9C01      		movw r18,r24
 7402 223c 6C01      		movw r12,r24
 7403               	.LM1082:
 7404 223e E1E0      		ldi r30,hi8(256)
 7405 2240 8030      		cpi r24,lo8(256)
 7406 2242 9E07      		cpc r25,r30
 7407 2244 01F4      		brne .L742
 7408               	.L741:
 7409               	.LBB1039:
 7410               	.LBB1040:
 7411               	.LM1083:
 7412 2246 8091 B109 		lds r24,2481
 7413 224a 85FF      		sbrs r24,5
 7414 224c 00C0      		rjmp .L741
 7415               	.LM1084:
 7416 224e 8092 B009 		sts 2480,r8
 7417               	.L606:
 7418               	.LBE1040:
 7419               	.LBE1039:
 7420               	.LBB1041:
 7421               	.LBB1042:
 7422               	.LM1085:
 7423 2252 8091 B109 		lds r24,2481
 7424 2256 85FF      		sbrs r24,5
 7425 2258 00C0      		rjmp .L606
 7426               	.LM1086:
 7427 225a 9092 B009 		sts 2480,r9
 7428               	.L607:
 7429               	.LBE1042:
 7430               	.LBE1041:
 7431               	.LBB1043:
 7432               	.LBB1044:
 7433               	.LM1087:
 7434 225e 8091 B109 		lds r24,2481
 7435 2262 85FF      		sbrs r24,5
 7436 2264 00C0      		rjmp .L607
 7437 2266 00C0      		rjmp .L1022
 7438               	.LVL434:
 7439               	.L742:
 7440               	.LBE1044:
 7441               	.LBE1043:
 7442               	.LBB1045:
 7443               	.LBB1046:
 7444 2268 8091 B109 		lds r24,2481
 7445 226c 85FF      		sbrs r24,5
 7446 226e 00C0      		rjmp .L742
 7447               	.LM1088:
 7448 2270 2093 B009 		sts 2480,r18
 7449               	.LBE1046:
 7450               	.LBE1045:
 7451               	.LM1089:
 7452 2274 902F      		mov r25,r16
 7453 2276 8827      		clr r24
 7454 2278 820F      		add r24,r18
 7455 227a 931F      		adc r25,r19
 7456 227c 8093 0000 		sts robotData+236,r24
 7457 2280 9093 0000 		sts (robotData+236)+1,r25
 7458               	.LM1090:
 7459 2284 892B      		or r24,r25
 7460 2286 01F0      		breq .L608
 7461               	.LVL435:
 7462               	.LM1091:
 7463 2288 21E0      		ldi r18,lo8(1)
 7464 228a 30E0      		ldi r19,hi8(1)
 7465               	.LVL436:
 7466 228c 2093 0000 		sts robotData+238,r18
 7467 2290 3093 0000 		sts (robotData+238)+1,r19
 7468 2294 00C0      		rjmp .L1028
 7469               	.LVL437:
 7470               	.L608:
 7471               	.LM1092:
 7472 2296 1092 0000 		sts robotData+238,__zero_reg__
 7473 229a 1092 0000 		sts (robotData+238)+1,__zero_reg__
 7474 229e 00C0      		rjmp .L1028
 7475               	.LVL438:
 7476               	.L744:
 7477               	.LBB1047:
 7478               	.LBB1048:
 7479               	.LM1093:
 7480 22a0 8091 B109 		lds r24,2481
 7481 22a4 85FF      		sbrs r24,5
 7482 22a6 00C0      		rjmp .L744
 7483               	.LM1094:
 7484 22a8 8092 B009 		sts 2480,r8
 7485               	.L610:
 7486               	.LBE1048:
 7487               	.LBE1047:
 7488               	.LBB1049:
 7489               	.LBB1050:
 7490               	.LM1095:
 7491 22ac 8091 B109 		lds r24,2481
 7492 22b0 85FF      		sbrs r24,5
 7493 22b2 00C0      		rjmp .L610
 7494               	.LM1096:
 7495 22b4 9092 B009 		sts 2480,r9
 7496               	.L611:
 7497               	.LBE1050:
 7498               	.LBE1049:
 7499               	.LBB1051:
 7500               	.LBB1052:
 7501               	.LM1097:
 7502 22b8 8091 B109 		lds r24,2481
 7503 22bc 85FF      		sbrs r24,5
 7504 22be 00C0      		rjmp .L611
 7505 22c0 00C0      		rjmp .L1022
 7506               	.LVL439:
 7507               	.L1032:
 7508               	.LBE1052:
 7509               	.LBE1051:
 7510               	.LM1098:
 7511 22c2 80EB      		ldi r24,lo8(2480)
 7512 22c4 99E0      		ldi r25,hi8(2480)
 7513 22c6 0E94 0000 		call uart_getchar_timeout
 7514               	.LVL440:
 7515 22ca 20ED      		ldi r18,lo8(-48)
 7516 22cc F22E      		mov r15,r18
 7517 22ce F80E      		add r15,r24
 7518               	.LM1099:
 7519 22d0 64E0      		ldi r22,lo8(4)
 7520 22d2 6F15      		cp r22,r15
 7521 22d4 00F4      		brsh .+2
 7522 22d6 00C0      		rjmp .L799
 7523               	.L798:
 7524               	.LBB1053:
 7525               	.LBB1054:
 7526               	.LM1100:
 7527 22d8 8091 B109 		lds r24,2481
 7528 22dc 85FF      		sbrs r24,5
 7529 22de 00C0      		rjmp .L798
 7530               	.LBE1054:
 7531               	.LBE1053:
 7532               	.LM1101:
 7533 22e0 80E3      		ldi r24,lo8(48)
 7534 22e2 F80E      		add r15,r24
 7535               	.LBB1056:
 7536               	.LBB1055:
 7537               	.LM1102:
 7538 22e4 F092 B009 		sts 2480,r15
 7539 22e8 90ED      		ldi r25,lo8(-48)
 7540 22ea F90E      		add r15,r25
 7541               	.LBE1055:
 7542               	.LBE1056:
 7543               	.LM1103:
 7544 22ec 80EB      		ldi r24,lo8(2480)
 7545 22ee 99E0      		ldi r25,hi8(2480)
 7546 22f0 0E94 0000 		call uart_getchar_timeout
 7547 22f4 8C01      		movw r16,r24
 7548               	.LVL441:
 7549               	.LM1104:
 7550 22f6 E1E0      		ldi r30,hi8(256)
 7551 22f8 8030      		cpi r24,lo8(256)
 7552 22fa 9E07      		cpc r25,r30
 7553 22fc 01F4      		brne .L797
 7554               	.LVL442:
 7555               	.L794:
 7556               	.LBB1057:
 7557               	.LBB1058:
 7558               	.LM1105:
 7559 22fe 8091 B109 		lds r24,2481
 7560               	.LVL443:
 7561 2302 85FF      		sbrs r24,5
 7562 2304 00C0      		rjmp .L794
 7563               	.LM1106:
 7564 2306 8092 B009 		sts 2480,r8
 7565               	.L616:
 7566               	.LBE1058:
 7567               	.LBE1057:
 7568               	.LBB1059:
 7569               	.LBB1060:
 7570               	.LM1107:
 7571 230a 8091 B109 		lds r24,2481
 7572 230e 85FF      		sbrs r24,5
 7573 2310 00C0      		rjmp .L616
 7574               	.LM1108:
 7575 2312 9092 B009 		sts 2480,r9
 7576               	.L617:
 7577               	.LBE1060:
 7578               	.LBE1059:
 7579               	.LBB1061:
 7580               	.LBB1062:
 7581               	.LM1109:
 7582 2316 8091 B109 		lds r24,2481
 7583 231a 85FF      		sbrs r24,5
 7584 231c 00C0      		rjmp .L617
 7585 231e 00C0      		rjmp .L1022
 7586               	.LVL444:
 7587               	.L797:
 7588               	.LBE1062:
 7589               	.LBE1061:
 7590               	.LBB1063:
 7591               	.LBB1064:
 7592 2320 8091 B109 		lds r24,2481
 7593               	.LVL445:
 7594 2324 85FF      		sbrs r24,5
 7595 2326 00C0      		rjmp .L797
 7596               	.LM1110:
 7597 2328 0093 B009 		sts 2480,r16
 7598               	.LBE1064:
 7599               	.LBE1063:
 7600               	.LM1111:
 7601 232c 80EB      		ldi r24,lo8(2480)
 7602 232e 99E0      		ldi r25,hi8(2480)
 7603 2330 0E94 0000 		call uart_getchar_timeout
 7604 2334 9C01      		movw r18,r24
 7605 2336 6C01      		movw r12,r24
 7606               	.LM1112:
 7607 2338 F1E0      		ldi r31,hi8(256)
 7608 233a 8030      		cpi r24,lo8(256)
 7609 233c 9F07      		cpc r25,r31
 7610 233e 01F4      		brne .L796
 7611               	.LVL446:
 7612               	.L795:
 7613               	.LBB1065:
 7614               	.LBB1066:
 7615               	.LM1113:
 7616 2340 8091 B109 		lds r24,2481
 7617 2344 85FF      		sbrs r24,5
 7618 2346 00C0      		rjmp .L795
 7619               	.LM1114:
 7620 2348 8092 B009 		sts 2480,r8
 7621               	.L620:
 7622               	.LBE1066:
 7623               	.LBE1065:
 7624               	.LBB1067:
 7625               	.LBB1068:
 7626               	.LM1115:
 7627 234c 8091 B109 		lds r24,2481
 7628 2350 85FF      		sbrs r24,5
 7629 2352 00C0      		rjmp .L620
 7630               	.LM1116:
 7631 2354 9092 B009 		sts 2480,r9
 7632               	.L621:
 7633               	.LBE1068:
 7634               	.LBE1067:
 7635               	.LBB1069:
 7636               	.LBB1070:
 7637               	.LM1117:
 7638 2358 8091 B109 		lds r24,2481
 7639 235c 85FF      		sbrs r24,5
 7640 235e 00C0      		rjmp .L621
 7641 2360 00C0      		rjmp .L1022
 7642               	.LVL447:
 7643               	.L796:
 7644               	.LBE1070:
 7645               	.LBE1069:
 7646               	.LBB1071:
 7647               	.LBB1072:
 7648 2362 8091 B109 		lds r24,2481
 7649 2366 85FF      		sbrs r24,5
 7650 2368 00C0      		rjmp .L796
 7651               	.LM1118:
 7652 236a 2093 B009 		sts 2480,r18
 7653               	.LBE1072:
 7654               	.LBE1071:
 7655               	.LM1119:
 7656 236e 902F      		mov r25,r16
 7657 2370 8827      		clr r24
 7658 2372 820F      		add r24,r18
 7659 2374 931F      		adc r25,r19
 7660 2376 8093 0000 		sts robotData+236,r24
 7661 237a 9093 0000 		sts (robotData+236)+1,r25
 7662               	.LM1120:
 7663 237e 892B      		or r24,r25
 7664 2380 01F0      		breq .L622
 7665               	.LVL448:
 7666               	.LM1121:
 7667 2382 21E0      		ldi r18,lo8(1)
 7668 2384 30E0      		ldi r19,hi8(1)
 7669               	.LVL449:
 7670 2386 2093 0000 		sts robotData+238,r18
 7671 238a 3093 0000 		sts (robotData+238)+1,r19
 7672 238e 00C0      		rjmp .L623
 7673               	.LVL450:
 7674               	.L622:
 7675               	.LM1122:
 7676 2390 1092 0000 		sts robotData+238,__zero_reg__
 7677 2394 1092 0000 		sts (robotData+238)+1,__zero_reg__
 7678               	.LVL451:
 7679               	.L623:
 7680               	.LM1123:
 7681 2398 8F2D      		mov r24,r15
 7682 239a 90E0      		ldi r25,lo8(0)
 7683 239c 0E94 0000 		call read_data_from_eeprom
 7684               	.LVL452:
 7685               	.L1028:
 7686               	.LM1124:
 7687 23a0 49E4      		ldi r20,lo8(841)
 7688 23a2 53E0      		ldi r21,hi8(841)
 7689 23a4 4093 0000 		sts robotData,r20
 7690 23a8 5093 0000 		sts (robotData)+1,r21
 7691               	.LM1125:
 7692 23ac 1092 0000 		sts robotData+2,__zero_reg__
 7693               	.LM1126:
 7694 23b0 54E0      		ldi r21,lo8(4)
 7695 23b2 5093 0000 		sts robotData+35,r21
 7696               	.L1029:
 7697               	.LM1127:
 7698 23b6 0E94 0000 		call start_ir_timer
 7699 23ba 00C0      		rjmp .L446
 7700               	.LVL453:
 7701               	.L799:
 7702               	.LBB1073:
 7703               	.LBB1074:
 7704               	.LM1128:
 7705 23bc 8091 B109 		lds r24,2481
 7706 23c0 85FF      		sbrs r24,5
 7707 23c2 00C0      		rjmp .L799
 7708               	.LM1129:
 7709 23c4 8092 B009 		sts 2480,r8
 7710               	.L624:
 7711               	.LBE1074:
 7712               	.LBE1073:
 7713               	.LBB1075:
 7714               	.LBB1076:
 7715               	.LM1130:
 7716 23c8 8091 B109 		lds r24,2481
 7717 23cc 85FF      		sbrs r24,5
 7718 23ce 00C0      		rjmp .L624
 7719               	.LM1131:
 7720 23d0 9092 B009 		sts 2480,r9
 7721               	.L625:
 7722               	.LBE1076:
 7723               	.LBE1075:
 7724               	.LBB1077:
 7725               	.LBB1078:
 7726               	.LM1132:
 7727 23d4 8091 B109 		lds r24,2481
 7728 23d8 85FF      		sbrs r24,5
 7729 23da 00C0      		rjmp .L625
 7730 23dc 00C0      		rjmp .L1022
 7731               	.LVL454:
 7732               	.L466:
 7733               	.LBE1078:
 7734               	.LBE1077:
 7735               	.LM1133:
 7736 23de 80EB      		ldi r24,lo8(2480)
 7737 23e0 99E0      		ldi r25,hi8(2480)
 7738 23e2 0E94 0000 		call uart_getchar_timeout
 7739               	.LVL455:
 7740 23e6 982F      		mov r25,r24
 7741               	.LVL456:
 7742 23e8 9053      		subi r25,lo8(-(-48))
 7743               	.LM1134:
 7744 23ea 9530      		cpi r25,lo8(5)
 7745 23ec 00F4      		brsh .L748
 7746               	.L747:
 7747               	.LBB1079:
 7748               	.LBB1080:
 7749               	.LM1135:
 7750 23ee 8091 B109 		lds r24,2481
 7751 23f2 85FF      		sbrs r24,5
 7752 23f4 00C0      		rjmp .L747
 7753               	.LBE1080:
 7754               	.LBE1079:
 7755               	.LM1136:
 7756 23f6 905D      		subi r25,lo8(-(48))
 7757               	.LBB1082:
 7758               	.LBB1081:
 7759               	.LM1137:
 7760 23f8 9093 B009 		sts 2480,r25
 7761 23fc 9053      		subi r25,lo8(-(-48))
 7762               	.LBE1081:
 7763               	.LBE1082:
 7764               	.LM1138:
 7765 23fe 892F      		mov r24,r25
 7766 2400 90E0      		ldi r25,lo8(0)
 7767               	.LVL457:
 7768 2402 0E94 0000 		call print_data_from_eeprom
 7769 2406 00C0      		rjmp .L446
 7770               	.LVL458:
 7771               	.L748:
 7772               	.LBB1083:
 7773               	.LBB1084:
 7774               	.LM1139:
 7775 2408 8091 B109 		lds r24,2481
 7776 240c 85FF      		sbrs r24,5
 7777 240e 00C0      		rjmp .L748
 7778               	.LM1140:
 7779 2410 8092 B009 		sts 2480,r8
 7780               	.L628:
 7781               	.LBE1084:
 7782               	.LBE1083:
 7783               	.LBB1085:
 7784               	.LBB1086:
 7785               	.LM1141:
 7786 2414 8091 B109 		lds r24,2481
 7787 2418 85FF      		sbrs r24,5
 7788 241a 00C0      		rjmp .L628
 7789               	.LM1142:
 7790 241c 9092 B009 		sts 2480,r9
 7791               	.L629:
 7792               	.LBE1086:
 7793               	.LBE1085:
 7794               	.LBB1087:
 7795               	.LBB1088:
 7796               	.LM1143:
 7797 2420 8091 B109 		lds r24,2481
 7798 2424 85FF      		sbrs r24,5
 7799 2426 00C0      		rjmp .L629
 7800 2428 00C0      		rjmp .L1022
 7801               	.LVL459:
 7802               	.L449:
 7803               	.LBE1088:
 7804               	.LBE1087:
 7805               	.LM1144:
 7806 242a 80EB      		ldi r24,lo8(2480)
 7807 242c 99E0      		ldi r25,hi8(2480)
 7808 242e 0E94 0000 		call uart_getchar_timeout
 7809               	.LVL460:
 7810               	.LM1145:
 7811 2432 61E0      		ldi r22,hi8(256)
 7812 2434 8030      		cpi r24,lo8(256)
 7813 2436 9607      		cpc r25,r22
 7814 2438 01F4      		brne .L630
 7815               	.LVL461:
 7816               	.L800:
 7817               	.LBB1089:
 7818               	.LBB1090:
 7819               	.LM1146:
 7820 243a 8091 B109 		lds r24,2481
 7821               	.LVL462:
 7822 243e 85FF      		sbrs r24,5
 7823 2440 00C0      		rjmp .L800
 7824               	.LM1147:
 7825 2442 8092 B009 		sts 2480,r8
 7826               	.L632:
 7827               	.LBE1090:
 7828               	.LBE1089:
 7829               	.LBB1091:
 7830               	.LBB1092:
 7831               	.LM1148:
 7832 2446 8091 B109 		lds r24,2481
 7833 244a 85FF      		sbrs r24,5
 7834 244c 00C0      		rjmp .L632
 7835               	.LM1149:
 7836 244e 9092 B009 		sts 2480,r9
 7837               	.L633:
 7838               	.LBE1092:
 7839               	.LBE1091:
 7840               	.LBB1093:
 7841               	.LBB1094:
 7842               	.LM1150:
 7843 2452 8091 B109 		lds r24,2481
 7844 2456 85FF      		sbrs r24,5
 7845 2458 00C0      		rjmp .L633
 7846 245a 00C0      		rjmp .L1022
 7847               	.LVL463:
 7848               	.L630:
 7849               	.LBE1094:
 7850               	.LBE1093:
 7851               	.LM1151:
 7852 245c 182F      		mov r17,r24
 7853               	.L634:
 7854               	.LBB1095:
 7855               	.LBB1096:
 7856               	.LM1152:
 7857 245e 8091 B109 		lds r24,2481
 7858               	.LVL464:
 7859 2462 85FF      		sbrs r24,5
 7860 2464 00C0      		rjmp .L634
 7861               	.LM1153:
 7862 2466 1093 B009 		sts 2480,r17
 7863               	.LBE1096:
 7864               	.LBE1095:
 7865               	.LM1154:
 7866 246a 80EB      		ldi r24,lo8(2480)
 7867 246c 99E0      		ldi r25,hi8(2480)
 7868 246e 0E94 0000 		call uart_getchar_timeout
 7869 2472 6C01      		movw r12,r24
 7870               	.LM1155:
 7871 2474 80E0      		ldi r24,lo8(256)
 7872 2476 C816      		cp r12,r24
 7873 2478 81E0      		ldi r24,hi8(256)
 7874 247a D806      		cpc r13,r24
 7875 247c 01F4      		brne .L635
 7876               	.L801:
 7877               	.LBB1097:
 7878               	.LBB1098:
 7879               	.LM1156:
 7880 247e 8091 B109 		lds r24,2481
 7881 2482 85FF      		sbrs r24,5
 7882 2484 00C0      		rjmp .L801
 7883               	.LM1157:
 7884 2486 8092 B009 		sts 2480,r8
 7885               	.L637:
 7886               	.LBE1098:
 7887               	.LBE1097:
 7888               	.LBB1099:
 7889               	.LBB1100:
 7890               	.LM1158:
 7891 248a 8091 B109 		lds r24,2481
 7892 248e 85FF      		sbrs r24,5
 7893 2490 00C0      		rjmp .L637
 7894               	.LM1159:
 7895 2492 9092 B009 		sts 2480,r9
 7896               	.L638:
 7897               	.LBE1100:
 7898               	.LBE1099:
 7899               	.LBB1101:
 7900               	.LBB1102:
 7901               	.LM1160:
 7902 2496 8091 B109 		lds r24,2481
 7903 249a 85FF      		sbrs r24,5
 7904 249c 00C0      		rjmp .L638
 7905 249e 00C0      		rjmp .L1022
 7906               	.L635:
 7907               	.LBE1102:
 7908               	.LBE1101:
 7909               	.LM1161:
 7910 24a0 6C2D      		mov r22,r12
 7911               	.L639:
 7912               	.LBB1103:
 7913               	.LBB1104:
 7914               	.LM1162:
 7915 24a2 8091 B109 		lds r24,2481
 7916 24a6 85FF      		sbrs r24,5
 7917 24a8 00C0      		rjmp .L639
 7918               	.LM1163:
 7919 24aa 6093 B009 		sts 2480,r22
 7920               	.LBE1104:
 7921               	.LBE1103:
 7922               	.LM1164:
 7923 24ae 6053      		subi r22,lo8(-(-48))
 7924 24b0 812F      		mov r24,r17
 7925 24b2 0E94 0000 		call set_output
 7926 24b6 00C0      		rjmp .L446
 7927               	.LVL465:
 7928               	.L1030:
 7929               	.LM1165:
 7930 24b8 80EB      		ldi r24,lo8(2480)
 7931 24ba 99E0      		ldi r25,hi8(2480)
 7932 24bc 0E94 0000 		call uart_getchar_timeout
 7933               	.LVL466:
 7934 24c0 9C01      		movw r18,r24
 7935               	.LM1166:
 7936 24c2 91E0      		ldi r25,hi8(256)
 7937 24c4 2030      		cpi r18,lo8(256)
 7938 24c6 3907      		cpc r19,r25
 7939 24c8 01F4      		brne .L640
 7940               	.LVL467:
 7941               	.L802:
 7942               	.LBB1105:
 7943               	.LBB1106:
 7944               	.LM1167:
 7945 24ca 8091 B109 		lds r24,2481
 7946 24ce 85FF      		sbrs r24,5
 7947 24d0 00C0      		rjmp .L802
 7948               	.LM1168:
 7949 24d2 8092 B009 		sts 2480,r8
 7950               	.L642:
 7951               	.LBE1106:
 7952               	.LBE1105:
 7953               	.LBB1107:
 7954               	.LBB1108:
 7955               	.LM1169:
 7956 24d6 8091 B109 		lds r24,2481
 7957 24da 85FF      		sbrs r24,5
 7958 24dc 00C0      		rjmp .L642
 7959               	.LM1170:
 7960 24de 9092 B009 		sts 2480,r9
 7961               	.L643:
 7962               	.LBE1108:
 7963               	.LBE1107:
 7964               	.LBB1109:
 7965               	.LBB1110:
 7966               	.LM1171:
 7967 24e2 8091 B109 		lds r24,2481
 7968 24e6 85FF      		sbrs r24,5
 7969 24e8 00C0      		rjmp .L643
 7970 24ea 00C0      		rjmp .L1022
 7971               	.L640:
 7972               	.LBE1110:
 7973               	.LBE1109:
 7974               	.LM1172:
 7975 24ec 922F      		mov r25,r18
 7976               	.L644:
 7977               	.LBB1111:
 7978               	.LBB1112:
 7979               	.LM1173:
 7980 24ee 8091 B109 		lds r24,2481
 7981 24f2 85FF      		sbrs r24,5
 7982 24f4 00C0      		rjmp .L644
 7983               	.LM1174:
 7984 24f6 9093 B009 		sts 2480,r25
 7985               	.LBE1112:
 7986               	.LBE1111:
 7987               	.LM1175:
 7988 24fa 892F      		mov r24,r25
 7989 24fc 0E94 0000 		call read_input
 7990               	.LVL468:
 7991 2500 C82E      		mov r12,r24
 7992               	.LVL469:
 7993 2502 DD24      		clr r13
 7994 2504 E0E3      		ldi r30,lo8(48)
 7995 2506 F0E0      		ldi r31,hi8(48)
 7996 2508 CE0E      		add r12,r30
 7997 250a DF1E      		adc r13,r31
 7998               	.LVL470:
 7999               	.L645:
 8000               	.LBB1113:
 8001               	.LBB1114:
 8002               	.LM1176:
 8003 250c 8091 B109 		lds r24,2481
 8004 2510 85FF      		sbrs r24,5
 8005 2512 00C0      		rjmp .L645
 8006               	.LM1177:
 8007 2514 C092 B009 		sts 2480,r12
 8008 2518 00C0      		rjmp .L446
 8009               	.LVL471:
 8010               	.L457:
 8011               	.LBE1114:
 8012               	.LBE1113:
 8013               	.LM1178:
 8014 251a 80EB      		ldi r24,lo8(2480)
 8015 251c 99E0      		ldi r25,hi8(2480)
 8016 251e 0E94 0000 		call uart_getchar_timeout
 8017               	.LVL472:
 8018 2522 8C01      		movw r16,r24
 8019               	.LVL473:
 8020               	.LM1179:
 8021 2524 F1E0      		ldi r31,hi8(256)
 8022 2526 8030      		cpi r24,lo8(256)
 8023 2528 9F07      		cpc r25,r31
 8024 252a 01F4      		brne .L781
 8025               	.LVL474:
 8026               	.L778:
 8027               	.LBB1115:
 8028               	.LBB1116:
 8029               	.LM1180:
 8030 252c 8091 B109 		lds r24,2481
 8031               	.LVL475:
 8032 2530 85FF      		sbrs r24,5
 8033 2532 00C0      		rjmp .L778
 8034               	.LM1181:
 8035 2534 8092 B009 		sts 2480,r8
 8036               	.L648:
 8037               	.LBE1116:
 8038               	.LBE1115:
 8039               	.LBB1117:
 8040               	.LBB1118:
 8041               	.LM1182:
 8042 2538 8091 B109 		lds r24,2481
 8043 253c 85FF      		sbrs r24,5
 8044 253e 00C0      		rjmp .L648
 8045               	.LM1183:
 8046 2540 9092 B009 		sts 2480,r9
 8047               	.L649:
 8048               	.LBE1118:
 8049               	.LBE1117:
 8050               	.LBB1119:
 8051               	.LBB1120:
 8052               	.LM1184:
 8053 2544 8091 B109 		lds r24,2481
 8054 2548 85FF      		sbrs r24,5
 8055 254a 00C0      		rjmp .L649
 8056 254c 00C0      		rjmp .L1022
 8057               	.LVL476:
 8058               	.L781:
 8059               	.LBE1120:
 8060               	.LBE1119:
 8061               	.LBB1121:
 8062               	.LBB1122:
 8063 254e 8091 B109 		lds r24,2481
 8064               	.LVL477:
 8065 2552 85FF      		sbrs r24,5
 8066 2554 00C0      		rjmp .L781
 8067               	.LM1185:
 8068 2556 0093 B009 		sts 2480,r16
 8069               	.LBE1122:
 8070               	.LBE1121:
 8071               	.LM1186:
 8072 255a 80EB      		ldi r24,lo8(2480)
 8073 255c 99E0      		ldi r25,hi8(2480)
 8074 255e 0E94 0000 		call uart_getchar_timeout
 8075 2562 9C01      		movw r18,r24
 8076 2564 6C01      		movw r12,r24
 8077               	.LM1187:
 8078 2566 41E0      		ldi r20,hi8(256)
 8079 2568 8030      		cpi r24,lo8(256)
 8080 256a 9407      		cpc r25,r20
 8081 256c 01F4      		brne .L780
 8082               	.LVL478:
 8083               	.L779:
 8084               	.LBB1123:
 8085               	.LBB1124:
 8086               	.LM1188:
 8087 256e 8091 B109 		lds r24,2481
 8088 2572 85FF      		sbrs r24,5
 8089 2574 00C0      		rjmp .L779
 8090               	.LM1189:
 8091 2576 8092 B009 		sts 2480,r8
 8092               	.L652:
 8093               	.LBE1124:
 8094               	.LBE1123:
 8095               	.LBB1125:
 8096               	.LBB1126:
 8097               	.LM1190:
 8098 257a 8091 B109 		lds r24,2481
 8099 257e 85FF      		sbrs r24,5
 8100 2580 00C0      		rjmp .L652
 8101               	.LM1191:
 8102 2582 9092 B009 		sts 2480,r9
 8103               	.L653:
 8104               	.LBE1126:
 8105               	.LBE1125:
 8106               	.LBB1127:
 8107               	.LBB1128:
 8108               	.LM1192:
 8109 2586 8091 B109 		lds r24,2481
 8110 258a 85FF      		sbrs r24,5
 8111 258c 00C0      		rjmp .L653
 8112 258e 00C0      		rjmp .L1022
 8113               	.LVL479:
 8114               	.L780:
 8115               	.LBE1128:
 8116               	.LBE1127:
 8117               	.LBB1129:
 8118               	.LBB1130:
 8119 2590 8091 B109 		lds r24,2481
 8120 2594 85FF      		sbrs r24,5
 8121 2596 00C0      		rjmp .L780
 8122               	.LM1193:
 8123 2598 2093 B009 		sts 2480,r18
 8124               	.LBE1130:
 8125               	.LBE1129:
 8126               	.LM1194:
 8127 259c 902F      		mov r25,r16
 8128 259e 8827      		clr r24
 8129 25a0 280F      		add r18,r24
 8130 25a2 391F      		adc r19,r25
 8131               	.LVL480:
 8132 25a4 2093 0000 		sts pwm_frequency,r18
 8133 25a8 3093 0000 		sts (pwm_frequency)+1,r19
 8134 25ac 00C0      		rjmp .L446
 8135               	.LVL481:
 8136               	.L468:
 8137               	.LBB1131:
 8138               	.LBB806:
 8139               	.LM1195:
 8140 25ae 51E0      		ldi r21,lo8(1)
 8141 25b0 5093 000A 		sts 2560,r21
 8142               	.LM1196:
 8143 25b4 23E0      		ldi r18,lo8(3)
 8144 25b6 F201      		movw r30,r4
 8145 25b8 2183      		std Z+1,r18
 8146               	.LM1197:
 8147 25ba 1382      		std Z+3,__zero_reg__
 8148               	.LM1198:
 8149 25bc 8091 0000 		lds r24,pwm_frequency
 8150 25c0 9091 0000 		lds r25,(pwm_frequency)+1
 8151 25c4 86AB      		std Z+54,r24
 8152 25c6 97AB      		std Z+55,r25
 8153               	.LBE806:
 8154               	.LBE1131:
 8155               	.LM1199:
 8156 25c8 80EB      		ldi r24,lo8(2480)
 8157 25ca 99E0      		ldi r25,hi8(2480)
 8158 25cc 0E94 0000 		call uart_getchar_timeout
 8159               	.LVL482:
 8160 25d0 9C01      		movw r18,r24
 8161               	.LM1200:
 8162 25d2 41E0      		ldi r20,hi8(256)
 8163 25d4 8030      		cpi r24,lo8(256)
 8164 25d6 9407      		cpc r25,r20
 8165 25d8 01F4      		brne .L739
 8166               	.LVL483:
 8167               	.L730:
 8168               	.LBB1132:
 8169               	.LBB1133:
 8170               	.LM1201:
 8171 25da 8091 B109 		lds r24,2481
 8172               	.LVL484:
 8173 25de 85FF      		sbrs r24,5
 8174 25e0 00C0      		rjmp .L730
 8175               	.LM1202:
 8176 25e2 8092 B009 		sts 2480,r8
 8177               	.L656:
 8178               	.LBE1133:
 8179               	.LBE1132:
 8180               	.LBB1134:
 8181               	.LBB1135:
 8182               	.LM1203:
 8183 25e6 8091 B109 		lds r24,2481
 8184 25ea 85FF      		sbrs r24,5
 8185 25ec 00C0      		rjmp .L656
 8186               	.LM1204:
 8187 25ee 9092 B009 		sts 2480,r9
 8188               	.L657:
 8189               	.LBE1135:
 8190               	.LBE1134:
 8191               	.LBB1136:
 8192               	.LBB1137:
 8193               	.LM1205:
 8194 25f2 8091 B109 		lds r24,2481
 8195 25f6 85FF      		sbrs r24,5
 8196 25f8 00C0      		rjmp .L657
 8197 25fa 00C0      		rjmp .L1022
 8198               	.LVL485:
 8199               	.L739:
 8200               	.LBE1137:
 8201               	.LBE1136:
 8202               	.LBB1138:
 8203               	.LBB1139:
 8204 25fc 8091 B109 		lds r24,2481
 8205               	.LVL486:
 8206 2600 85FF      		sbrs r24,5
 8207 2602 00C0      		rjmp .L739
 8208               	.LM1206:
 8209 2604 2093 B009 		sts 2480,r18
 8210               	.LBE1139:
 8211               	.LBE1138:
 8212               	.LM1207:
 8213 2608 2033      		cpi r18,48
 8214 260a 3105      		cpc r19,__zero_reg__
 8215 260c 01F0      		breq .+2
 8216 260e 00C0      		rjmp .L658
 8217               	.LVL487:
 8218               	.LM1208:
 8219 2610 80EB      		ldi r24,lo8(2480)
 8220 2612 99E0      		ldi r25,hi8(2480)
 8221 2614 0E94 0000 		call uart_getchar_timeout
 8222               	.LVL488:
 8223 2618 8C01      		movw r16,r24
 8224               	.LVL489:
 8225               	.LM1209:
 8226 261a 51E0      		ldi r21,hi8(256)
 8227 261c 8030      		cpi r24,lo8(256)
 8228 261e 9507      		cpc r25,r21
 8229 2620 01F4      		brne .L734
 8230               	.LVL490:
 8231               	.L731:
 8232               	.LBB1140:
 8233               	.LBB1141:
 8234               	.LM1210:
 8235 2622 8091 B109 		lds r24,2481
 8236               	.LVL491:
 8237 2626 85FF      		sbrs r24,5
 8238 2628 00C0      		rjmp .L731
 8239               	.LM1211:
 8240 262a 8092 B009 		sts 2480,r8
 8241               	.L661:
 8242               	.LBE1141:
 8243               	.LBE1140:
 8244               	.LBB1142:
 8245               	.LBB1143:
 8246               	.LM1212:
 8247 262e 8091 B109 		lds r24,2481
 8248 2632 85FF      		sbrs r24,5
 8249 2634 00C0      		rjmp .L661
 8250               	.LM1213:
 8251 2636 9092 B009 		sts 2480,r9
 8252               	.L662:
 8253               	.LBE1143:
 8254               	.LBE1142:
 8255               	.LBB1144:
 8256               	.LBB1145:
 8257               	.LM1214:
 8258 263a 8091 B109 		lds r24,2481
 8259 263e 85FF      		sbrs r24,5
 8260 2640 00C0      		rjmp .L662
 8261 2642 00C0      		rjmp .L1022
 8262               	.LVL492:
 8263               	.L734:
 8264               	.LBE1145:
 8265               	.LBE1144:
 8266               	.LBB1146:
 8267               	.LBB1147:
 8268 2644 8091 B109 		lds r24,2481
 8269               	.LVL493:
 8270 2648 85FF      		sbrs r24,5
 8271 264a 00C0      		rjmp .L734
 8272               	.LM1215:
 8273 264c 0093 B009 		sts 2480,r16
 8274               	.LBE1147:
 8275               	.LBE1146:
 8276               	.LM1216:
 8277 2650 80EB      		ldi r24,lo8(2480)
 8278 2652 99E0      		ldi r25,hi8(2480)
 8279 2654 0E94 0000 		call uart_getchar_timeout
 8280 2658 9C01      		movw r18,r24
 8281 265a 6C01      		movw r12,r24
 8282               	.LM1217:
 8283 265c 61E0      		ldi r22,hi8(256)
 8284 265e 8030      		cpi r24,lo8(256)
 8285 2660 9607      		cpc r25,r22
 8286 2662 01F4      		brne .L733
 8287               	.LVL494:
 8288               	.L732:
 8289               	.LBB1148:
 8290               	.LBB1149:
 8291               	.LM1218:
 8292 2664 8091 B109 		lds r24,2481
 8293 2668 85FF      		sbrs r24,5
 8294 266a 00C0      		rjmp .L732
 8295               	.LM1219:
 8296 266c 8092 B009 		sts 2480,r8
 8297               	.L665:
 8298               	.LBE1149:
 8299               	.LBE1148:
 8300               	.LBB1150:
 8301               	.LBB1151:
 8302               	.LM1220:
 8303 2670 8091 B109 		lds r24,2481
 8304 2674 85FF      		sbrs r24,5
 8305 2676 00C0      		rjmp .L665
 8306               	.LM1221:
 8307 2678 9092 B009 		sts 2480,r9
 8308               	.L666:
 8309               	.LBE1151:
 8310               	.LBE1150:
 8311               	.LBB1152:
 8312               	.LBB1153:
 8313               	.LM1222:
 8314 267c 8091 B109 		lds r24,2481
 8315 2680 85FF      		sbrs r24,5
 8316 2682 00C0      		rjmp .L666
 8317 2684 00C0      		rjmp .L1022
 8318               	.LVL495:
 8319               	.L733:
 8320               	.LBE1153:
 8321               	.LBE1152:
 8322               	.LBB1154:
 8323               	.LBB1155:
 8324 2686 8091 B109 		lds r24,2481
 8325 268a 85FF      		sbrs r24,5
 8326 268c 00C0      		rjmp .L733
 8327               	.LM1223:
 8328 268e 2093 B009 		sts 2480,r18
 8329               	.LBE1155:
 8330               	.LBE1154:
 8331               	.LM1224:
 8332 2692 902F      		mov r25,r16
 8333 2694 8827      		clr r24
 8334 2696 280F      		add r18,r24
 8335 2698 391F      		adc r19,r25
 8336               	.LVL496:
 8337               	.LBB1156:
 8338               	.LBB1157:
 8339               	.LM1225:
 8340 269a 8091 010A 		lds r24,2561
 8341 269e 8064      		ori r24,lo8(64)
 8342 26a0 F201      		movw r30,r4
 8343 26a2 8183      		std Z+1,r24
 8344               	.LM1226:
 8345 26a4 F4E0      		ldi r31,lo8(4)
 8346 26a6 F093 8106 		sts 1665,r31
 8347               	.LM1227:
 8348 26aa F201      		movw r30,r4
 8349 26ac 24A7      		std Z+44,r18
 8350 26ae 35A7      		std Z+45,r19
 8351 26b0 00C0      		rjmp .L446
 8352               	.LVL497:
 8353               	.L658:
 8354               	.LBE1157:
 8355               	.LBE1156:
 8356               	.LM1228:
 8357 26b2 2133      		cpi r18,49
 8358 26b4 3105      		cpc r19,__zero_reg__
 8359 26b6 01F0      		breq .+2
 8360 26b8 00C0      		rjmp .L446
 8361               	.LM1229:
 8362 26ba 80EB      		ldi r24,lo8(2480)
 8363 26bc 99E0      		ldi r25,hi8(2480)
 8364 26be 0E94 0000 		call uart_getchar_timeout
 8365               	.LVL498:
 8366 26c2 8C01      		movw r16,r24
 8367               	.LVL499:
 8368               	.LM1230:
 8369 26c4 F1E0      		ldi r31,hi8(256)
 8370 26c6 8030      		cpi r24,lo8(256)
 8371 26c8 9F07      		cpc r25,r31
 8372 26ca 01F4      		brne .L738
 8373               	.LVL500:
 8374               	.L735:
 8375               	.LBB1158:
 8376               	.LBB1159:
 8377               	.LM1231:
 8378 26cc 8091 B109 		lds r24,2481
 8379               	.LVL501:
 8380 26d0 85FF      		sbrs r24,5
 8381 26d2 00C0      		rjmp .L735
 8382               	.LM1232:
 8383 26d4 8092 B009 		sts 2480,r8
 8384               	.L669:
 8385               	.LBE1159:
 8386               	.LBE1158:
 8387               	.LBB1160:
 8388               	.LBB1161:
 8389               	.LM1233:
 8390 26d8 8091 B109 		lds r24,2481
 8391 26dc 85FF      		sbrs r24,5
 8392 26de 00C0      		rjmp .L669
 8393               	.LM1234:
 8394 26e0 9092 B009 		sts 2480,r9
 8395               	.L670:
 8396               	.LBE1161:
 8397               	.LBE1160:
 8398               	.LBB1162:
 8399               	.LBB1163:
 8400               	.LM1235:
 8401 26e4 8091 B109 		lds r24,2481
 8402 26e8 85FF      		sbrs r24,5
 8403 26ea 00C0      		rjmp .L670
 8404 26ec 00C0      		rjmp .L1022
 8405               	.LVL502:
 8406               	.L738:
 8407               	.LBE1163:
 8408               	.LBE1162:
 8409               	.LBB1164:
 8410               	.LBB1165:
 8411 26ee 8091 B109 		lds r24,2481
 8412               	.LVL503:
 8413 26f2 85FF      		sbrs r24,5
 8414 26f4 00C0      		rjmp .L738
 8415               	.LM1236:
 8416 26f6 0093 B009 		sts 2480,r16
 8417               	.LBE1165:
 8418               	.LBE1164:
 8419               	.LM1237:
 8420 26fa 80EB      		ldi r24,lo8(2480)
 8421 26fc 99E0      		ldi r25,hi8(2480)
 8422 26fe 0E94 0000 		call uart_getchar_timeout
 8423 2702 9C01      		movw r18,r24
 8424 2704 6C01      		movw r12,r24
 8425               	.LM1238:
 8426 2706 41E0      		ldi r20,hi8(256)
 8427 2708 8030      		cpi r24,lo8(256)
 8428 270a 9407      		cpc r25,r20
 8429 270c 01F4      		brne .L737
 8430               	.LVL504:
 8431               	.L736:
 8432               	.LBB1166:
 8433               	.LBB1167:
 8434               	.LM1239:
 8435 270e 8091 B109 		lds r24,2481
 8436 2712 85FF      		sbrs r24,5
 8437 2714 00C0      		rjmp .L736
 8438               	.LM1240:
 8439 2716 8092 B009 		sts 2480,r8
 8440               	.L673:
 8441               	.LBE1167:
 8442               	.LBE1166:
 8443               	.LBB1168:
 8444               	.LBB1169:
 8445               	.LM1241:
 8446 271a 8091 B109 		lds r24,2481
 8447 271e 85FF      		sbrs r24,5
 8448 2720 00C0      		rjmp .L673
 8449               	.LM1242:
 8450 2722 9092 B009 		sts 2480,r9
 8451               	.L674:
 8452               	.LBE1169:
 8453               	.LBE1168:
 8454               	.LBB1170:
 8455               	.LBB1171:
 8456               	.LM1243:
 8457 2726 8091 B109 		lds r24,2481
 8458 272a 85FF      		sbrs r24,5
 8459 272c 00C0      		rjmp .L674
 8460 272e 00C0      		rjmp .L1022
 8461               	.LVL505:
 8462               	.L737:
 8463               	.LBE1171:
 8464               	.LBE1170:
 8465               	.LBB1172:
 8466               	.LBB1173:
 8467 2730 8091 B109 		lds r24,2481
 8468 2734 85FF      		sbrs r24,5
 8469 2736 00C0      		rjmp .L737
 8470               	.LM1244:
 8471 2738 2093 B009 		sts 2480,r18
 8472               	.LBE1173:
 8473               	.LBE1172:
 8474               	.LM1245:
 8475 273c 902F      		mov r25,r16
 8476 273e 8827      		clr r24
 8477 2740 280F      		add r18,r24
 8478 2742 391F      		adc r19,r25
 8479               	.LVL506:
 8480               	.LBB1174:
 8481               	.LBB1175:
 8482               	.LM1246:
 8483 2744 8091 010A 		lds r24,2561
 8484 2748 8068      		ori r24,lo8(-128)
 8485 274a F201      		movw r30,r4
 8486 274c 8183      		std Z+1,r24
 8487               	.LM1247:
 8488 274e F8E0      		ldi r31,lo8(8)
 8489 2750 F093 8106 		sts 1665,r31
 8490               	.LM1248:
 8491 2754 F201      		movw r30,r4
 8492 2756 26A7      		std Z+46,r18
 8493 2758 37A7      		std Z+47,r19
 8494 275a 00C0      		rjmp .L446
 8495               	.LVL507:
 8496               	.L465:
 8497               	.LBE1175:
 8498               	.LBE1174:
 8499               	.LM1249:
 8500 275c 80EB      		ldi r24,lo8(2480)
 8501 275e 99E0      		ldi r25,hi8(2480)
 8502 2760 0E94 0000 		call uart_getchar_timeout
 8503               	.LVL508:
 8504 2764 9C01      		movw r18,r24
 8505               	.LM1250:
 8506 2766 F1E0      		ldi r31,hi8(256)
 8507 2768 8030      		cpi r24,lo8(256)
 8508 276a 9F07      		cpc r25,r31
 8509 276c 01F4      		brne .L729
 8510               	.LVL509:
 8511               	.L726:
 8512               	.LBB1176:
 8513               	.LBB1177:
 8514               	.LM1251:
 8515 276e 8091 B109 		lds r24,2481
 8516               	.LVL510:
 8517 2772 85FF      		sbrs r24,5
 8518 2774 00C0      		rjmp .L726
 8519               	.LM1252:
 8520 2776 8092 B009 		sts 2480,r8
 8521               	.L677:
 8522               	.LBE1177:
 8523               	.LBE1176:
 8524               	.LBB1178:
 8525               	.LBB1179:
 8526               	.LM1253:
 8527 277a 8091 B109 		lds r24,2481
 8528 277e 85FF      		sbrs r24,5
 8529 2780 00C0      		rjmp .L677
 8530               	.LM1254:
 8531 2782 9092 B009 		sts 2480,r9
 8532               	.L678:
 8533               	.LBE1179:
 8534               	.LBE1178:
 8535               	.LBB1180:
 8536               	.LBB1181:
 8537               	.LM1255:
 8538 2786 8091 B109 		lds r24,2481
 8539 278a 85FF      		sbrs r24,5
 8540 278c 00C0      		rjmp .L678
 8541 278e 00C0      		rjmp .L1022
 8542               	.LVL511:
 8543               	.L729:
 8544               	.LBE1181:
 8545               	.LBE1180:
 8546               	.LBB1182:
 8547               	.LBB1183:
 8548 2790 8091 B109 		lds r24,2481
 8549               	.LVL512:
 8550 2794 85FF      		sbrs r24,5
 8551 2796 00C0      		rjmp .L729
 8552               	.LM1256:
 8553 2798 2093 B009 		sts 2480,r18
 8554               	.LBE1183:
 8555               	.LBE1182:
 8556               	.LM1257:
 8557 279c 2033      		cpi r18,48
 8558 279e 3105      		cpc r19,__zero_reg__
 8559 27a0 01F4      		brne .L679
 8560               	.LVL513:
 8561               	.LM1258:
 8562 27a2 80EB      		ldi r24,lo8(2480)
 8563 27a4 99E0      		ldi r25,hi8(2480)
 8564 27a6 0E94 0000 		call uart_getchar_timeout
 8565               	.LVL514:
 8566               	.LM1259:
 8567 27aa 41E0      		ldi r20,hi8(256)
 8568 27ac 8030      		cpi r24,lo8(256)
 8569 27ae 9407      		cpc r25,r20
 8570 27b0 01F4      		brne .L680
 8571               	.LVL515:
 8572               	.L727:
 8573               	.LBB1184:
 8574               	.LBB1185:
 8575               	.LM1260:
 8576 27b2 8091 B109 		lds r24,2481
 8577               	.LVL516:
 8578 27b6 85FF      		sbrs r24,5
 8579 27b8 00C0      		rjmp .L727
 8580               	.LM1261:
 8581 27ba 8092 B009 		sts 2480,r8
 8582               	.L682:
 8583               	.LBE1185:
 8584               	.LBE1184:
 8585               	.LBB1186:
 8586               	.LBB1187:
 8587               	.LM1262:
 8588 27be 8091 B109 		lds r24,2481
 8589 27c2 85FF      		sbrs r24,5
 8590 27c4 00C0      		rjmp .L682
 8591               	.LM1263:
 8592 27c6 9092 B009 		sts 2480,r9
 8593               	.L683:
 8594               	.LBE1187:
 8595               	.LBE1186:
 8596               	.LBB1188:
 8597               	.LBB1189:
 8598               	.LM1264:
 8599 27ca 8091 B109 		lds r24,2481
 8600 27ce 85FF      		sbrs r24,5
 8601 27d0 00C0      		rjmp .L683
 8602 27d2 00C0      		rjmp .L1022
 8603               	.LVL517:
 8604               	.L680:
 8605               	.LBE1189:
 8606               	.LBE1188:
 8607               	.LM1265:
 8608 27d4 982F      		mov r25,r24
 8609               	.L684:
 8610               	.LBB1190:
 8611               	.LBB1191:
 8612               	.LM1266:
 8613 27d6 8091 B109 		lds r24,2481
 8614               	.LVL518:
 8615 27da 85FF      		sbrs r24,5
 8616 27dc 00C0      		rjmp .L684
 8617               	.LM1267:
 8618 27de 9093 B009 		sts 2480,r25
 8619               	.LBE1191:
 8620               	.LBE1190:
 8621               	.LBB1192:
 8622               	.LBB1193:
 8623               	.LM1268:
 8624 27e2 8091 2003 		lds r24,800
 8625 27e6 8460      		ori r24,lo8(4)
 8626 27e8 8093 2003 		sts 800,r24
 8627               	.L685:
 8628               	.LM1269:
 8629 27ec 8091 2503 		lds r24,805
 8630 27f0 80FF      		sbrs r24,0
 8631 27f2 00C0      		rjmp .L685
 8632               	.LM1270:
 8633 27f4 9093 3903 		sts 825,r25
 8634 27f8 00C0      		rjmp .L446
 8635               	.LVL519:
 8636               	.L679:
 8637               	.LBE1193:
 8638               	.LBE1192:
 8639               	.LM1271:
 8640 27fa 2133      		cpi r18,49
 8641 27fc 3105      		cpc r19,__zero_reg__
 8642 27fe 01F0      		breq .+2
 8643 2800 00C0      		rjmp .L446
 8644               	.LM1272:
 8645 2802 80EB      		ldi r24,lo8(2480)
 8646 2804 99E0      		ldi r25,hi8(2480)
 8647 2806 0E94 0000 		call uart_getchar_timeout
 8648               	.LVL520:
 8649               	.LM1273:
 8650 280a 51E0      		ldi r21,hi8(256)
 8651 280c 8030      		cpi r24,lo8(256)
 8652 280e 9507      		cpc r25,r21
 8653 2810 01F4      		brne .L686
 8654               	.LVL521:
 8655               	.L728:
 8656               	.LBB1194:
 8657               	.LBB1195:
 8658               	.LM1274:
 8659 2812 8091 B109 		lds r24,2481
 8660               	.LVL522:
 8661 2816 85FF      		sbrs r24,5
 8662 2818 00C0      		rjmp .L728
 8663               	.LM1275:
 8664 281a 8092 B009 		sts 2480,r8
 8665               	.L688:
 8666               	.LBE1195:
 8667               	.LBE1194:
 8668               	.LBB1196:
 8669               	.LBB1197:
 8670               	.LM1276:
 8671 281e 8091 B109 		lds r24,2481
 8672 2822 85FF      		sbrs r24,5
 8673 2824 00C0      		rjmp .L688
 8674               	.LM1277:
 8675 2826 9092 B009 		sts 2480,r9
 8676               	.L689:
 8677               	.LBE1197:
 8678               	.LBE1196:
 8679               	.LBB1198:
 8680               	.LBB1199:
 8681               	.LM1278:
 8682 282a 8091 B109 		lds r24,2481
 8683 282e 85FF      		sbrs r24,5
 8684 2830 00C0      		rjmp .L689
 8685 2832 00C0      		rjmp .L1022
 8686               	.LVL523:
 8687               	.L686:
 8688               	.LBE1199:
 8689               	.LBE1198:
 8690               	.LM1279:
 8691 2834 982F      		mov r25,r24
 8692               	.L690:
 8693               	.LBB1200:
 8694               	.LBB1201:
 8695               	.LM1280:
 8696 2836 8091 B109 		lds r24,2481
 8697               	.LVL524:
 8698 283a 85FF      		sbrs r24,5
 8699 283c 00C0      		rjmp .L690
 8700               	.LM1281:
 8701 283e 9093 B009 		sts 2480,r25
 8702               	.LBE1201:
 8703               	.LBE1200:
 8704               	.LBB1202:
 8705               	.LBB1203:
 8706               	.LM1282:
 8707 2842 8091 2003 		lds r24,800
 8708 2846 8860      		ori r24,lo8(8)
 8709 2848 8093 2003 		sts 800,r24
 8710               	.L691:
 8711               	.LM1283:
 8712 284c 8091 2503 		lds r24,805
 8713 2850 81FF      		sbrs r24,1
 8714 2852 00C0      		rjmp .L691
 8715               	.LM1284:
 8716 2854 9093 3B03 		sts 827,r25
 8717 2858 00C0      		rjmp .L446
 8718               	.LVL525:
 8719               	.L452:
 8720               	.LBE1203:
 8721               	.LBE1202:
 8722               	.LM1285:
 8723 285a 80EB      		ldi r24,lo8(2480)
 8724 285c 99E0      		ldi r25,hi8(2480)
 8725 285e 0E94 0000 		call uart_getchar_timeout
 8726               	.LVL526:
 8727 2862 7C01      		movw r14,r24
 8728               	.LVL527:
 8729               	.LM1286:
 8730 2864 61E0      		ldi r22,hi8(256)
 8731 2866 8030      		cpi r24,lo8(256)
 8732 2868 9607      		cpc r25,r22
 8733 286a 01F4      		brne .L793
 8734               	.LVL528:
 8735               	.L789:
 8736               	.LBB1204:
 8737               	.LBB1205:
 8738               	.LM1287:
 8739 286c 8091 B109 		lds r24,2481
 8740               	.LVL529:
 8741 2870 85FF      		sbrs r24,5
 8742 2872 00C0      		rjmp .L789
 8743               	.LM1288:
 8744 2874 8092 B009 		sts 2480,r8
 8745               	.L694:
 8746               	.LBE1205:
 8747               	.LBE1204:
 8748               	.LBB1206:
 8749               	.LBB1207:
 8750               	.LM1289:
 8751 2878 8091 B109 		lds r24,2481
 8752 287c 85FF      		sbrs r24,5
 8753 287e 00C0      		rjmp .L694
 8754               	.LM1290:
 8755 2880 9092 B009 		sts 2480,r9
 8756               	.L695:
 8757               	.LBE1207:
 8758               	.LBE1206:
 8759               	.LBB1208:
 8760               	.LBB1209:
 8761               	.LM1291:
 8762 2884 8091 B109 		lds r24,2481
 8763 2888 85FF      		sbrs r24,5
 8764 288a 00C0      		rjmp .L695
 8765 288c 00C0      		rjmp .L1022
 8766               	.LVL530:
 8767               	.L793:
 8768               	.LBE1209:
 8769               	.LBE1208:
 8770               	.LBB1210:
 8771               	.LBB1211:
 8772 288e 8091 B109 		lds r24,2481
 8773               	.LVL531:
 8774 2892 85FF      		sbrs r24,5
 8775 2894 00C0      		rjmp .L793
 8776               	.LM1292:
 8777 2896 E092 B009 		sts 2480,r14
 8778               	.LBE1211:
 8779               	.LBE1210:
 8780               	.LM1293:
 8781 289a 80EB      		ldi r24,lo8(2480)
 8782 289c 99E0      		ldi r25,hi8(2480)
 8783 289e 0E94 0000 		call uart_getchar_timeout
 8784 28a2 8C01      		movw r16,r24
 8785               	.LVL532:
 8786 28a4 6C01      		movw r12,r24
 8787               	.LM1294:
 8788 28a6 81E0      		ldi r24,hi8(256)
 8789 28a8 0030      		cpi r16,lo8(256)
 8790 28aa 1807      		cpc r17,r24
 8791 28ac 01F4      		brne .L792
 8792               	.LVL533:
 8793               	.L790:
 8794               	.LBB1212:
 8795               	.LBB1213:
 8796               	.LM1295:
 8797 28ae 8091 B109 		lds r24,2481
 8798 28b2 85FF      		sbrs r24,5
 8799 28b4 00C0      		rjmp .L790
 8800               	.LM1296:
 8801 28b6 8092 B009 		sts 2480,r8
 8802               	.L698:
 8803               	.LBE1213:
 8804               	.LBE1212:
 8805               	.LBB1214:
 8806               	.LBB1215:
 8807               	.LM1297:
 8808 28ba 8091 B109 		lds r24,2481
 8809 28be 85FF      		sbrs r24,5
 8810 28c0 00C0      		rjmp .L698
 8811               	.LM1298:
 8812 28c2 9092 B009 		sts 2480,r9
 8813               	.L699:
 8814               	.LBE1215:
 8815               	.LBE1214:
 8816               	.LBB1216:
 8817               	.LBB1217:
 8818               	.LM1299:
 8819 28c6 8091 B109 		lds r24,2481
 8820 28ca 85FF      		sbrs r24,5
 8821 28cc 00C0      		rjmp .L699
 8822 28ce 00C0      		rjmp .L1022
 8823               	.L792:
 8824               	.LBE1217:
 8825               	.LBE1216:
 8826               	.LBB1218:
 8827               	.LBB1219:
 8828 28d0 8091 B109 		lds r24,2481
 8829 28d4 85FF      		sbrs r24,5
 8830 28d6 00C0      		rjmp .L792
 8831               	.LM1300:
 8832 28d8 0093 B009 		sts 2480,r16
 8833               	.LBE1219:
 8834               	.LBE1218:
 8835               	.LM1301:
 8836 28dc 80EB      		ldi r24,lo8(2480)
 8837 28de 99E0      		ldi r25,hi8(2480)
 8838 28e0 0E94 0000 		call uart_getchar_timeout
 8839 28e4 9C01      		movw r18,r24
 8840               	.LM1302:
 8841 28e6 91E0      		ldi r25,hi8(256)
 8842 28e8 2030      		cpi r18,lo8(256)
 8843 28ea 3907      		cpc r19,r25
 8844 28ec 01F4      		brne .L700
 8845               	.LVL534:
 8846               	.L791:
 8847               	.LBB1220:
 8848               	.LBB1221:
 8849               	.LM1303:
 8850 28ee 8091 B109 		lds r24,2481
 8851 28f2 85FF      		sbrs r24,5
 8852 28f4 00C0      		rjmp .L791
 8853               	.LM1304:
 8854 28f6 8092 B009 		sts 2480,r8
 8855               	.L702:
 8856               	.LBE1221:
 8857               	.LBE1220:
 8858               	.LBB1222:
 8859               	.LBB1223:
 8860               	.LM1305:
 8861 28fa 8091 B109 		lds r24,2481
 8862 28fe 85FF      		sbrs r24,5
 8863 2900 00C0      		rjmp .L702
 8864               	.LM1306:
 8865 2902 9092 B009 		sts 2480,r9
 8866               	.L703:
 8867               	.LBE1223:
 8868               	.LBE1222:
 8869               	.LBB1224:
 8870               	.LBB1225:
 8871               	.LM1307:
 8872 2906 8091 B109 		lds r24,2481
 8873 290a 85FF      		sbrs r24,5
 8874 290c 00C0      		rjmp .L703
 8875               	.LM1308:
 8876 290e 9092 B009 		sts 2480,r9
 8877 2912 00C0      		rjmp .L1024
 8878               	.L700:
 8879               	.LBE1225:
 8880               	.LBE1224:
 8881               	.LM1309:
 8882 2914 422F      		mov r20,r18
 8883               	.L704:
 8884               	.LBB1226:
 8885               	.LBB1227:
 8886               	.LM1310:
 8887 2916 8091 B109 		lds r24,2481
 8888 291a 85FF      		sbrs r24,5
 8889 291c 00C0      		rjmp .L704
 8890               	.LM1311:
 8891 291e 4093 B009 		sts 2480,r20
 8892               	.L705:
 8893               	.LBE1227:
 8894               	.LBE1226:
 8895               	.LBB1228:
 8896               	.LBB1229:
 8897               	.LM1312:
 8898 2922 8091 B109 		lds r24,2481
 8899 2926 85FF      		sbrs r24,5
 8900 2928 00C0      		rjmp .L705
 8901               	.LBE1229:
 8902               	.LBE1228:
 8903               	.LM1313:
 8904 292a 9E2D      		mov r25,r14
 8905 292c 8827      		clr r24
 8906               	.LVL535:
 8907 292e 800F      		add r24,r16
 8908 2930 911F      		adc r25,r17
 8909               	.LBB1231:
 8910               	.LBB1230:
 8911               	.LM1314:
 8912 2932 4093 B009 		sts 2480,r20
 8913               	.LBE1230:
 8914               	.LBE1231:
 8915               	.LBB1232:
 8916               	.LBB1233:
 8917               	.LM1315:
 8918 2936 8093 A608 		sts 2214,r24
 8919 293a 4295      		swap r20
 8920 293c 407F      		andi r20,lo8(-16)
 8921 293e 892F      		mov r24,r25
 8922 2940 990F      		lsl r25
 8923 2942 990B      		sbc r25,r25
 8924               	.LVL536:
 8925 2944 482B      		or r20,r24
 8926 2946 4093 A708 		sts 2215,r20
 8927               	.LVL537:
 8928               	.L1024:
 8929 294a 6901      		movw r12,r18
 8930 294c 00C0      		rjmp .L446
 8931               	.LVL538:
 8932               	.L463:
 8933               	.LBE1233:
 8934               	.LBE1232:
 8935               	.LM1316:
 8936 294e 0E94 0000 		call serial_bridge
 8937               	.LVL539:
 8938 2952 00C0      		rjmp .L446
 8939               	.LVL540:
 8940               	.L706:
 8941               	.LBB1234:
 8942               	.LBB1235:
 8943               	.LM1317:
 8944 2954 E091 0000 		lds r30,AUX_data+259
 8945 2958 F0E0      		ldi r31,lo8(0)
 8946 295a E050      		subi r30,lo8(-(AUX_data))
 8947 295c F040      		sbci r31,hi8(-(AUX_data))
 8948 295e 9281      		ldd r25,Z+2
 8949               	.LVL541:
 8950               	.LM1318:
 8951 2960 8091 0000 		lds r24,AUX_data+259
 8952               	.LVL542:
 8953 2964 8F5F      		subi r24,lo8(-(1))
 8954 2966 8093 0000 		sts AUX_data+259,r24
 8955               	.LBE1235:
 8956               	.LBE1234:
 8957               	.LM1319:
 8958 296a E1E0      		ldi r30,lo8(1)
 8959 296c F0E0      		ldi r31,hi8(1)
 8960 296e EC0F      		add r30,r28
 8961 2970 FD1F      		adc r31,r29
 8962 2972 E20F      		add r30,r18
 8963 2974 F11D      		adc r31,__zero_reg__
 8964 2976 9083      		st Z,r25
 8965               	.LM1320:
 8966 2978 2F5F      		subi r18,lo8(-(1))
 8967               	.LVL543:
 8968               	.L480:
 8969               	.LBB1236:
 8970               	.LBB1237:
 8971               	.LM1321:
 8972 297a 9091 0000 		lds r25,AUX_data+258
 8973               	.LVL544:
 8974               	.LM1322:
 8975 297e 8091 0000 		lds r24,AUX_data+259
 8976               	.LVL545:
 8977               	.LBE1237:
 8978               	.LBE1236:
 8979               	.LM1323:
 8980 2982 9817      		cp r25,r24
 8981 2984 01F4      		brne .L706
 8982               	.L746:
 8983               	.LBB1238:
 8984               	.LBB1239:
 8985               	.LM1324:
 8986 2986 8091 B109 		lds r24,2481
 8987               	.LVL546:
 8988 298a 85FF      		sbrs r24,5
 8989 298c 00C0      		rjmp .L746
 8990               	.LBE1239:
 8991               	.LBE1238:
 8992               	.LM1325:
 8993 298e 2F5F      		subi r18,lo8(-(1))
 8994               	.LBB1241:
 8995               	.LBB1240:
 8996               	.LM1326:
 8997 2990 2093 B009 		sts 2480,r18
 8998 2994 2150      		subi r18,lo8(-(-1))
 8999 2996 FE01      		movw r30,r28
 9000 2998 3196      		adiw r30,1
 9001               	.LBE1240:
 9002               	.LBE1241:
 9003               	.LBB1242:
 9004               	.LM1327:
 9005 299a AF01      		movw r20,r30
 9006 299c 420F      		add r20,r18
 9007 299e 511D      		adc r21,__zero_reg__
 9008 29a0 9A01      		movw r18,r20
 9009               	.LVL547:
 9010 29a2 00C0      		rjmp .L708
 9011               	.L710:
 9012               	.LM1328:
 9013 29a4 9081      		ld r25,Z
 9014               	.LVL548:
 9015               	.L709:
 9016               	.LBB1243:
 9017               	.LBB1244:
 9018               	.LM1329:
 9019 29a6 8091 B109 		lds r24,2481
 9020 29aa 85FF      		sbrs r24,5
 9021 29ac 00C0      		rjmp .L709
 9022               	.LM1330:
 9023 29ae 9093 B009 		sts 2480,r25
 9024 29b2 3196      		adiw r30,1
 9025               	.LVL549:
 9026               	.L708:
 9027               	.LBE1244:
 9028               	.LBE1243:
 9029               	.LM1331:
 9030 29b4 E217      		cp r30,r18
 9031 29b6 F307      		cpc r31,r19
 9032 29b8 01F4      		brne .L710
 9033 29ba 00C0      		rjmp .L446
 9034               	.LVL550:
 9035               	.L471:
 9036               	.LBE1242:
 9037               	.LM1332:
 9038 29bc 80EB      		ldi r24,lo8(2480)
 9039 29be 99E0      		ldi r25,hi8(2480)
 9040 29c0 0E94 0000 		call uart_getchar_timeout
 9041               	.LVL551:
 9042 29c4 8C01      		movw r16,r24
 9043               	.LVL552:
 9044               	.L711:
 9045               	.LBB1245:
 9046               	.LBB1246:
 9047               	.LM1333:
 9048 29c6 8091 B109 		lds r24,2481
 9049 29ca 85FF      		sbrs r24,5
 9050 29cc 00C0      		rjmp .L711
 9051               	.LM1334:
 9052 29ce 0093 B009 		sts 2480,r16
 9053 29d2 EE24      		clr r14
 9054 29d4 FF24      		clr r15
 9055 29d6 00C0      		rjmp .L712
 9056               	.LVL553:
 9057               	.L719:
 9058               	.LBE1246:
 9059               	.LBE1245:
 9060               	.LBB1247:
 9061               	.LM1335:
 9062 29d8 80EB      		ldi r24,lo8(2480)
 9063 29da 99E0      		ldi r25,hi8(2480)
 9064 29dc 0E94 0000 		call uart_getchar_timeout
 9065 29e0 6C01      		movw r12,r24
 9066               	.LM1336:
 9067 29e2 51E0      		ldi r21,hi8(256)
 9068 29e4 8030      		cpi r24,lo8(256)
 9069 29e6 9507      		cpc r25,r21
 9070 29e8 01F4      		brne .L713
 9071               	.L745:
 9072               	.LBB1248:
 9073               	.LBB1249:
 9074               	.LM1337:
 9075 29ea 8091 B109 		lds r24,2481
 9076 29ee 85FF      		sbrs r24,5
 9077 29f0 00C0      		rjmp .L745
 9078               	.LM1338:
 9079 29f2 8092 B009 		sts 2480,r8
 9080               	.L715:
 9081               	.LBE1249:
 9082               	.LBE1248:
 9083               	.LBB1250:
 9084               	.LBB1251:
 9085               	.LM1339:
 9086 29f6 8091 B109 		lds r24,2481
 9087 29fa 85FF      		sbrs r24,5
 9088 29fc 00C0      		rjmp .L715
 9089               	.LM1340:
 9090 29fe 9092 B009 		sts 2480,r9
 9091               	.L716:
 9092               	.LBE1251:
 9093               	.LBE1250:
 9094               	.LBB1252:
 9095               	.LBB1253:
 9096               	.LM1341:
 9097 2a02 8091 B109 		lds r24,2481
 9098 2a06 85FF      		sbrs r24,5
 9099 2a08 00C0      		rjmp .L716
 9100               	.LVL554:
 9101               	.L1022:
 9102               	.LM1342:
 9103 2a0a 9092 B009 		sts 2480,r9
 9104 2a0e 00C0      		rjmp .L446
 9105               	.LVL555:
 9106               	.L713:
 9107               	.LBE1253:
 9108               	.LBE1252:
 9109               	.LM1343:
 9110 2a10 982F      		mov r25,r24
 9111               	.LVL556:
 9112               	.L717:
 9113               	.LBB1254:
 9114               	.LBB1255:
 9115               	.LM1344:
 9116 2a12 8091 B109 		lds r24,2481
 9117 2a16 85FF      		sbrs r24,5
 9118 2a18 00C0      		rjmp .L717
 9119               	.LM1345:
 9120 2a1a 9093 B009 		sts 2480,r25
 9121               	.L718:
 9122               	.LBE1255:
 9123               	.LBE1254:
 9124               	.LBB1256:
 9125               	.LBB1257:
 9126               	.LM1346:
 9127 2a1e 8091 A108 		lds r24,2209
 9128 2a22 85FF      		sbrs r24,5
 9129 2a24 00C0      		rjmp .L718
 9130               	.LM1347:
 9131 2a26 9093 A008 		sts 2208,r25
 9132               	.LBE1257:
 9133               	.LBE1256:
 9134               	.LM1348:
 9135 2a2a 0894      		sec
 9136 2a2c E11C      		adc r14,__zero_reg__
 9137 2a2e F11C      		adc r15,__zero_reg__
 9138               	.L712:
 9139 2a30 E016      		cp r14,r16
 9140 2a32 F106      		cpc r15,r17
 9141 2a34 00F0      		brlo .L719
 9142               	.LVL557:
 9143               	.L446:
 9144 2a36 80E0      		ldi r24,lo8(0)
 9145 2a38 90E0      		ldi r25,hi8(0)
 9146 2a3a A0E0      		ldi r26,hlo8(0)
 9147 2a3c B0E0      		ldi r27,hhi8(0)
 9148               	.LVL558:
 9149 2a3e 00C0      		rjmp .L486
 9150               	.LVL559:
 9151               	.L444:
 9152 2a40 88A1      		ldd r24,Y+32
 9153 2a42 99A1      		ldd r25,Y+33
 9154 2a44 AAA1      		ldd r26,Y+34
 9155 2a46 BBA1      		ldd r27,Y+35
 9156               	.LVL560:
 9157               	.L486:
 9158               	.LBE1247:
 9159               	.LM1349:
 9160 2a48 28A1      		ldd r18,Y+32
 9161 2a4a 39A1      		ldd r19,Y+33
 9162 2a4c 4AA1      		ldd r20,Y+34
 9163 2a4e 5BA1      		ldd r21,Y+35
 9164 2a50 2158      		subi r18,lo8(33840001)
 9165 2a52 3B45      		sbci r19,hi8(33840001)
 9166 2a54 4440      		sbci r20,hlo8(33840001)
 9167 2a56 5240      		sbci r21,hhi8(33840001)
 9168 2a58 04F0      		brlt .+4
 9169 2a5a 0C94 0000 		jmp .L1021
 9170               	.LVL561:
 9171 2a5e 0C94 0000 		jmp .L720
 9172               	.LFE90:
 9174               	.global	pwm_frequency
 9175               	.global	pwm_frequency
 9176               		.section .bss
 9179               	pwm_frequency:
 9180 0000 0000      		.skip 2,0
 9181               	.global	signal_count
 9182               	.global	signal_count
 9185               	signal_count:
 9186 0002 00        		.skip 1,0
 9187               	.global	ir_read_time_out
 9188               	.global	ir_read_time_out
 9191               	ir_read_time_out:
 9192 0003 00        		.skip 1,0
 9193               	.global	ir_read_flag
 9194               	.global	ir_read_flag
 9197               	ir_read_flag:
 9198 0004 00        		.skip 1,0
 9199               		.comm bt,14,1
 9200               		.comm aux,14,1
 9201               		.comm BT_data,260,1
 9202               		.comm AUX_data,260,1
 9203               		.comm robotData,240,1
 9204               		.comm startUpCounter,2,1
 9205               		.comm bitCounter,1,1
 9206               		.comm onOffTracker,2,1
 9207               		.comm captured_signal,191,1
 9208               		.comm twiMaster,17,1
 9209               		.comm _acc,4,1
 9898               	.Letext0:
DEFINED SYMBOLS
                            *ABS*:00000000 mainFirmware.c
C:\cygwin64\tmp/ccyqI0yR.s:2      *ABS*:0000003f __SREG__
C:\cygwin64\tmp/ccyqI0yR.s:3      *ABS*:0000003e __SP_H__
C:\cygwin64\tmp/ccyqI0yR.s:4      *ABS*:0000003d __SP_L__
C:\cygwin64\tmp/ccyqI0yR.s:5      *ABS*:00000034 __CCP__
C:\cygwin64\tmp/ccyqI0yR.s:6      *ABS*:00000000 __tmp_reg__
C:\cygwin64\tmp/ccyqI0yR.s:7      *ABS*:00000001 __zero_reg__
C:\cygwin64\tmp/ccyqI0yR.s:18     .text:00000000 init_clock
C:\cygwin64\tmp/ccyqI0yR.s:46     .text:00000022 init_led
C:\cygwin64\tmp/ccyqI0yR.s:95     .text:0000005a set_led
C:\cygwin64\tmp/ccyqI0yR.s:122    .text:0000006e init_bt_uart
                            *COM*:00000104 BT_data
C:\cygwin64\tmp/ccyqI0yR.s:185    .text:000000c0 init_aux_uart
                            *COM*:00000104 AUX_data
C:\cygwin64\tmp/ccyqI0yR.s:255    .text:0000011a set_aux_baud_rate
C:\cygwin64\tmp/ccyqI0yR.s:281    .text:00000130 uart_putchar
C:\cygwin64\tmp/ccyqI0yR.s:303    .text:0000013c uart_getchar_nb
C:\cygwin64\tmp/ccyqI0yR.s:341    .text:00000160 uart_getchar
C:\cygwin64\tmp/ccyqI0yR.s:385    .text:00000184 uart_getchar_timeout
C:\cygwin64\tmp/ccyqI0yR.s:490    .text:000001d8 aux_uart_getchar
C:\cygwin64\tmp/ccyqI0yR.s:521    .text:000001f2 serial_bridge
C:\cygwin64\tmp/ccyqI0yR.s:621    .text:00000254 USART_InterruptDriver_Initialize
C:\cygwin64\tmp/ccyqI0yR.s:646    .text:00000264 USART_RXBufferData_Available
C:\cygwin64\tmp/ccyqI0yR.s:675    .text:00000278 USART_RXBuffer_GetByte
C:\cygwin64\tmp/ccyqI0yR.s:704    .text:00000290 USART_RXComplete
C:\cygwin64\tmp/ccyqI0yR.s:764    .text:000002ce __vector_91
C:\cygwin64\tmp/ccyqI0yR.s:826    .text:0000031e __vector_25
C:\cygwin64\tmp/ccyqI0yR.s:888    .text:0000036e init_adc
C:\cygwin64\tmp/ccyqI0yR.s:966    .text:000003c6 read_analog
C:\cygwin64\tmp/ccyqI0yR.s:1007   .text:000003f8 read_internal_temperature
C:\cygwin64\tmp/ccyqI0yR.s:1038   .text:0000041c init_ir
C:\cygwin64\tmp/ccyqI0yR.s:1074   .text:00000442 set_ir50
C:\cygwin64\tmp/ccyqI0yR.s:1107   .text:00000458 set_ir100
C:\cygwin64\tmp/ccyqI0yR.s:1138   .text:0000046a set_ir0
C:\cygwin64\tmp/ccyqI0yR.s:1167   .text:00000478 set_ir_carrier
C:\cygwin64\tmp/ccyqI0yR.s:1198   .text:00000486 start_ir_timer
                            *COM*:00000002 startUpCounter
                            *COM*:00000002 onOffTracker
                            *COM*:00000001 bitCounter
C:\cygwin64\tmp/ccyqI0yR.s:1246   .text:000004ba stop_ir_timer
C:\cygwin64\tmp/ccyqI0yR.s:1283   .text:000004ce __vector_20
                            *COM*:000000f0 robotData
C:\cygwin64\tmp/ccyqI0yR.s:1669   .text:00000742 BT_default_reset
C:\cygwin64\tmp/ccyqI0yR.s:1777   .text:00000792 BT_reset
C:\cygwin64\tmp/ccyqI0yR.s:1828   .text:000007b6 init_BT
C:\cygwin64\tmp/ccyqI0yR.s:1865   .text:000007e4 TWI_MasterInit
C:\cygwin64\tmp/ccyqI0yR.s:1899   .text:00000804 TWI_MasterState
C:\cygwin64\tmp/ccyqI0yR.s:1920   .text:00000812 TWI_MasterReady
C:\cygwin64\tmp/ccyqI0yR.s:1938   .text:0000081a TWI_MasterWriteRead
C:\cygwin64\tmp/ccyqI0yR.s:2071   .text:000008bc TWI_MasterRead
C:\cygwin64\tmp/ccyqI0yR.s:2095   .text:000008ce TWI_MasterWrite
C:\cygwin64\tmp/ccyqI0yR.s:2114   .text:000008da TWI_MasterArbitrationLostBusErrorHandler
C:\cygwin64\tmp/ccyqI0yR.s:2158   .text:00000904 TWI_MasterWriteHandler
C:\cygwin64\tmp/ccyqI0yR.s:2263   .text:0000097c TWI_MasterReadHandler
C:\cygwin64\tmp/ccyqI0yR.s:2361   .text:000009ee TWI_MasterInterruptHandler
C:\cygwin64\tmp/ccyqI0yR.s:2429   .text:00000a34 TWI_MasterTransactionFinished
C:\cygwin64\tmp/ccyqI0yR.s:2447   .text:00000a3c getAccelData
                            *COM*:00000004 _acc
C:\cygwin64\tmp/ccyqI0yR.s:2464   .text:00000a4e newAccelData
                            *COM*:00000011 twiMaster
C:\cygwin64\tmp/ccyqI0yR.s:2495   .text:00000a72 updateAccel
C:\cygwin64\tmp/ccyqI0yR.s:2549   .text:00000aca initAccel
C:\cygwin64\tmp/ccyqI0yR.s:2754   .text:00000c04 __vector_46
C:\cygwin64\tmp/ccyqI0yR.s:2803   .text:00000c50 init_dac
C:\cygwin64\tmp/ccyqI0yR.s:2863   .text:00000c98 set_dac0
C:\cygwin64\tmp/ccyqI0yR.s:2891   .text:00000cb4 set_dac1
C:\cygwin64\tmp/ccyqI0yR.s:2919   .text:00000cd0 disable_dac0
C:\cygwin64\tmp/ccyqI0yR.s:2937   .text:00000cdc disable_dac1
C:\cygwin64\tmp/ccyqI0yR.s:2955   .text:00000ce8 init_buzzer
C:\cygwin64\tmp/ccyqI0yR.s:2985   .text:00000d06 set_buzzer
C:\cygwin64\tmp/ccyqI0yR.s:3022   .text:00000d1e turn_off_buzzer
C:\cygwin64\tmp/ccyqI0yR.s:3046   .text:00000d34 set_pwm
C:\cygwin64\tmp/ccyqI0yR.s:9179   .bss:00000000 pwm_frequency
C:\cygwin64\tmp/ccyqI0yR.s:3073   .text:00000d50 turn_off_pwm0
C:\cygwin64\tmp/ccyqI0yR.s:3091   .text:00000d5c turn_off_pwm1
C:\cygwin64\tmp/ccyqI0yR.s:3109   .text:00000d68 set_pwm0
C:\cygwin64\tmp/ccyqI0yR.s:3142   .text:00000d8c set_pwm1
C:\cygwin64\tmp/ccyqI0yR.s:3175   .text:00000db0 set_output
C:\cygwin64\tmp/ccyqI0yR.s:3358   .text:00000e7e read_input
C:\cygwin64\tmp/ccyqI0yR.s:3603   .text:00000fd6 init_ir_read
C:\cygwin64\tmp/ccyqI0yR.s:9197   .bss:00000004 ir_read_flag
C:\cygwin64\tmp/ccyqI0yR.s:9185   .bss:00000002 signal_count
C:\cygwin64\tmp/ccyqI0yR.s:9191   .bss:00000003 ir_read_time_out
C:\cygwin64\tmp/ccyqI0yR.s:3669   .text:00001032 ir_fail
C:\cygwin64\tmp/ccyqI0yR.s:3719   .text:00001062 disable_ir_read
C:\cygwin64\tmp/ccyqI0yR.s:3745   .text:00001076 dump_data
                            *COM*:000000bf captured_signal
C:\cygwin64\tmp/ccyqI0yR.s:3814   .text:000010c0 __vector_47
C:\cygwin64\tmp/ccyqI0yR.s:3882   .text:00001130 __vector_49
C:\cygwin64\tmp/ccyqI0yR.s:3997   .text:00001200 read_data_from_serial
C:\cygwin64\tmp/ccyqI0yR.s:4103   .text:0000127c EEPROM_ReadByte
C:\cygwin64\tmp/ccyqI0yR.s:4182   .text:000012d6 print_data_from_eeprom
C:\cygwin64\tmp/ccyqI0yR.s:4340   .text:0000139e read_data_from_eeprom
C:\cygwin64\tmp/ccyqI0yR.s:4507   .text:00001484 EEPROM_WaitForNVM
C:\cygwin64\tmp/ccyqI0yR.s:4524   .text:0000148e EEPROM_FlushBuffer
C:\cygwin64\tmp/ccyqI0yR.s:4573   .text:000014c4 EEPROM_WriteByte
C:\cygwin64\tmp/ccyqI0yR.s:4661   .text:0000152e write_data_to_eeprom
C:\cygwin64\tmp/ccyqI0yR.s:4809   .text:00001608 EEPROM_LoadByte
C:\cygwin64\tmp/ccyqI0yR.s:4846   .text:00001626 EEPROM_LoadPage
C:\cygwin64\tmp/ccyqI0yR.s:4893   .text:0000164e EEPROM_AtomicWritePage
C:\cygwin64\tmp/ccyqI0yR.s:4962   .text:00001698 EEPROM_ErasePage
C:\cygwin64\tmp/ccyqI0yR.s:5031   .text:000016e2 EEPROM_SplitWritePage
C:\cygwin64\tmp/ccyqI0yR.s:5100   .text:0000172c EEPROM_EraseAll
C:\cygwin64\tmp/ccyqI0yR.s:5146   .text:0000175a main
                            *COM*:0000000e bt
                            *COM*:0000000e aux

UNDEFINED SYMBOLS
__divmodhi4
__do_clear_bss
