   1               		.file	"mainFirmware.c"
   2               	__SREG__ = 0x3f
   3               	__SP_H__ = 0x3e
   4               	__SP_L__ = 0x3d
   5               	__CCP__  = 0x34
   6               	__tmp_reg__ = 0
   7               	__zero_reg__ = 1
  15               	.Ltext0:
  16               	.global	init_clock
  18               	init_clock:
  19               	.LFB7:
  20               	.LM1:
  21               	/* prologue: function */
  22               	/* frame size = 0 */
  23               	.LM2:
  24 0000 8091 5000 		lds r24,80
  25 0004 8260      		ori r24,lo8(2)
  26 0006 8093 5000 		sts 80,r24
  27               	.L2:
  28               	.LM3:
  29 000a 8091 5100 		lds r24,81
  30 000e 81FF      		sbrs r24,1
  31 0010 00C0      		rjmp .L2
  32               	.LM4:
  33 0012 88ED      		ldi r24,lo8(-40)
  34 0014 84BF      		out 52-0,r24
  35               	.LM5:
  36 0016 8091 4000 		lds r24,64
  37 001a 8160      		ori r24,lo8(1)
  38 001c 8093 4000 		sts 64,r24
  39               	/* epilogue start */
  40               	.LM6:
  41 0020 0895      		ret
  42               	.LFE7:
  44               	.global	init_led
  46               	init_led:
  47               	.LFB8:
  48               	.LM7:
  49               	/* prologue: function */
  50               	/* frame size = 0 */
  51               	.LM8:
  52 0022 A0E0      		ldi r26,lo8(2304)
  53 0024 B9E0      		ldi r27,hi8(2304)
  54 0026 84E0      		ldi r24,lo8(4)
  55 0028 8C93      		st X,r24
  56               	.LM9:
  57 002a 83E7      		ldi r24,lo8(115)
  58 002c 1196      		adiw r26,1
  59 002e 8C93      		st X,r24
  60 0030 1197      		sbiw r26,1
  61               	.LM10:
  62 0032 8FEF      		ldi r24,lo8(-1)
  63 0034 9FEF      		ldi r25,hi8(-1)
  64 0036 D696      		adiw r26,54
  65 0038 8D93      		st X+,r24
  66 003a 9C93      		st X,r25
  67 003c D797      		sbiw r26,54+1
  68               	.LM11:
  69 003e E0E6      		ldi r30,lo8(1632)
  70 0040 F6E0      		ldi r31,hi8(1632)
  71 0042 8181      		ldd r24,Z+1
  72 0044 8760      		ori r24,lo8(7)
  73 0046 8183      		std Z+1,r24
  74               	.LBB362:
  75               	.LBB363:
  76               	.LM12:
  77 0048 8FEF      		ldi r24,lo8(-1)
  78 004a D996      		adiw r26,57
  79 004c 8C93      		st X,r24
  80 004e D997      		sbiw r26,57
  81               	.LM13:
  82 0050 DB96      		adiw r26,59
  83 0052 8C93      		st X,r24
  84               	.LM14:
  85 0054 8093 3D09 		sts 2365,r24
  86               	/* epilogue start */
  87               	.LBE363:
  88               	.LBE362:
  89               	.LM15:
  90 0058 0895      		ret
  91               	.LFE8:
  93               	.global	set_led
  95               	set_led:
  96               	.LFB9:
  97               	.LM16:
  98               	.LVL0:
  99               	/* prologue: function */
 100               	/* frame size = 0 */
 101               	.LM17:
 102 005a 8095      		com r24
 103               	.LVL1:
 104 005c E0E0      		ldi r30,lo8(2304)
 105 005e F9E0      		ldi r31,hi8(2304)
 106 0060 81AF      		std Z+57,r24
 107               	.LM18:
 108 0062 4095      		com r20
 109               	.LVL2:
 110 0064 43AF      		std Z+59,r20
 111               	.LM19:
 112 0066 6095      		com r22
 113               	.LVL3:
 114 0068 6093 3D09 		sts 2365,r22
 115               	/* epilogue start */
 116               	.LM20:
 117 006c 0895      		ret
 118               	.LFE9:
 120               	.global	init_bt_uart
 122               	init_bt_uart:
 123               	.LFB10:
 124               	.LM21:
 125               	/* prologue: function */
 126               	/* frame size = 0 */
 127               	.LM22:
 128 006e E0E6      		ldi r30,lo8(1632)
 129 0070 F6E0      		ldi r31,hi8(1632)
 130 0072 80E8      		ldi r24,lo8(-128)
 131 0074 8183      		std Z+1,r24
 132               	.LM23:
 133 0076 80E4      		ldi r24,lo8(64)
 134 0078 8283      		std Z+2,r24
 135               	.LM24:
 136 007a E0EB      		ldi r30,lo8(2480)
 137 007c F9E0      		ldi r31,hi8(2480)
 138 007e 83E0      		ldi r24,lo8(3)
 139 0080 8583      		std Z+5,r24
 140               	.LBB364:
 141               	.LBB365:
 142               	.LM25:
 143 0082 E093 0000 		sts BT_data,r30
 144 0086 F093 0000 		sts (BT_data)+1,r31
 145               	.LM26:
 146 008a 1092 0000 		sts BT_data+259,__zero_reg__
 147               	.LM27:
 148 008e 1092 0000 		sts BT_data+258,__zero_reg__
 149               	.LBE365:
 150               	.LBE364:
 151               	.LM28:
 152 0092 8381      		ldd r24,Z+3
 153 0094 8F7C      		andi r24,lo8(-49)
 154 0096 8062      		ori r24,lo8(32)
 155 0098 8383      		std Z+3,r24
 156               	.LM29:
 157 009a A0EA      		ldi r26,lo8(160)
 158 009c B0E0      		ldi r27,hi8(160)
 159 009e 1296      		adiw r26,2
 160 00a0 8C91      		ld r24,X
 161 00a2 1297      		sbiw r26,2
 162 00a4 8260      		ori r24,lo8(2)
 163 00a6 1296      		adiw r26,2
 164 00a8 8C93      		st X,r24
 165               	.LM30:
 166 00aa 83E8      		ldi r24,lo8(-125)
 167 00ac 8683      		std Z+6,r24
 168 00ae 80ED      		ldi r24,lo8(-48)
 169 00b0 8783      		std Z+7,r24
 170               	.LM31:
 171 00b2 8481      		ldd r24,Z+4
 172 00b4 8061      		ori r24,lo8(16)
 173 00b6 8483      		std Z+4,r24
 174               	.LM32:
 175 00b8 8481      		ldd r24,Z+4
 176 00ba 8860      		ori r24,lo8(8)
 177 00bc 8483      		std Z+4,r24
 178               	/* epilogue start */
 179               	.LM33:
 180 00be 0895      		ret
 181               	.LFE10:
 183               	.global	init_aux_uart
 185               	init_aux_uart:
 186               	.LFB11:
 187               	.LM34:
 188               	.LVL4:
 189               	/* prologue: function */
 190               	/* frame size = 0 */
 191               	.LM35:
 192 00c0 E0E4      		ldi r30,lo8(1600)
 193 00c2 F6E0      		ldi r31,hi8(1600)
 194 00c4 28E0      		ldi r18,lo8(8)
 195 00c6 2183      		std Z+1,r18
 196               	.LM36:
 197 00c8 24E0      		ldi r18,lo8(4)
 198 00ca 2283      		std Z+2,r18
 199               	.LM37:
 200 00cc E0EA      		ldi r30,lo8(2208)
 201 00ce F8E0      		ldi r31,hi8(2208)
 202 00d0 23E0      		ldi r18,lo8(3)
 203 00d2 2583      		std Z+5,r18
 204               	.LBB366:
 205               	.LBB367:
 206               	.LM38:
 207 00d4 E093 0000 		sts AUX_data,r30
 208 00d8 F093 0000 		sts (AUX_data)+1,r31
 209               	.LM39:
 210 00dc 1092 0000 		sts AUX_data+259,__zero_reg__
 211               	.LM40:
 212 00e0 1092 0000 		sts AUX_data+258,__zero_reg__
 213               	.LBE367:
 214               	.LBE366:
 215               	.LM41:
 216 00e4 2381      		ldd r18,Z+3
 217 00e6 2F7C      		andi r18,lo8(-49)
 218 00e8 2062      		ori r18,lo8(32)
 219 00ea 2383      		std Z+3,r18
 220               	.LM42:
 221 00ec A0EA      		ldi r26,lo8(160)
 222 00ee B0E0      		ldi r27,hi8(160)
 223 00f0 1296      		adiw r26,2
 224 00f2 2C91      		ld r18,X
 225 00f4 1297      		sbiw r26,2
 226 00f6 2260      		ori r18,lo8(2)
 227 00f8 1296      		adiw r26,2
 228 00fa 2C93      		st X,r18
 229               	.LM43:
 230 00fc 8683      		std Z+6,r24
 231 00fe 6295      		swap r22
 232               	.LVL5:
 233 0100 607F      		andi r22,lo8(-16)
 234 0102 892F      		mov r24,r25
 235 0104 990F      		lsl r25
 236 0106 990B      		sbc r25,r25
 237               	.LVL6:
 238 0108 682B      		or r22,r24
 239 010a 6783      		std Z+7,r22
 240               	.LM44:
 241 010c 8481      		ldd r24,Z+4
 242 010e 8061      		ori r24,lo8(16)
 243 0110 8483      		std Z+4,r24
 244               	.LM45:
 245 0112 8481      		ldd r24,Z+4
 246 0114 8860      		ori r24,lo8(8)
 247 0116 8483      		std Z+4,r24
 248               	/* epilogue start */
 249               	.LM46:
 250 0118 0895      		ret
 251               	.LFE11:
 253               	.global	set_aux_baud_rate
 255               	set_aux_baud_rate:
 256               	.LFB12:
 257               	.LM47:
 258               	.LVL7:
 259               	/* prologue: function */
 260               	/* frame size = 0 */
 261               	.LM48:
 262 011a 2091 0000 		lds r18,AUX_data+258
 263 011e 2093 0000 		sts AUX_data+259,r18
 264               	.LM49:
 265 0122 E0EA      		ldi r30,lo8(2208)
 266 0124 F8E0      		ldi r31,hi8(2208)
 267 0126 8683      		std Z+6,r24
 268 0128 6295      		swap r22
 269               	.LVL8:
 270 012a 607F      		andi r22,lo8(-16)
 271 012c 892F      		mov r24,r25
 272 012e 990F      		lsl r25
 273 0130 990B      		sbc r25,r25
 274               	.LVL9:
 275 0132 682B      		or r22,r24
 276 0134 6783      		std Z+7,r22
 277               	/* epilogue start */
 278               	.LM50:
 279 0136 0895      		ret
 280               	.LFE12:
 282               	.global	uart_putchar
 284               	uart_putchar:
 285               	.LFB13:
 286               	.LM51:
 287               	.LVL10:
 288               	/* prologue: function */
 289               	/* frame size = 0 */
 290 0138 FC01      		movw r30,r24
 291               	.LVL11:
 292               	.L16:
 293               	.LM52:
 294 013a 8181      		ldd r24,Z+1
 295 013c 85FF      		sbrs r24,5
 296 013e 00C0      		rjmp .L16
 297               	.LM53:
 298 0140 6083      		st Z,r22
 299               	/* epilogue start */
 300               	.LM54:
 301 0142 0895      		ret
 302               	.LFE13:
 304               	.global	uart_getchar_nb
 306               	uart_getchar_nb:
 307               	.LFB14:
 308               	.LM55:
 309               	.LVL12:
 310               	/* prologue: function */
 311               	/* frame size = 0 */
 312 0144 FC01      		movw r30,r24
 313               	.LM56:
 314 0146 28EE      		ldi r18,lo8(1000)
 315 0148 33E0      		ldi r19,hi8(1000)
 316               	.LVL13:
 317               	.L21:
 318               	.LM57:
 319 014a 2150      		subi r18,lo8(-(-1))
 320 014c 3040      		sbci r19,hi8(-(-1))
 321               	.LM58:
 322 014e 8181      		ldd r24,Z+1
 323 0150 87FD      		sbrc r24,7
 324 0152 00C0      		rjmp .L20
 325 0154 2115      		cp r18,__zero_reg__
 326 0156 3105      		cpc r19,__zero_reg__
 327 0158 01F4      		brne .L21
 328 015a 00C0      		rjmp .L22
 329               	.L20:
 330               	.LM59:
 331 015c 232B      		or r18,r19
 332 015e 01F0      		breq .L22
 333               	.LM60:
 334 0160 8081      		ld r24,Z
 335 0162 0895      		ret
 336               	.L22:
 337 0164 80E0      		ldi r24,lo8(0)
 338               	.LM61:
 339 0166 0895      		ret
 340               	.LFE14:
 342               	.global	uart_getchar
 344               	uart_getchar:
 345               	.LFB15:
 346               	.LM62:
 347               	/* prologue: function */
 348               	/* frame size = 0 */
 349               	.LVL14:
 350               	.L27:
 351               	.LBB368:
 352               	.LBB369:
 353               	.LM63:
 354 0168 9091 0000 		lds r25,BT_data+258
 355               	.LVL15:
 356               	.LM64:
 357 016c 8091 0000 		lds r24,BT_data+259
 358               	.LVL16:
 359               	.LBE369:
 360               	.LBE368:
 361               	.LM65:
 362 0170 9817      		cp r25,r24
 363 0172 01F0      		breq .L27
 364               	.LBB370:
 365               	.LBB371:
 366               	.LM66:
 367 0174 E091 0000 		lds r30,BT_data+259
 368 0178 F0E0      		ldi r31,lo8(0)
 369 017a E050      		subi r30,lo8(-(BT_data))
 370 017c F040      		sbci r31,hi8(-(BT_data))
 371 017e 8281      		ldd r24,Z+2
 372               	.LVL17:
 373               	.LM67:
 374 0180 9091 0000 		lds r25,BT_data+259
 375               	.LVL18:
 376 0184 9F5F      		subi r25,lo8(-(1))
 377 0186 9093 0000 		sts BT_data+259,r25
 378               	.LVL19:
 379               	/* epilogue start */
 380               	.LBE371:
 381               	.LBE370:
 382               	.LM68:
 383 018a 0895      		ret
 384               	.LFE15:
 386               	.global	uart_getchar_timeout
 388               	uart_getchar_timeout:
 389               	.LFB16:
 390               	.LM69:
 391               	.LVL20:
 392               	/* prologue: function */
 393               	/* frame size = 0 */
 394               	.LM70:
 395 018c 20E0      		ldi r18,lo8(0)
 396 018e 30E0      		ldi r19,hi8(0)
 397               	.LVL21:
 398               	.LBB372:
 399               	.LBB373:
 400               	.LBB374:
 401               	.LBB375:
 402               	.LM71:
 403 0190 40E4      		ldi r20,lo8(8000)
 404 0192 5FE1      		ldi r21,hi8(8000)
 405 0194 00C0      		rjmp .L31
 406               	.LVL22:
 407               	.L33:
 408               	.LBE375:
 409               	.LBE374:
 410               	.LBE373:
 411               	.LBE372:
 412               	.LM72:
 413 0196 2F5F      		subi r18,lo8(-(1))
 414 0198 3F4F      		sbci r19,hi8(-(1))
 415               	.LBB379:
 416               	.LBB378:
 417               	.LBB377:
 418               	.LBB376:
 419               	.LM73:
 420 019a CA01      		movw r24,r20
 421               	.LVL23:
 422               	/* #APP */
 423               	 ;  105 "c:/winavr-20100110/lib/gcc/../../avr/include/util/delay_basic.h" 1
 424 019c 0197      		1: sbiw r24,1
 425 019e 01F4      		brne 1b
 426               	 ;  0 "" 2
 427               	.LVL24:
 428               	/* #NOAPP */
 429               	.L31:
 430               	.LBE376:
 431               	.LBE377:
 432               	.LBE378:
 433               	.LBE379:
 434               	.LBB380:
 435               	.LBB381:
 436               	.LM74:
 437 01a0 9091 0000 		lds r25,BT_data+258
 438               	.LM75:
 439 01a4 8091 0000 		lds r24,BT_data+259
 440               	.LVL25:
 441               	.LBE381:
 442               	.LBE380:
 443               	.LM76:
 444 01a8 9817      		cp r25,r24
 445 01aa 01F4      		brne .L32
 446 01ac 81E0      		ldi r24,hi8(500)
 447 01ae 243F      		cpi r18,lo8(500)
 448 01b0 3807      		cpc r19,r24
 449               	.LVL26:
 450 01b2 01F4      		brne .L33
 451 01b4 00C0      		rjmp .L34
 452               	.LVL27:
 453               	.L32:
 454               	.LM77:
 455 01b6 245F      		subi r18,lo8(500)
 456 01b8 3140      		sbci r19,hi8(500)
 457               	.LVL28:
 458 01ba 04F4      		brge .L34
 459               	.LBB382:
 460               	.LBB383:
 461               	.LM78:
 462 01bc E091 0000 		lds r30,BT_data+259
 463 01c0 F0E0      		ldi r31,lo8(0)
 464 01c2 E050      		subi r30,lo8(-(BT_data))
 465 01c4 F040      		sbci r31,hi8(-(BT_data))
 466 01c6 9281      		ldd r25,Z+2
 467               	.LVL29:
 468               	.LM79:
 469 01c8 8091 0000 		lds r24,BT_data+259
 470 01cc 8F5F      		subi r24,lo8(-(1))
 471 01ce 8093 0000 		sts BT_data+259,r24
 472               	.LBE383:
 473               	.LBE382:
 474               	.LM80:
 475 01d2 292F      		mov r18,r25
 476               	.LVL30:
 477 01d4 30E0      		ldi r19,lo8(0)
 478 01d6 00C0      		rjmp .L35
 479               	.LVL31:
 480               	.L34:
 481 01d8 20E0      		ldi r18,lo8(256)
 482 01da 31E0      		ldi r19,hi8(256)
 483               	.LVL32:
 484               	.L35:
 485               	.LM81:
 486 01dc C901      		movw r24,r18
 487               	/* epilogue start */
 488 01de 0895      		ret
 489               	.LFE16:
 491               	.global	aux_uart_getchar
 493               	aux_uart_getchar:
 494               	.LFB17:
 495               	.LM82:
 496               	.LVL33:
 497               	/* prologue: function */
 498               	/* frame size = 0 */
 499               	.LBB384:
 500               	.LBB385:
 501               	.LM83:
 502 01e0 8091 0000 		lds r24,AUX_data+259
 503               	.LVL34:
 504 01e4 E0E0      		ldi r30,lo8(AUX_data)
 505 01e6 F0E0      		ldi r31,hi8(AUX_data)
 506 01e8 E80F      		add r30,r24
 507 01ea F11D      		adc r31,__zero_reg__
 508 01ec 8281      		ldd r24,Z+2
 509               	.LVL35:
 510               	.LM84:
 511 01ee 9091 0000 		lds r25,AUX_data+259
 512 01f2 9F5F      		subi r25,lo8(-(1))
 513 01f4 9093 0000 		sts AUX_data+259,r25
 514               	.LVL36:
 515               	/* epilogue start */
 516               	.LBE385:
 517               	.LBE384:
 518               	.LM85:
 519 01f8 0895      		ret
 520               	.LFE17:
 522               	.global	serial_bridge
 524               	serial_bridge:
 525               	.LFB18:
 526               	.LM86:
 527               	/* prologue: function */
 528               	/* frame size = 0 */
 529 01fa 00C0      		rjmp .L49
 530               	.LVL37:
 531               	.L42:
 532               	.LBB386:
 533               	.LBB387:
 534               	.LM87:
 535 01fc E091 0000 		lds r30,AUX_data+259
 536 0200 F0E0      		ldi r31,lo8(0)
 537 0202 E050      		subi r30,lo8(-(AUX_data))
 538 0204 F040      		sbci r31,hi8(-(AUX_data))
 539 0206 9281      		ldd r25,Z+2
 540               	.LVL38:
 541               	.LM88:
 542 0208 8091 0000 		lds r24,AUX_data+259
 543               	.LVL39:
 544 020c 8F5F      		subi r24,lo8(-(1))
 545 020e 8093 0000 		sts AUX_data+259,r24
 546               	.L41:
 547               	.LBE387:
 548               	.LBE386:
 549               	.LBB388:
 550               	.LBB389:
 551               	.LM89:
 552 0212 8091 B109 		lds r24,2481
 553 0216 85FF      		sbrs r24,5
 554 0218 00C0      		rjmp .L41
 555               	.LM90:
 556 021a 9093 B009 		sts 2480,r25
 557               	.LVL40:
 558               	.L49:
 559               	.LBE389:
 560               	.LBE388:
 561               	.LBB390:
 562               	.LBB391:
 563               	.LM91:
 564 021e 9091 0000 		lds r25,AUX_data+258
 565               	.LVL41:
 566               	.LM92:
 567 0222 8091 0000 		lds r24,AUX_data+259
 568               	.LVL42:
 569               	.LBE391:
 570               	.LBE390:
 571               	.LM93:
 572 0226 9817      		cp r25,r24
 573 0228 01F4      		brne .L42
 574 022a 00C0      		rjmp .L50
 575               	.LVL43:
 576               	.L51:
 577               	.LBB392:
 578               	.LBB393:
 579               	.LM94:
 580 022c E091 0000 		lds r30,BT_data+259
 581 0230 F0E0      		ldi r31,lo8(0)
 582 0232 E050      		subi r30,lo8(-(BT_data))
 583 0234 F040      		sbci r31,hi8(-(BT_data))
 584 0236 9281      		ldd r25,Z+2
 585               	.LVL44:
 586               	.LM95:
 587 0238 8091 0000 		lds r24,BT_data+259
 588               	.LVL45:
 589 023c 8F5F      		subi r24,lo8(-(1))
 590 023e 8093 0000 		sts BT_data+259,r24
 591               	.L44:
 592               	.LBE393:
 593               	.LBE392:
 594               	.LBB394:
 595               	.LBB395:
 596               	.LM96:
 597 0242 8091 A108 		lds r24,2209
 598 0246 85FF      		sbrs r24,5
 599 0248 00C0      		rjmp .L44
 600               	.LM97:
 601 024a 9093 A008 		sts 2208,r25
 602               	.LVL46:
 603               	.L50:
 604               	.LBE395:
 605               	.LBE394:
 606               	.LBB396:
 607               	.LBB397:
 608               	.LM98:
 609 024e 9091 0000 		lds r25,BT_data+258
 610               	.LVL47:
 611               	.LM99:
 612 0252 8091 0000 		lds r24,BT_data+259
 613               	.LVL48:
 614               	.LBE397:
 615               	.LBE396:
 616               	.LM100:
 617 0256 9817      		cp r25,r24
 618 0258 01F0      		breq .L49
 619 025a 00C0      		rjmp .L51
 620               	.LFE18:
 622               	.global	USART_InterruptDriver_Initialize
 624               	USART_InterruptDriver_Initialize:
 625               	.LFB19:
 626               	.LM101:
 627               	.LVL49:
 628               	/* prologue: function */
 629               	/* frame size = 0 */
 630 025c FC01      		movw r30,r24
 631               	.LM102:
 632 025e 6083      		st Z,r22
 633 0260 7183      		std Z+1,r23
 634               	.LM103:
 635 0262 ED5F      		subi r30,lo8(-(259))
 636 0264 FE4F      		sbci r31,hi8(-(259))
 637               	.LVL50:
 638 0266 1082      		st Z,__zero_reg__
 639               	.LM104:
 640 0268 1292      		st -Z,__zero_reg__
 641               	.LVL51:
 642               	/* epilogue start */
 643               	.LM105:
 644 026a 0895      		ret
 645               	.LFE19:
 647               	.global	USART_RXBufferData_Available
 649               	USART_RXBufferData_Available:
 650               	.LFB20:
 651               	.LM106:
 652               	.LVL52:
 653               	/* prologue: function */
 654               	/* frame size = 0 */
 655 026c FC01      		movw r30,r24
 656               	.LM107:
 657 026e EE5F      		subi r30,lo8(-(258))
 658 0270 FE4F      		sbci r31,hi8(-(258))
 659               	.LVL53:
 660 0272 9191      		ld r25,Z+
 661               	.LVL54:
 662               	.LM108:
 663 0274 8081      		ld r24,Z
 664               	.LVL55:
 665 0276 20E0      		ldi r18,lo8(0)
 666 0278 9813      		cpse r25,r24
 667 027a 21E0      		ldi r18,lo8(1)
 668               	.L55:
 669               	.LM109:
 670 027c 822F      		mov r24,r18
 671               	.LVL56:
 672               	/* epilogue start */
 673 027e 0895      		ret
 674               	.LFE20:
 676               	.global	USART_RXBuffer_GetByte
 678               	USART_RXBuffer_GetByte:
 679               	.LFB21:
 680               	.LM110:
 681               	.LVL57:
 682               	/* prologue: function */
 683               	/* frame size = 0 */
 684 0280 FC01      		movw r30,r24
 685               	.LM111:
 686 0282 DC01      		movw r26,r24
 687 0284 AD5F      		subi r26,lo8(-(259))
 688 0286 BE4F      		sbci r27,hi8(-(259))
 689 0288 8C91      		ld r24,X
 690               	.LVL58:
 691 028a E80F      		add r30,r24
 692 028c F11D      		adc r31,__zero_reg__
 693 028e 8281      		ldd r24,Z+2
 694               	.LVL59:
 695               	.LM112:
 696 0290 9C91      		ld r25,X
 697 0292 9F5F      		subi r25,lo8(-(1))
 698 0294 9C93      		st X,r25
 699               	.LVL60:
 700               	/* epilogue start */
 701               	.LM113:
 702 0296 0895      		ret
 703               	.LFE21:
 705               	.global	USART_RXComplete
 707               	USART_RXComplete:
 708               	.LFB22:
 709               	.LM114:
 710               	.LVL61:
 711 0298 CF93      		push r28
 712 029a DF93      		push r29
 713               	/* prologue: function */
 714               	/* frame size = 0 */
 715 029c DC01      		movw r26,r24
 716               	.LM115:
 717 029e EC01      		movw r28,r24
 718 02a0 CE5F      		subi r28,lo8(-(258))
 719 02a2 DE4F      		sbci r29,hi8(-(258))
 720 02a4 9881      		ld r25,Y
 721               	.LVL62:
 722 02a6 9F5F      		subi r25,lo8(-(1))
 723               	.LM116:
 724 02a8 AD5F      		subi r26,lo8(-(259))
 725 02aa BE4F      		sbci r27,hi8(-(259))
 726               	.LVL63:
 727 02ac 8C91      		ld r24,X
 728               	.LVL64:
 729 02ae A350      		subi r26,lo8(-(-259))
 730 02b0 B140      		sbci r27,hi8(-(-259))
 731               	.LM117:
 732 02b2 ED91      		ld r30,X+
 733 02b4 FC91      		ld r31,X
 734 02b6 1197      		sbiw r26,1
 735 02b8 E081      		ld r30,Z
 736               	.LVL65:
 737               	.LM118:
 738 02ba 9817      		cp r25,r24
 739 02bc 01F4      		brne .L60
 740 02be 80E0      		ldi r24,lo8(0)
 741               	.LVL66:
 742 02c0 00C0      		rjmp .L61
 743               	.LVL67:
 744               	.L60:
 745               	.LM119:
 746 02c2 8881      		ld r24,Y
 747               	.LVL68:
 748 02c4 A80F      		add r26,r24
 749 02c6 B11D      		adc r27,__zero_reg__
 750 02c8 1296      		adiw r26,2
 751 02ca EC93      		st X,r30
 752               	.LM120:
 753 02cc 9883      		st Y,r25
 754 02ce 81E0      		ldi r24,lo8(1)
 755               	.LVL69:
 756               	.L61:
 757               	.LVL70:
 758               	/* epilogue start */
 759               	.LM121:
 760 02d0 DF91      		pop r29
 761 02d2 CF91      		pop r28
 762 02d4 0895      		ret
 763               	.LFE22:
 765               	.global	err
 767               	err:
 768               	.LFB23:
 769               	.LM122:
 770               	/* prologue: function */
 771               	/* frame size = 0 */
 772               	.L64:
 773               	.LBB398:
 774               	.LBB399:
 775               	.LM123:
 776 02d6 8091 B109 		lds r24,2481
 777 02da 85FF      		sbrs r24,5
 778 02dc 00C0      		rjmp .L64
 779               	.LM124:
 780 02de 85E4      		ldi r24,lo8(69)
 781 02e0 8093 B009 		sts 2480,r24
 782               	.L65:
 783               	.LBE399:
 784               	.LBE398:
 785               	.LBB400:
 786               	.LBB401:
 787               	.LM125:
 788 02e4 8091 B109 		lds r24,2481
 789 02e8 85FF      		sbrs r24,5
 790 02ea 00C0      		rjmp .L65
 791               	.LM126:
 792 02ec 82E5      		ldi r24,lo8(82)
 793 02ee 8093 B009 		sts 2480,r24
 794               	.L66:
 795               	.LBE401:
 796               	.LBE400:
 797               	.LBB402:
 798               	.LBB403:
 799               	.LM127:
 800 02f2 8091 B109 		lds r24,2481
 801 02f6 85FF      		sbrs r24,5
 802 02f8 00C0      		rjmp .L66
 803               	.LM128:
 804 02fa 82E5      		ldi r24,lo8(82)
 805 02fc 8093 B009 		sts 2480,r24
 806               	/* epilogue start */
 807               	.LBE403:
 808               	.LBE402:
 809               	.LM129:
 810 0300 0895      		ret
 811               	.LFE23:
 813               	.global	__vector_91
 815               	__vector_91:
 816               	.LFB24:
 817               	.LM130:
 818 0302 1F92      		push __zero_reg__
 819 0304 0F92      		push r0
 820 0306 0FB6      		in r0,__SREG__
 821 0308 0F92      		push r0
 822 030a 1124      		clr __zero_reg__
 823 030c 2F93      		push r18
 824 030e 8F93      		push r24
 825 0310 9F93      		push r25
 826 0312 EF93      		push r30
 827 0314 FF93      		push r31
 828               	/* prologue: Signal */
 829               	/* frame size = 0 */
 830               	.LBB404:
 831               	.LBB405:
 832               	.LM131:
 833 0316 9091 0000 		lds r25,BT_data+258
 834               	.LVL71:
 835 031a 9F5F      		subi r25,lo8(-(1))
 836               	.LM132:
 837 031c 8091 0000 		lds r24,BT_data+259
 838               	.LVL72:
 839               	.LM133:
 840 0320 E091 0000 		lds r30,BT_data
 841 0324 F091 0000 		lds r31,(BT_data)+1
 842 0328 2081      		ld r18,Z
 843               	.LVL73:
 844               	.LM134:
 845 032a 9817      		cp r25,r24
 846 032c 01F0      		breq .L73
 847               	.LM135:
 848 032e E091 0000 		lds r30,BT_data+258
 849 0332 F0E0      		ldi r31,lo8(0)
 850 0334 E050      		subi r30,lo8(-(BT_data))
 851 0336 F040      		sbci r31,hi8(-(BT_data))
 852 0338 2283      		std Z+2,r18
 853               	.LM136:
 854 033a 9093 0000 		sts BT_data+258,r25
 855               	.L73:
 856               	/* epilogue start */
 857               	.LBE405:
 858               	.LBE404:
 859               	.LM137:
 860 033e FF91      		pop r31
 861 0340 EF91      		pop r30
 862 0342 9F91      		pop r25
 863               	.LVL74:
 864 0344 8F91      		pop r24
 865               	.LVL75:
 866 0346 2F91      		pop r18
 867               	.LVL76:
 868 0348 0F90      		pop r0
 869 034a 0FBE      		out __SREG__,r0
 870 034c 0F90      		pop r0
 871 034e 1F90      		pop __zero_reg__
 872 0350 1895      		reti
 873               	.LFE24:
 875               	.global	__vector_25
 877               	__vector_25:
 878               	.LFB25:
 879               	.LM138:
 880 0352 1F92      		push __zero_reg__
 881 0354 0F92      		push r0
 882 0356 0FB6      		in r0,__SREG__
 883 0358 0F92      		push r0
 884 035a 1124      		clr __zero_reg__
 885 035c 2F93      		push r18
 886 035e 8F93      		push r24
 887 0360 9F93      		push r25
 888 0362 EF93      		push r30
 889 0364 FF93      		push r31
 890               	/* prologue: Signal */
 891               	/* frame size = 0 */
 892               	.LBB406:
 893               	.LBB407:
 894               	.LM139:
 895 0366 9091 0000 		lds r25,AUX_data+258
 896               	.LVL77:
 897 036a 9F5F      		subi r25,lo8(-(1))
 898               	.LM140:
 899 036c 8091 0000 		lds r24,AUX_data+259
 900               	.LVL78:
 901               	.LM141:
 902 0370 E091 0000 		lds r30,AUX_data
 903 0374 F091 0000 		lds r31,(AUX_data)+1
 904 0378 2081      		ld r18,Z
 905               	.LVL79:
 906               	.LM142:
 907 037a 9817      		cp r25,r24
 908 037c 01F0      		breq .L76
 909               	.LM143:
 910 037e E091 0000 		lds r30,AUX_data+258
 911 0382 F0E0      		ldi r31,lo8(0)
 912 0384 E050      		subi r30,lo8(-(AUX_data))
 913 0386 F040      		sbci r31,hi8(-(AUX_data))
 914 0388 2283      		std Z+2,r18
 915               	.LM144:
 916 038a 9093 0000 		sts AUX_data+258,r25
 917               	.L76:
 918               	/* epilogue start */
 919               	.LBE407:
 920               	.LBE406:
 921               	.LM145:
 922 038e FF91      		pop r31
 923 0390 EF91      		pop r30
 924 0392 9F91      		pop r25
 925               	.LVL80:
 926 0394 8F91      		pop r24
 927               	.LVL81:
 928 0396 2F91      		pop r18
 929               	.LVL82:
 930 0398 0F90      		pop r0
 931 039a 0FBE      		out __SREG__,r0
 932 039c 0F90      		pop r0
 933 039e 1F90      		pop __zero_reg__
 934 03a0 1895      		reti
 935               	.LFE25:
 937               	.global	init_adc
 939               	init_adc:
 940               	.LFB26:
 941               	.LM146:
 942 03a2 CF93      		push r28
 943 03a4 DF93      		push r29
 944               	/* prologue: function */
 945               	/* frame size = 0 */
 946               	.LM147:
 947 03a6 E0E0      		ldi r30,lo8(512)
 948 03a8 F2E0      		ldi r31,hi8(512)
 949 03aa 8181      		ldd r24,Z+1
 950 03ac 897E      		andi r24,lo8(-23)
 951 03ae 8460      		ori r24,lo8(4)
 952 03b0 8183      		std Z+1,r24
 953               	.LM148:
 954 03b2 8481      		ldd r24,Z+4
 955 03b4 8760      		ori r24,lo8(7)
 956 03b6 8483      		std Z+4,r24
 957               	.LM149:
 958 03b8 8281      		ldd r24,Z+2
 959 03ba 8063      		ori r24,lo8(48)
 960 03bc 8283      		std Z+2,r24
 961               	.LM150:
 962 03be 28E2      		ldi r18,lo8(552)
 963 03c0 32E0      		ldi r19,hi8(552)
 964 03c2 D901      		movw r26,r18
 965 03c4 8C91      		ld r24,X
 966 03c6 807E      		andi r24,lo8(-32)
 967 03c8 8C93      		st X,r24
 968               	.LM151:
 969 03ca A0E3      		ldi r26,lo8(560)
 970 03cc B2E0      		ldi r27,hi8(560)
 971 03ce 8C91      		ld r24,X
 972 03d0 807E      		andi r24,lo8(-32)
 973 03d2 8160      		ori r24,lo8(1)
 974 03d4 8C93      		st X,r24
 975               	.LM152:
 976 03d6 E901      		movw r28,r18
 977 03d8 1982      		std Y+1,__zero_reg__
 978               	.LM153:
 979 03da 88E3      		ldi r24,lo8(56)
 980 03dc 1196      		adiw r26,1
 981 03de 8C93      		st X,r24
 982               	.LM154:
 983 03e0 8281      		ldd r24,Z+2
 984 03e2 8160      		ori r24,lo8(1)
 985 03e4 8283      		std Z+2,r24
 986               	.LM155:
 987 03e6 8081      		ld r24,Z
 988 03e8 8160      		ori r24,lo8(1)
 989 03ea 8083      		st Z,r24
 990               	.LBB408:
 991               	.LBB409:
 992               	.LBB410:
 993               	.LBB411:
 994               	.LM156:
 995 03ec 80E4      		ldi r24,lo8(8000)
 996 03ee 9FE1      		ldi r25,hi8(8000)
 997               	.LVL83:
 998               	/* #APP */
 999               	 ;  105 "c:/winavr-20100110/lib/gcc/../../avr/include/util/delay_basic.h" 1
 1000 03f0 0197      		1: sbiw r24,1
 1001 03f2 01F4      		brne 1b
 1002               	 ;  0 "" 2
 1003               	/* epilogue start */
 1004               	/* #NOAPP */
 1005               	.LBE411:
 1006               	.LBE410:
 1007               	.LBE409:
 1008               	.LBE408:
 1009               	.LM157:
 1010 03f4 DF91      		pop r29
 1011 03f6 CF91      		pop r28
 1012 03f8 0895      		ret
 1013               	.LFE26:
 1015               	.global	read_analog
 1017               	read_analog:
 1018               	.LFB27:
 1019               	.LM158:
 1020               	.LVL84:
 1021               	/* prologue: function */
 1022               	/* frame size = 0 */
 1023               	.LM159:
 1024 03fa E0E3      		ldi r30,lo8(560)
 1025 03fc F2E0      		ldi r31,hi8(560)
 1026 03fe 8183      		std Z+1,r24
 1027               	.LM160:
 1028 0400 8091 3002 		lds r24,560
 1029               	.LVL85:
 1030 0404 8068      		ori r24,lo8(-128)
 1031 0406 E0E0      		ldi r30,lo8(512)
 1032 0408 F2E0      		ldi r31,hi8(512)
 1033 040a 80AB      		std Z+48,r24
 1034               	.L81:
 1035               	.LM161:
 1036 040c 8091 3302 		lds r24,563
 1037 0410 80FD      		sbrc r24,0
 1038 0412 00C0      		rjmp .L80
 1039 0414 8091 0602 		lds r24,518
 1040 0418 82FF      		sbrs r24,2
 1041 041a 00C0      		rjmp .L81
 1042               	.L80:
 1043               	.LM162:
 1044 041c 81E0      		ldi r24,lo8(1)
 1045 041e E0E0      		ldi r30,lo8(512)
 1046 0420 F2E0      		ldi r31,hi8(512)
 1047 0422 83AB      		std Z+51,r24
 1048               	.LM163:
 1049 0424 8091 3402 		lds r24,564
 1050               	.LM164:
 1051 0428 90E0      		ldi r25,lo8(0)
 1052               	/* epilogue start */
 1053 042a 0895      		ret
 1054               	.LFE27:
 1056               	.global	read_internal_temperature
 1058               	read_internal_temperature:
 1059               	.LFB28:
 1060               	.LM165:
 1061               	/* prologue: function */
 1062               	/* frame size = 0 */
 1063               	.LM166:
 1064 042c 8091 2802 		lds r24,552
 1065 0430 8068      		ori r24,lo8(-128)
 1066 0432 E0E0      		ldi r30,lo8(512)
 1067 0434 F2E0      		ldi r31,hi8(512)
 1068 0436 80A7      		std Z+40,r24
 1069               	.L85:
 1070               	.LM167:
 1071 0438 8091 2B02 		lds r24,555
 1072 043c 80FF      		sbrs r24,0
 1073 043e 00C0      		rjmp .L85
 1074               	.LM168:
 1075 0440 81E0      		ldi r24,lo8(1)
 1076 0442 E0E0      		ldi r30,lo8(512)
 1077 0444 F2E0      		ldi r31,hi8(512)
 1078 0446 83A7      		std Z+43,r24
 1079               	.LM169:
 1080 0448 8091 2C02 		lds r24,556
 1081               	.LM170:
 1082 044c 90E0      		ldi r25,lo8(0)
 1083               	/* epilogue start */
 1084 044e 0895      		ret
 1085               	.LFE28:
 1087               	.global	init_ir
 1089               	init_ir:
 1090               	.LFB29:
 1091               	.LM171:
 1092               	/* prologue: function */
 1093               	/* frame size = 0 */
 1094               	.LM172:
 1095 0450 E0E0      		ldi r30,lo8(2048)
 1096 0452 F8E0      		ldi r31,hi8(2048)
 1097 0454 21E0      		ldi r18,lo8(1)
 1098 0456 2083      		st Z,r18
 1099               	.LM173:
 1100 0458 83E1      		ldi r24,lo8(19)
 1101 045a 8183      		std Z+1,r24
 1102               	.LM174:
 1103 045c 89E4      		ldi r24,lo8(841)
 1104 045e 93E0      		ldi r25,hi8(841)
 1105 0460 86AB      		std Z+54,r24
 1106 0462 97AB      		std Z+55,r25
 1107               	.LM175:
 1108 0464 E0E4      		ldi r30,lo8(1600)
 1109 0466 F6E0      		ldi r31,hi8(1600)
 1110 0468 2183      		std Z+1,r18
 1111               	.LM176:
 1112 046a E0E4      		ldi r30,lo8(2112)
 1113 046c F8E0      		ldi r31,hi8(2112)
 1114 046e 85E0      		ldi r24,lo8(5)
 1115 0470 8083      		st Z,r24
 1116               	.LM177:
 1117 0472 1682      		std Z+6,__zero_reg__
 1118               	/* epilogue start */
 1119               	.LM178:
 1120 0474 0895      		ret
 1121               	.LFE29:
 1123               	.global	set_ir50
 1125               	set_ir50:
 1126               	.LFB30:
 1127               	.LM179:
 1128               	/* prologue: function */
 1129               	/* frame size = 0 */
 1130               	.LM180:
 1131               	/* #APP */
 1132               	 ;  27 "ir.c" 1
 1133 0476 F894      		cli
 1134               	 ;  0 "" 2
 1135               	.LM181:
 1136               	/* #NOAPP */
 1137 0478 E0E0      		ldi r30,lo8(2048)
 1138 047a F8E0      		ldi r31,hi8(2048)
 1139 047c 86A1      		ldd r24,Z+38
 1140 047e 97A1      		ldd r25,Z+39
 1141 0480 9695      		lsr r25
 1142 0482 8795      		ror r24
 1143 0484 80A7      		std Z+40,r24
 1144 0486 91A7      		std Z+41,r25
 1145               	.LM182:
 1146               	/* #APP */
 1147               	 ;  29 "ir.c" 1
 1148 0488 7894      		sei
 1149               	 ;  0 "" 2
 1150               	/* epilogue start */
 1151               	.LM183:
 1152               	/* #NOAPP */
 1153 048a 0895      		ret
 1154               	.LFE30:
 1156               	.global	set_ir100
 1158               	set_ir100:
 1159               	.LFB31:
 1160               	.LM184:
 1161               	/* prologue: function */
 1162               	/* frame size = 0 */
 1163               	.LM185:
 1164               	/* #APP */
 1165               	 ;  35 "ir.c" 1
 1166 048c F894      		cli
 1167               	 ;  0 "" 2
 1168               	.LM186:
 1169               	/* #NOAPP */
 1170 048e E0E0      		ldi r30,lo8(2048)
 1171 0490 F8E0      		ldi r31,hi8(2048)
 1172 0492 86A1      		ldd r24,Z+38
 1173 0494 97A1      		ldd r25,Z+39
 1174 0496 80A7      		std Z+40,r24
 1175 0498 91A7      		std Z+41,r25
 1176               	.LM187:
 1177               	/* #APP */
 1178               	 ;  37 "ir.c" 1
 1179 049a 7894      		sei
 1180               	 ;  0 "" 2
 1181               	/* epilogue start */
 1182               	.LM188:
 1183               	/* #NOAPP */
 1184 049c 0895      		ret
 1185               	.LFE31:
 1187               	.global	set_ir0
 1189               	set_ir0:
 1190               	.LFB32:
 1191               	.LM189:
 1192               	/* prologue: function */
 1193               	/* frame size = 0 */
 1194               	.LM190:
 1195               	/* #APP */
 1196               	 ;  42 "ir.c" 1
 1197 049e F894      		cli
 1198               	 ;  0 "" 2
 1199               	.LM191:
 1200               	/* #NOAPP */
 1201 04a0 E0E0      		ldi r30,lo8(2048)
 1202 04a2 F8E0      		ldi r31,hi8(2048)
 1203 04a4 10A6      		std Z+40,__zero_reg__
 1204 04a6 11A6      		std Z+41,__zero_reg__
 1205               	.LM192:
 1206               	/* #APP */
 1207               	 ;  44 "ir.c" 1
 1208 04a8 7894      		sei
 1209               	 ;  0 "" 2
 1210               	/* epilogue start */
 1211               	.LM193:
 1212               	/* #NOAPP */
 1213 04aa 0895      		ret
 1214               	.LFE32:
 1216               	.global	set_ir_carrier
 1218               	set_ir_carrier:
 1219               	.LFB33:
 1220               	.LM194:
 1221               	.LVL86:
 1222               	/* prologue: function */
 1223               	/* frame size = 0 */
 1224               	.LM195:
 1225               	/* #APP */
 1226               	 ;  50 "ir.c" 1
 1227 04ac F894      		cli
 1228               	 ;  0 "" 2
 1229               	.LM196:
 1230               	/* #NOAPP */
 1231 04ae E0E0      		ldi r30,lo8(2048)
 1232 04b0 F8E0      		ldi r31,hi8(2048)
 1233 04b2 86AB      		std Z+54,r24
 1234 04b4 97AB      		std Z+55,r25
 1235               	.LVL87:
 1236               	.LM197:
 1237               	/* #APP */
 1238               	 ;  52 "ir.c" 1
 1239 04b6 7894      		sei
 1240               	 ;  0 "" 2
 1241               	/* epilogue start */
 1242               	.LM198:
 1243               	/* #NOAPP */
 1244 04b8 0895      		ret
 1245               	.LFE33:
 1247               	.global	start_ir_timer
 1249               	start_ir_timer:
 1250               	.LFB34:
 1251               	.LM199:
 1252               	/* prologue: function */
 1253               	/* frame size = 0 */
 1254               	.LM200:
 1255 04ba 1092 0000 		sts startUpCounter,__zero_reg__
 1256 04be 1092 0000 		sts (startUpCounter)+1,__zero_reg__
 1257               	.LM201:
 1258 04c2 1092 0000 		sts onOffTracker,__zero_reg__
 1259 04c6 1092 0000 		sts (onOffTracker)+1,__zero_reg__
 1260               	.LM202:
 1261 04ca 1092 0000 		sts bitCounter,__zero_reg__
 1262               	.LM203:
 1263               	/* #APP */
 1264               	 ;  62 "ir.c" 1
 1265 04ce F894      		cli
 1266               	 ;  0 "" 2
 1267               	.LM204:
 1268               	/* #NOAPP */
 1269 04d0 E0E4      		ldi r30,lo8(2112)
 1270 04d2 F8E0      		ldi r31,hi8(2112)
 1271 04d4 10A2      		std Z+32,__zero_reg__
 1272 04d6 11A2      		std Z+33,__zero_reg__
 1273               	.LM205:
 1274               	/* #APP */
 1275               	 ;  64 "ir.c" 1
 1276 04d8 7894      		sei
 1277               	 ;  0 "" 2
 1278               	.LM206:
 1279               	/* #NOAPP */
 1280 04da 83E0      		ldi r24,lo8(3)
 1281 04dc E0E4      		ldi r30,lo8(2112)
 1282 04de F8E0      		ldi r31,hi8(2112)
 1283 04e0 8683      		std Z+6,r24
 1284               	.LM207:
 1285 04e2 E0EA      		ldi r30,lo8(160)
 1286 04e4 F0E0      		ldi r31,hi8(160)
 1287 04e6 8281      		ldd r24,Z+2
 1288 04e8 8460      		ori r24,lo8(4)
 1289 04ea 8283      		std Z+2,r24
 1290               	/* epilogue start */
 1291               	.LM208:
 1292 04ec 0895      		ret
 1293               	.LFE34:
 1295               	.global	stop_ir_timer
 1297               	stop_ir_timer:
 1298               	.LFB35:
 1299               	.LM209:
 1300               	/* prologue: function */
 1301               	/* frame size = 0 */
 1302               	.LM210:
 1303 04ee E0E4      		ldi r30,lo8(2112)
 1304 04f0 F8E0      		ldi r31,hi8(2112)
 1305 04f2 1682      		std Z+6,__zero_reg__
 1306               	.LBB412:
 1307               	.LBB413:
 1308               	.LM211:
 1309               	/* #APP */
 1310               	 ;  42 "ir.c" 1
 1311 04f4 F894      		cli
 1312               	 ;  0 "" 2
 1313               	.LM212:
 1314               	/* #NOAPP */
 1315 04f6 E0E0      		ldi r30,lo8(2048)
 1316 04f8 F8E0      		ldi r31,hi8(2048)
 1317 04fa 10A6      		std Z+40,__zero_reg__
 1318 04fc 11A6      		std Z+41,__zero_reg__
 1319               	.LM213:
 1320               	/* #APP */
 1321               	 ;  44 "ir.c" 1
 1322 04fe 7894      		sei
 1323               	 ;  0 "" 2
 1324               	/* epilogue start */
 1325               	/* #NOAPP */
 1326               	.LBE413:
 1327               	.LBE412:
 1328               	.LM214:
 1329 0500 0895      		ret
 1330               	.LFE35:
 1332               	.global	__vector_20
 1334               	__vector_20:
 1335               	.LFB36:
 1336               	.LM215:
 1337 0502 1F92      		push __zero_reg__
 1338 0504 0F92      		push r0
 1339 0506 0FB6      		in r0,__SREG__
 1340 0508 0F92      		push r0
 1341 050a 1124      		clr __zero_reg__
 1342 050c 2F93      		push r18
 1343 050e 3F93      		push r19
 1344 0510 4F93      		push r20
 1345 0512 5F93      		push r21
 1346 0514 6F93      		push r22
 1347 0516 7F93      		push r23
 1348 0518 8F93      		push r24
 1349 051a 9F93      		push r25
 1350 051c AF93      		push r26
 1351 051e BF93      		push r27
 1352 0520 EF93      		push r30
 1353 0522 FF93      		push r31
 1354               	/* prologue: Signal */
 1355               	/* frame size = 0 */
 1356               	.LM216:
 1357 0524 8091 0000 		lds r24,onOffTracker
 1358 0528 9091 0000 		lds r25,(onOffTracker)+1
 1359 052c 0197      		sbiw r24,1
 1360 052e 01F4      		brne .L103
 1361               	.LBB414:
 1362               	.LBB415:
 1363               	.LM217:
 1364               	/* #APP */
 1365               	 ;  42 "ir.c" 1
 1366 0530 F894      		cli
 1367               	 ;  0 "" 2
 1368               	.LM218:
 1369               	/* #NOAPP */
 1370 0532 E0E0      		ldi r30,lo8(2048)
 1371 0534 F8E0      		ldi r31,hi8(2048)
 1372 0536 10A6      		std Z+40,__zero_reg__
 1373 0538 11A6      		std Z+41,__zero_reg__
 1374               	.LM219:
 1375               	/* #APP */
 1376               	 ;  44 "ir.c" 1
 1377 053a 7894      		sei
 1378               	 ;  0 "" 2
 1379               	/* #NOAPP */
 1380               	.LBE415:
 1381               	.LBE414:
 1382               	.LM220:
 1383 053c 1092 0000 		sts onOffTracker,__zero_reg__
 1384 0540 1092 0000 		sts (onOffTracker)+1,__zero_reg__
 1385 0544 00C0      		rjmp .L104
 1386               	.L103:
 1387               	.LM221:
 1388 0546 0E94 0000 		call set_ir50
 1389               	.LM222:
 1390 054a 81E0      		ldi r24,lo8(1)
 1391 054c 90E0      		ldi r25,hi8(1)
 1392 054e 8093 0000 		sts onOffTracker,r24
 1393 0552 9093 0000 		sts (onOffTracker)+1,r25
 1394               	.L104:
 1395               	.LM223:
 1396 0556 4091 0000 		lds r20,bitCounter
 1397 055a 8091 0000 		lds r24,robotData+36
 1398 055e 4817      		cp r20,r24
 1399 0560 00F0      		brlo .L105
 1400 0562 8091 0000 		lds r24,onOffTracker
 1401 0566 9091 0000 		lds r25,(onOffTracker)+1
 1402 056a 892B      		or r24,r25
 1403 056c 01F0      		breq .L106
 1404 056e 8091 0000 		lds r24,robotData+35
 1405 0572 8330      		cpi r24,lo8(3)
 1406 0574 01F4      		brne .L105
 1407               	.L106:
 1408               	.LM224:
 1409 0576 8091 0000 		lds r24,robotData+35
 1410 057a 8330      		cpi r24,lo8(3)
 1411 057c 01F4      		brne .L107
 1412               	.LBB416:
 1413               	.LBB417:
 1414               	.LM225:
 1415               	/* #APP */
 1416               	 ;  42 "ir.c" 1
 1417 057e F894      		cli
 1418               	 ;  0 "" 2
 1419               	.LM226:
 1420               	/* #NOAPP */
 1421 0580 E0E0      		ldi r30,lo8(2048)
 1422 0582 F8E0      		ldi r31,hi8(2048)
 1423 0584 10A6      		std Z+40,__zero_reg__
 1424 0586 11A6      		std Z+41,__zero_reg__
 1425               	.LM227:
 1426               	/* #APP */
 1427               	 ;  44 "ir.c" 1
 1428 0588 7894      		sei
 1429               	 ;  0 "" 2
 1430               	/* #NOAPP */
 1431               	.L107:
 1432               	.LBE417:
 1433               	.LBE416:
 1434               	.LM228:
 1435 058a 8091 0000 		lds r24,robotData+238
 1436 058e 9091 0000 		lds r25,(robotData+238)+1
 1437 0592 892B      		or r24,r25
 1438 0594 01F4      		brne .L108
 1439               	.LBB418:
 1440               	.LBB419:
 1441               	.LM229:
 1442 0596 E0E4      		ldi r30,lo8(2112)
 1443 0598 F8E0      		ldi r31,hi8(2112)
 1444 059a 1682      		std Z+6,__zero_reg__
 1445               	.LBB420:
 1446               	.LBB421:
 1447               	.LM230:
 1448               	/* #APP */
 1449               	 ;  42 "ir.c" 1
 1450 059c F894      		cli
 1451               	 ;  0 "" 2
 1452               	.LM231:
 1453               	/* #NOAPP */
 1454 059e E0E0      		ldi r30,lo8(2048)
 1455 05a0 F8E0      		ldi r31,hi8(2048)
 1456 05a2 10A6      		std Z+40,__zero_reg__
 1457 05a4 11A6      		std Z+41,__zero_reg__
 1458               	.LM232:
 1459               	/* #APP */
 1460               	 ;  44 "ir.c" 1
 1461 05a6 7894      		sei
 1462               	 ;  0 "" 2
 1463               	/* #NOAPP */
 1464 05a8 00C0      		rjmp .L126
 1465               	.L108:
 1466               	.LBE421:
 1467               	.LBE420:
 1468               	.LBE419:
 1469               	.LBE418:
 1470               	.LM233:
 1471 05aa 1092 0000 		sts startUpCounter,__zero_reg__
 1472 05ae 1092 0000 		sts (startUpCounter)+1,__zero_reg__
 1473               	.LM234:
 1474 05b2 1092 0000 		sts onOffTracker,__zero_reg__
 1475 05b6 1092 0000 		sts (onOffTracker)+1,__zero_reg__
 1476               	.LM235:
 1477 05ba 1092 0000 		sts bitCounter,__zero_reg__
 1478               	.LM236:
 1479 05be 8091 0000 		lds r24,robotData+236
 1480 05c2 9091 0000 		lds r25,(robotData+236)+1
 1481 05c6 00C0      		rjmp .L130
 1482               	.L105:
 1483               	.LM237:
 1484 05c8 2091 0000 		lds r18,startUpCounter
 1485 05cc 3091 0000 		lds r19,(startUpCounter)+1
 1486 05d0 8091 0000 		lds r24,robotData+2
 1487 05d4 90E0      		ldi r25,lo8(0)
 1488 05d6 2817      		cp r18,r24
 1489 05d8 3907      		cpc r19,r25
 1490 05da 04F4      		brge .L110
 1491               	.LM238:
 1492 05dc F901      		movw r30,r18
 1493 05de EE0F      		lsl r30
 1494 05e0 FF1F      		rol r31
 1495 05e2 E050      		subi r30,lo8(-(robotData))
 1496 05e4 F040      		sbci r31,hi8(-(robotData))
 1497 05e6 8381      		ldd r24,Z+3
 1498 05e8 9481      		ldd r25,Z+4
 1499 05ea E0E4      		ldi r30,lo8(2112)
 1500 05ec F8E0      		ldi r31,hi8(2112)
 1501 05ee 86A3      		std Z+38,r24
 1502 05f0 97A3      		std Z+39,r25
 1503               	.LM239:
 1504 05f2 2F5F      		subi r18,lo8(-(1))
 1505 05f4 3F4F      		sbci r19,hi8(-(1))
 1506 05f6 2093 0000 		sts startUpCounter,r18
 1507 05fa 3093 0000 		sts (startUpCounter)+1,r19
 1508 05fe 00C0      		rjmp .L126
 1509               	.L110:
 1510               	.LM240:
 1511 0600 8091 0000 		lds r24,robotData+35
 1512 0604 8823      		tst r24
 1513 0606 01F0      		breq .L135
 1514               	.L111:
 1515               	.LM241:
 1516 0608 8130      		cpi r24,lo8(1)
 1517 060a 01F4      		brne .L114
 1518               	.LM242:
 1519 060c 8091 0000 		lds r24,onOffTracker
 1520 0610 9091 0000 		lds r25,(onOffTracker)+1
 1521 0614 0197      		sbiw r24,1
 1522 0616 01F4      		brne .L115
 1523               	.L135:
 1524               	.LM243:
 1525 0618 E42F      		mov r30,r20
 1526 061a E695      		lsr r30
 1527 061c E695      		lsr r30
 1528 061e E695      		lsr r30
 1529 0620 F0E0      		ldi r31,lo8(0)
 1530 0622 E050      		subi r30,lo8(-(robotData))
 1531 0624 F040      		sbci r31,hi8(-(robotData))
 1532 0626 24A5      		ldd r18,Z+44
 1533 0628 30E0      		ldi r19,lo8(0)
 1534 062a 842F      		mov r24,r20
 1535 062c 90E0      		ldi r25,lo8(0)
 1536 062e 8095      		com r24
 1537 0630 9095      		com r25
 1538 0632 8770      		andi r24,lo8(7)
 1539 0634 9070      		andi r25,hi8(7)
 1540 0636 00C0      		rjmp 2f
 1541 0638 3595      	1:	asr r19
 1542 063a 2795      		ror r18
 1543 063c 8A95      	2:	dec r24
 1544 063e 02F4      		brpl 1b
 1545 0640 20FF      		sbrs r18,0
 1546 0642 00C0      		rjmp .L133
 1547 0644 00C0      		rjmp .L123
 1548               	.L115:
 1549               	.LM244:
 1550 0646 8091 0000 		lds r24,robotData+42
 1551 064a 9091 0000 		lds r25,(robotData+42)+1
 1552               	.L130:
 1553 064e E0E4      		ldi r30,lo8(2112)
 1554 0650 F8E0      		ldi r31,hi8(2112)
 1555 0652 86A3      		std Z+38,r24
 1556 0654 97A3      		std Z+39,r25
 1557 0656 00C0      		rjmp .L126
 1558               	.L114:
 1559               	.LM245:
 1560 0658 8230      		cpi r24,lo8(2)
 1561 065a 01F4      		brne .L118
 1562               	.LM246:
 1563 065c 8091 0000 		lds r24,onOffTracker
 1564 0660 9091 0000 		lds r25,(onOffTracker)+1
 1565 0664 892B      		or r24,r25
 1566 0666 01F4      		brne .L119
 1567               	.LM247:
 1568 0668 E42F      		mov r30,r20
 1569 066a E695      		lsr r30
 1570 066c E695      		lsr r30
 1571 066e E695      		lsr r30
 1572 0670 F0E0      		ldi r31,lo8(0)
 1573 0672 E050      		subi r30,lo8(-(robotData))
 1574 0674 F040      		sbci r31,hi8(-(robotData))
 1575 0676 24A5      		ldd r18,Z+44
 1576 0678 30E0      		ldi r19,lo8(0)
 1577 067a 842F      		mov r24,r20
 1578 067c 90E0      		ldi r25,lo8(0)
 1579 067e 8095      		com r24
 1580 0680 9095      		com r25
 1581 0682 8770      		andi r24,lo8(7)
 1582 0684 9070      		andi r25,hi8(7)
 1583 0686 00C0      		rjmp 2f
 1584 0688 3595      	1:	asr r19
 1585 068a 2795      		ror r18
 1586 068c 8A95      	2:	dec r24
 1587 068e 02F4      		brpl 1b
 1588 0690 20FF      		sbrs r18,0
 1589 0692 00C0      		rjmp .L125
 1590 0694 00C0      		rjmp .L132
 1591               	.L119:
 1592               	.LM248:
 1593 0696 8091 0000 		lds r24,robotData+42
 1594 069a 9091 0000 		lds r25,(robotData+42)+1
 1595 069e 00C0      		rjmp .L129
 1596               	.L118:
 1597               	.LM249:
 1598 06a0 8330      		cpi r24,lo8(3)
 1599 06a2 01F0      		breq .+2
 1600 06a4 00C0      		rjmp .L121
 1601               	.LM250:
 1602 06a6 8091 0000 		lds r24,onOffTracker
 1603 06aa 9091 0000 		lds r25,(onOffTracker)+1
 1604 06ae E42F      		mov r30,r20
 1605 06b0 E695      		lsr r30
 1606 06b2 E695      		lsr r30
 1607 06b4 E695      		lsr r30
 1608 06b6 242F      		mov r18,r20
 1609 06b8 30E0      		ldi r19,lo8(0)
 1610 06ba 892B      		or r24,r25
 1611 06bc 01F4      		brne .L122
 1612               	.LM251:
 1613 06be F0E0      		ldi r31,lo8(0)
 1614 06c0 E050      		subi r30,lo8(-(robotData))
 1615 06c2 F040      		sbci r31,hi8(-(robotData))
 1616 06c4 84A5      		ldd r24,Z+44
 1617 06c6 90E0      		ldi r25,lo8(0)
 1618 06c8 2095      		com r18
 1619 06ca 3095      		com r19
 1620 06cc 2770      		andi r18,lo8(7)
 1621 06ce 3070      		andi r19,hi8(7)
 1622 06d0 00C0      		rjmp 2f
 1623 06d2 9595      	1:	asr r25
 1624 06d4 8795      		ror r24
 1625 06d6 2A95      	2:	dec r18
 1626 06d8 02F4      		brpl 1b
 1627 06da 80FF      		sbrs r24,0
 1628 06dc 00C0      		rjmp .L123
 1629               	.L133:
 1630               	.LM252:
 1631 06de 8091 0000 		lds r24,robotData+40
 1632 06e2 9091 0000 		lds r25,(robotData+40)+1
 1633 06e6 00C0      		rjmp .L129
 1634               	.L123:
 1635               	.LM253:
 1636 06e8 8091 0000 		lds r24,robotData+38
 1637 06ec 9091 0000 		lds r25,(robotData+38)+1
 1638               	.L129:
 1639 06f0 E0E4      		ldi r30,lo8(2112)
 1640 06f2 F8E0      		ldi r31,hi8(2112)
 1641 06f4 86A3      		std Z+38,r24
 1642 06f6 97A3      		std Z+39,r25
 1643               	.LM254:
 1644 06f8 4F5F      		subi r20,lo8(-(1))
 1645 06fa 00C0      		rjmp .L131
 1646               	.L122:
 1647               	.LM255:
 1648 06fc F0E0      		ldi r31,lo8(0)
 1649 06fe E050      		subi r30,lo8(-(robotData))
 1650 0700 F040      		sbci r31,hi8(-(robotData))
 1651 0702 84A5      		ldd r24,Z+44
 1652 0704 90E0      		ldi r25,lo8(0)
 1653 0706 2095      		com r18
 1654 0708 3095      		com r19
 1655 070a 2770      		andi r18,lo8(7)
 1656 070c 3070      		andi r19,hi8(7)
 1657 070e 00C0      		rjmp 2f
 1658 0710 9595      	1:	asr r25
 1659 0712 8795      		ror r24
 1660 0714 2A95      	2:	dec r18
 1661 0716 02F4      		brpl 1b
 1662 0718 80FF      		sbrs r24,0
 1663 071a 00C0      		rjmp .L125
 1664               	.L132:
 1665               	.LM256:
 1666 071c 8091 0000 		lds r24,robotData+38
 1667 0720 9091 0000 		lds r25,(robotData+38)+1
 1668 0724 00C0      		rjmp .L130
 1669               	.L125:
 1670               	.LM257:
 1671 0726 8091 0000 		lds r24,robotData+40
 1672 072a 9091 0000 		lds r25,(robotData+40)+1
 1673 072e 00C0      		rjmp .L130
 1674               	.L121:
 1675               	.LM258:
 1676 0730 8430      		cpi r24,lo8(4)
 1677 0732 01F4      		brne .L126
 1678               	.LM259:
 1679 0734 E42F      		mov r30,r20
 1680 0736 F0E0      		ldi r31,lo8(0)
 1681 0738 E050      		subi r30,lo8(-(robotData))
 1682 073a F040      		sbci r31,hi8(-(robotData))
 1683 073c 25A5      		ldd r18,Z+45
 1684 073e 94A5      		ldd r25,Z+44
 1685 0740 80E0      		ldi r24,lo8(0)
 1686 0742 820F      		add r24,r18
 1687 0744 911D      		adc r25,__zero_reg__
 1688 0746 E0E4      		ldi r30,lo8(2112)
 1689 0748 F8E0      		ldi r31,hi8(2112)
 1690 074a 86A3      		std Z+38,r24
 1691 074c 97A3      		std Z+39,r25
 1692               	.LM260:
 1693 074e 4E5F      		subi r20,lo8(-(2))
 1694               	.L131:
 1695 0750 4093 0000 		sts bitCounter,r20
 1696               	.L126:
 1697               	/* epilogue start */
 1698               	.LM261:
 1699 0754 FF91      		pop r31
 1700 0756 EF91      		pop r30
 1701 0758 BF91      		pop r27
 1702 075a AF91      		pop r26
 1703 075c 9F91      		pop r25
 1704 075e 8F91      		pop r24
 1705 0760 7F91      		pop r23
 1706 0762 6F91      		pop r22
 1707 0764 5F91      		pop r21
 1708 0766 4F91      		pop r20
 1709 0768 3F91      		pop r19
 1710 076a 2F91      		pop r18
 1711 076c 0F90      		pop r0
 1712 076e 0FBE      		out __SREG__,r0
 1713 0770 0F90      		pop r0
 1714 0772 1F90      		pop __zero_reg__
 1715 0774 1895      		reti
 1716               	.LFE36:
 1718               	.global	BT_default_reset
 1720               	BT_default_reset:
 1721               	.LFB38:
 1722               	.LM262:
 1723               	/* prologue: function */
 1724               	/* frame size = 0 */
 1725               	.LM263:
 1726 0776 80E2      		ldi r24,lo8(32)
 1727 0778 E0E6      		ldi r30,lo8(1632)
 1728 077a F6E0      		ldi r31,hi8(1632)
 1729 077c 8583      		std Z+5,r24
 1730 077e 84E6      		ldi r24,lo8(100)
 1731 0780 90E0      		ldi r25,hi8(100)
 1732               	.LVL88:
 1733               	.LBB422:
 1734               	.LBB423:
 1735               	.LBB424:
 1736               	.LBB425:
 1737               	.LM264:
 1738 0782 20E2      		ldi r18,lo8(800)
 1739 0784 33E0      		ldi r19,hi8(800)
 1740               	.L137:
 1741 0786 F901      		movw r30,r18
 1742               	.LVL89:
 1743               	/* #APP */
 1744               	 ;  105 "c:/winavr-20100110/lib/gcc/../../avr/include/util/delay_basic.h" 1
 1745 0788 3197      		1: sbiw r30,1
 1746 078a 01F4      		brne 1b
 1747               	 ;  0 "" 2
 1748               	/* #NOAPP */
 1749               	.LBE425:
 1750               	.LBE424:
 1751               	.LM265:
 1752 078c 0197      		sbiw r24,1
 1753               	.LM266:
 1754 078e 01F4      		brne .L137
 1755 0790 20E0      		ldi r18,lo8(0)
 1756 0792 30E0      		ldi r19,hi8(0)
 1757               	.LVL90:
 1758               	.LBE423:
 1759               	.LBE422:
 1760               	.LBB426:
 1761               	.LM267:
 1762 0794 A0E6      		ldi r26,lo8(1632)
 1763 0796 B6E0      		ldi r27,hi8(1632)
 1764 0798 60E2      		ldi r22,lo8(32)
 1765               	.LBB427:
 1766               	.LBB428:
 1767               	.LBB429:
 1768               	.LBB430:
 1769               	.LM268:
 1770 079a 40E2      		ldi r20,lo8(800)
 1771 079c 53E0      		ldi r21,hi8(800)
 1772               	.LVL91:
 1773               	.L139:
 1774               	.LBE430:
 1775               	.LBE429:
 1776               	.LBE428:
 1777               	.LBE427:
 1778               	.LM269:
 1779 079e 1796      		adiw r26,7
 1780 07a0 6C93      		st X,r22
 1781 07a2 1797      		sbiw r26,7
 1782 07a4 84E6      		ldi r24,lo8(100)
 1783 07a6 90E0      		ldi r25,hi8(100)
 1784               	.LVL92:
 1785               	.L138:
 1786               	.LBB434:
 1787               	.LBB433:
 1788               	.LBB432:
 1789               	.LBB431:
 1790               	.LM270:
 1791 07a8 FA01      		movw r30,r20
 1792               	.LVL93:
 1793               	/* #APP */
 1794               	 ;  105 "c:/winavr-20100110/lib/gcc/../../avr/include/util/delay_basic.h" 1
 1795 07aa 3197      		1: sbiw r30,1
 1796 07ac 01F4      		brne 1b
 1797               	 ;  0 "" 2
 1798               	/* #NOAPP */
 1799               	.LBE431:
 1800               	.LBE432:
 1801               	.LM271:
 1802 07ae 0197      		sbiw r24,1
 1803               	.LM272:
 1804 07b0 01F4      		brne .L138
 1805               	.LBE433:
 1806               	.LBE434:
 1807               	.LM273:
 1808 07b2 2F5F      		subi r18,lo8(-(1))
 1809 07b4 3F4F      		sbci r19,hi8(-(1))
 1810 07b6 2630      		cpi r18,6
 1811 07b8 3105      		cpc r19,__zero_reg__
 1812 07ba 01F4      		brne .L139
 1813               	.LBE426:
 1814               	.LM274:
 1815 07bc 80E2      		ldi r24,lo8(32)
 1816               	.LVL94:
 1817 07be E0E6      		ldi r30,lo8(1632)
 1818 07c0 F6E0      		ldi r31,hi8(1632)
 1819               	.LVL95:
 1820 07c2 8683      		std Z+6,r24
 1821               	/* epilogue start */
 1822               	.LM275:
 1823 07c4 0895      		ret
 1824               	.LFE38:
 1826               	.global	BT_reset
 1828               	BT_reset:
 1829               	.LFB39:
 1830               	.LM276:
 1831               	/* prologue: function */
 1832               	/* frame size = 0 */
 1833               	.LM277:
 1834 07c6 82E0      		ldi r24,lo8(2)
 1835 07c8 E0E4      		ldi r30,lo8(1600)
 1836 07ca F6E0      		ldi r31,hi8(1600)
 1837 07cc 8683      		std Z+6,r24
 1838 07ce 84E6      		ldi r24,lo8(100)
 1839 07d0 90E0      		ldi r25,hi8(100)
 1840               	.LVL96:
 1841               	.LBB435:
 1842               	.LBB436:
 1843               	.LBB437:
 1844               	.LBB438:
 1845               	.LM278:
 1846 07d2 20E2      		ldi r18,lo8(800)
 1847 07d4 33E0      		ldi r19,hi8(800)
 1848               	.L145:
 1849 07d6 F901      		movw r30,r18
 1850               	.LVL97:
 1851               	/* #APP */
 1852               	 ;  105 "c:/winavr-20100110/lib/gcc/../../avr/include/util/delay_basic.h" 1
 1853 07d8 3197      		1: sbiw r30,1
 1854 07da 01F4      		brne 1b
 1855               	 ;  0 "" 2
 1856               	/* #NOAPP */
 1857               	.LBE438:
 1858               	.LBE437:
 1859               	.LM279:
 1860 07dc 0197      		sbiw r24,1
 1861               	.LM280:
 1862 07de 01F4      		brne .L145
 1863               	.LBE436:
 1864               	.LBE435:
 1865               	.LM281:
 1866 07e0 82E0      		ldi r24,lo8(2)
 1867               	.LVL98:
 1868 07e2 E0E4      		ldi r30,lo8(1600)
 1869 07e4 F6E0      		ldi r31,hi8(1600)
 1870               	.LVL99:
 1871 07e6 8583      		std Z+5,r24
 1872               	/* epilogue start */
 1873               	.LM282:
 1874 07e8 0895      		ret
 1875               	.LFE39:
 1877               	.global	init_BT
 1879               	init_BT:
 1880               	.LFB37:
 1881               	.LM283:
 1882 07ea FF92      		push r15
 1883 07ec 0F93      		push r16
 1884 07ee 1F93      		push r17
 1885               	/* prologue: function */
 1886               	/* frame size = 0 */
 1887               	.LM284:
 1888 07f0 82E0      		ldi r24,lo8(2)
 1889 07f2 E0E4      		ldi r30,lo8(1600)
 1890 07f4 F6E0      		ldi r31,hi8(1600)
 1891 07f6 8183      		std Z+1,r24
 1892               	.LM285:
 1893 07f8 00E6      		ldi r16,lo8(1632)
 1894 07fa 16E0      		ldi r17,hi8(1632)
 1895 07fc 60E2      		ldi r22,lo8(32)
 1896 07fe F62E      		mov r15,r22
 1897 0800 F801      		movw r30,r16
 1898 0802 F182      		std Z+1,r15
 1899               	.LM286:
 1900 0804 0E94 0000 		call BT_reset
 1901               	.LM287:
 1902 0808 F801      		movw r30,r16
 1903 080a F682      		std Z+6,r15
 1904               	.LM288:
 1905 080c 0E94 0000 		call init_bt_uart
 1906               	/* epilogue start */
 1907               	.LM289:
 1908 0810 1F91      		pop r17
 1909 0812 0F91      		pop r16
 1910 0814 FF90      		pop r15
 1911 0816 0895      		ret
 1912               	.LFE37:
 1914               	.global	TWI_MasterInit
 1916               	TWI_MasterInit:
 1917               	.LFB40:
 1918               	.LM290:
 1919               	.LVL100:
 1920               	/* prologue: function */
 1921               	/* frame size = 0 */
 1922 0818 DC01      		movw r26,r24
 1923 081a FB01      		movw r30,r22
 1924               	.LM291:
 1925 081c 6D93      		st X+,r22
 1926 081e 7C93      		st X,r23
 1927 0820 1197      		sbiw r26,1
 1928               	.LM292:
 1929 0822 4863      		ori r20,lo8(56)
 1930               	.LVL101:
 1931 0824 4183      		std Z+1,r20
 1932               	.LM293:
 1933 0826 ED91      		ld r30,X+
 1934 0828 FC91      		ld r31,X
 1935 082a 1197      		sbiw r26,1
 1936 082c 2583      		std Z+5,r18
 1937               	.LM294:
 1938 082e ED91      		ld r30,X+
 1939 0830 FC91      		ld r31,X
 1940 0832 81E0      		ldi r24,lo8(1)
 1941               	.LVL102:
 1942 0834 8483      		std Z+4,r24
 1943               	/* epilogue start */
 1944               	.LM295:
 1945 0836 0895      		ret
 1946               	.LFE40:
 1948               	.global	TWI_MasterState
 1950               	TWI_MasterState:
 1951               	.LFB41:
 1952               	.LM296:
 1953               	.LVL103:
 1954               	/* prologue: function */
 1955               	/* frame size = 0 */
 1956 0838 FC01      		movw r30,r24
 1957               	.LM297:
 1958 083a 0190      		ld __tmp_reg__,Z+
 1959 083c F081      		ld r31,Z
 1960 083e E02D      		mov r30,__tmp_reg__
 1961 0840 8481      		ldd r24,Z+4
 1962               	.LVL104:
 1963               	.LM298:
 1964 0842 8370      		andi r24,lo8(3)
 1965               	/* epilogue start */
 1966 0844 0895      		ret
 1967               	.LFE41:
 1969               	.global	TWI_MasterReady
 1971               	TWI_MasterReady:
 1972               	.LFB42:
 1973               	.LM299:
 1974               	.LVL105:
 1975               	/* prologue: function */
 1976               	/* frame size = 0 */
 1977 0846 FC01      		movw r30,r24
 1978               	.LM300:
 1979 0848 8785      		ldd r24,Z+15
 1980               	.LVL106:
 1981               	.LM301:
 1982 084a 80E0      		ldi r24,lo8(0)
 1983               	/* epilogue start */
 1984 084c 0895      		ret
 1985               	.LFE42:
 1987               	.global	TWI_MasterWriteRead
 1989               	TWI_MasterWriteRead:
 1990               	.LFB45:
 1991               	.LM302:
 1992               	.LVL107:
 1993 084e 0F93      		push r16
 1994               	.LVL108:
 1995 0850 CF93      		push r28
 1996 0852 DF93      		push r29
 1997               	/* prologue: function */
 1998               	/* frame size = 0 */
 1999 0854 DC01      		movw r26,r24
 2000 0856 722F      		mov r23,r18
 2001               	.LM303:
 2002 0858 2530      		cpi r18,lo8(5)
 2003 085a 00F0      		brlo .+2
 2004 085c 00C0      		rjmp .L157
 2005               	.LVL109:
 2006               	.LM304:
 2007 085e 0530      		cpi r16,lo8(5)
 2008               	.LVL110:
 2009 0860 00F0      		brlo .+2
 2010 0862 00C0      		rjmp .L157
 2011               	.LM305:
 2012 0864 1F96      		adiw r26,15
 2013 0866 8C91      		ld r24,X
 2014 0868 1F97      		sbiw r26,15
 2015 086a 8823      		tst r24
 2016 086c 01F4      		brne .L157
 2017               	.LM306:
 2018 086e 81E0      		ldi r24,lo8(1)
 2019 0870 1F96      		adiw r26,15
 2020 0872 8C93      		st X,r24
 2021 0874 1F97      		sbiw r26,15
 2022               	.LM307:
 2023 0876 5096      		adiw r26,16
 2024 0878 1C92      		st X,__zero_reg__
 2025 087a 5097      		sbiw r26,16
 2026               	.LM308:
 2027 087c 660F      		lsl r22
 2028               	.LVL111:
 2029 087e 1296      		adiw r26,2
 2030 0880 6C93      		st X,r22
 2031 0882 1297      		sbiw r26,2
 2032 0884 EA01      		movw r28,r20
 2033               	.LVL112:
 2034 0886 20E0      		ldi r18,lo8(0)
 2035 0888 30E0      		ldi r19,hi8(0)
 2036               	.LVL113:
 2037 088a 00C0      		rjmp .L158
 2038               	.L159:
 2039               	.LBB439:
 2040               	.LM309:
 2041 088c 8991      		ld r24,Y+
 2042 088e FD01      		movw r30,r26
 2043 0890 E20F      		add r30,r18
 2044 0892 F31F      		adc r31,r19
 2045 0894 8383      		std Z+3,r24
 2046 0896 2F5F      		subi r18,lo8(-(1))
 2047 0898 3F4F      		sbci r19,hi8(-(1))
 2048               	.L158:
 2049               	.LM310:
 2050 089a 2717      		cp r18,r23
 2051 089c 00F0      		brlo .L159
 2052               	.LBE439:
 2053               	.LM311:
 2054 089e 1B96      		adiw r26,11
 2055 08a0 7C93      		st X,r23
 2056 08a2 1B97      		sbiw r26,11
 2057               	.LM312:
 2058 08a4 1C96      		adiw r26,12
 2059 08a6 0C93      		st X,r16
 2060 08a8 1C97      		sbiw r26,12
 2061               	.LM313:
 2062 08aa 1D96      		adiw r26,13
 2063 08ac 1C92      		st X,__zero_reg__
 2064 08ae 1D97      		sbiw r26,13
 2065               	.LM314:
 2066 08b0 1E96      		adiw r26,14
 2067 08b2 1C92      		st X,__zero_reg__
 2068 08b4 1E97      		sbiw r26,14
 2069               	.LM315:
 2070 08b6 1B96      		adiw r26,11
 2071 08b8 8C91      		ld r24,X
 2072 08ba 1B97      		sbiw r26,11
 2073 08bc 8823      		tst r24
 2074 08be 01F0      		breq .L160
 2075               	.LBB440:
 2076               	.LM316:
 2077 08c0 1296      		adiw r26,2
 2078 08c2 8C91      		ld r24,X
 2079 08c4 1297      		sbiw r26,2
 2080 08c6 8E7F      		andi r24,lo8(-2)
 2081 08c8 00C0      		rjmp .L166
 2082               	.L160:
 2083               	.LBE440:
 2084               	.LM317:
 2085 08ca 1C96      		adiw r26,12
 2086 08cc 8C91      		ld r24,X
 2087 08ce 1C97      		sbiw r26,12
 2088 08d0 8823      		tst r24
 2089 08d2 01F0      		breq .L165
 2090               	.L162:
 2091               	.LBB441:
 2092               	.LM318:
 2093 08d4 1296      		adiw r26,2
 2094 08d6 8C91      		ld r24,X
 2095 08d8 1297      		sbiw r26,2
 2096 08da 8160      		ori r24,lo8(1)
 2097               	.L166:
 2098               	.LM319:
 2099 08dc ED91      		ld r30,X+
 2100 08de FC91      		ld r31,X
 2101 08e0 8683      		std Z+6,r24
 2102               	.L165:
 2103 08e2 81E0      		ldi r24,lo8(1)
 2104 08e4 00C0      		rjmp .L161
 2105               	.LVL114:
 2106               	.L157:
 2107 08e6 80E0      		ldi r24,lo8(0)
 2108               	.LVL115:
 2109               	.L161:
 2110               	/* epilogue start */
 2111               	.LBE441:
 2112               	.LM320:
 2113 08e8 DF91      		pop r29
 2114 08ea CF91      		pop r28
 2115 08ec 0F91      		pop r16
 2116               	.LVL116:
 2117 08ee 0895      		ret
 2118               	.LFE45:
 2120               	.global	TWI_MasterRead
 2122               	TWI_MasterRead:
 2123               	.LFB44:
 2124               	.LM321:
 2125               	.LVL117:
 2126 08f0 0F93      		push r16
 2127               	/* prologue: function */
 2128               	/* frame size = 0 */
 2129 08f2 042F      		mov r16,r20
 2130               	.LM322:
 2131 08f4 40E0      		ldi r20,lo8(0)
 2132 08f6 50E0      		ldi r21,hi8(0)
 2133               	.LVL118:
 2134 08f8 20E0      		ldi r18,lo8(0)
 2135 08fa 0E94 0000 		call TWI_MasterWriteRead
 2136               	.LVL119:
 2137               	/* epilogue start */
 2138               	.LM323:
 2139 08fe 0F91      		pop r16
 2140               	.LVL120:
 2141 0900 0895      		ret
 2142               	.LFE44:
 2144               	.global	TWI_MasterWrite
 2146               	TWI_MasterWrite:
 2147               	.LFB43:
 2148               	.LM324:
 2149               	.LVL121:
 2150 0902 0F93      		push r16
 2151               	/* prologue: function */
 2152               	/* frame size = 0 */
 2153               	.LM325:
 2154 0904 00E0      		ldi r16,lo8(0)
 2155 0906 0E94 0000 		call TWI_MasterWriteRead
 2156               	.LVL122:
 2157               	/* epilogue start */
 2158               	.LM326:
 2159 090a 0F91      		pop r16
 2160 090c 0895      		ret
 2161               	.LFE43:
 2163               	.global	TWI_MasterArbitrationLostBusErrorHandler
 2165               	TWI_MasterArbitrationLostBusErrorHandler:
 2166               	.LFB47:
 2167               	.LM327:
 2168               	.LVL123:
 2169               	/* prologue: function */
 2170               	/* frame size = 0 */
 2171 090e DC01      		movw r26,r24
 2172               	.LM328:
 2173 0910 ED91      		ld r30,X+
 2174 0912 FC91      		ld r31,X
 2175 0914 1197      		sbiw r26,1
 2176 0916 9481      		ldd r25,Z+4
 2177               	.LVL124:
 2178               	.LM329:
 2179 0918 92FF      		sbrs r25,2
 2180 091a 00C0      		rjmp .L172
 2181               	.LVL125:
 2182               	.LM330:
 2183 091c 84E0      		ldi r24,lo8(4)
 2184 091e 00C0      		rjmp .L175
 2185               	.LVL126:
 2186               	.L172:
 2187               	.LM331:
 2188 0920 83E0      		ldi r24,lo8(3)
 2189               	.L175:
 2190 0922 5096      		adiw r26,16
 2191 0924 8C93      		st X,r24
 2192 0926 5097      		sbiw r26,16
 2193               	.LM332:
 2194 0928 ED91      		ld r30,X+
 2195 092a FC91      		ld r31,X
 2196 092c 1197      		sbiw r26,1
 2197 092e 9860      		ori r25,lo8(8)
 2198 0930 9483      		std Z+4,r25
 2199               	.LM333:
 2200 0932 1F96      		adiw r26,15
 2201 0934 1C92      		st X,__zero_reg__
 2202               	/* epilogue start */
 2203               	.LM334:
 2204 0936 0895      		ret
 2205               	.LFE47:
 2207               	.global	TWI_MasterWriteHandler
 2209               	TWI_MasterWriteHandler:
 2210               	.LFB48:
 2211               	.LM335:
 2212               	.LVL127:
 2213 0938 CF93      		push r28
 2214 093a DF93      		push r29
 2215               	/* prologue: function */
 2216               	/* frame size = 0 */
 2217 093c DC01      		movw r26,r24
 2218               	.LM336:
 2219 093e 1B96      		adiw r26,11
 2220 0940 9C91      		ld r25,X
 2221 0942 1B97      		sbiw r26,11
 2222               	.LVL128:
 2223               	.LM337:
 2224 0944 1C96      		adiw r26,12
 2225 0946 2C91      		ld r18,X
 2226 0948 1C97      		sbiw r26,12
 2227               	.LVL129:
 2228               	.LM338:
 2229 094a CD91      		ld r28,X+
 2230 094c DC91      		ld r29,X
 2231 094e 1197      		sbiw r26,1
 2232 0950 8C81      		ldd r24,Y+4
 2233               	.LVL130:
 2234 0952 84FF      		sbrs r24,4
 2235 0954 00C0      		rjmp .L177
 2236               	.LM339:
 2237 0956 83E0      		ldi r24,lo8(3)
 2238 0958 8B83      		std Y+3,r24
 2239               	.LM340:
 2240 095a 85E0      		ldi r24,lo8(5)
 2241 095c 00C0      		rjmp .L182
 2242               	.L177:
 2243               	.LM341:
 2244 095e 1D96      		adiw r26,13
 2245 0960 8C91      		ld r24,X
 2246 0962 1D97      		sbiw r26,13
 2247 0964 8917      		cp r24,r25
 2248 0966 00F4      		brsh .L179
 2249               	.LBB442:
 2250               	.LM342:
 2251 0968 1D96      		adiw r26,13
 2252 096a 8C91      		ld r24,X
 2253 096c 1D97      		sbiw r26,13
 2254 096e FD01      		movw r30,r26
 2255 0970 E80F      		add r30,r24
 2256 0972 F11D      		adc r31,__zero_reg__
 2257 0974 8381      		ldd r24,Z+3
 2258               	.LVL131:
 2259               	.LM343:
 2260 0976 8F83      		std Y+7,r24
 2261               	.LM344:
 2262 0978 1D96      		adiw r26,13
 2263 097a 8C91      		ld r24,X
 2264 097c 1D97      		sbiw r26,13
 2265               	.LVL132:
 2266 097e 8F5F      		subi r24,lo8(-(1))
 2267 0980 1D96      		adiw r26,13
 2268 0982 8C93      		st X,r24
 2269 0984 00C0      		rjmp .L181
 2270               	.L179:
 2271               	.LBE442:
 2272               	.LM345:
 2273 0986 1E96      		adiw r26,14
 2274 0988 8C91      		ld r24,X
 2275 098a 1E97      		sbiw r26,14
 2276 098c 8217      		cp r24,r18
 2277 098e 00F4      		brsh .L180
 2278               	.LBB443:
 2279               	.LM346:
 2280 0990 1296      		adiw r26,2
 2281 0992 8C91      		ld r24,X
 2282 0994 8160      		ori r24,lo8(1)
 2283               	.LM347:
 2284 0996 8E83      		std Y+6,r24
 2285 0998 00C0      		rjmp .L181
 2286               	.L180:
 2287               	.LBE443:
 2288               	.LM348:
 2289 099a 83E0      		ldi r24,lo8(3)
 2290 099c 8B83      		std Y+3,r24
 2291               	.LBB444:
 2292               	.LBB445:
 2293               	.LM349:
 2294 099e 81E0      		ldi r24,lo8(1)
 2295               	.L182:
 2296 09a0 5096      		adiw r26,16
 2297 09a2 8C93      		st X,r24
 2298 09a4 5097      		sbiw r26,16
 2299               	.LM350:
 2300 09a6 1F96      		adiw r26,15
 2301 09a8 1C92      		st X,__zero_reg__
 2302               	.L181:
 2303               	/* epilogue start */
 2304               	.LBE445:
 2305               	.LBE444:
 2306               	.LM351:
 2307 09aa DF91      		pop r29
 2308 09ac CF91      		pop r28
 2309 09ae 0895      		ret
 2310               	.LFE48:
 2312               	.global	TWI_MasterReadHandler
 2314               	TWI_MasterReadHandler:
 2315               	.LFB49:
 2316               	.LM352:
 2317               	.LVL133:
 2318               	/* prologue: function */
 2319               	/* frame size = 0 */
 2320 09b0 DC01      		movw r26,r24
 2321               	.LM353:
 2322 09b2 1E96      		adiw r26,14
 2323 09b4 8C91      		ld r24,X
 2324 09b6 1E97      		sbiw r26,14
 2325               	.LVL134:
 2326 09b8 ED91      		ld r30,X+
 2327 09ba FC91      		ld r31,X
 2328 09bc 1197      		sbiw r26,1
 2329 09be 8430      		cpi r24,lo8(4)
 2330 09c0 00F4      		brsh .L184
 2331               	.LBB446:
 2332               	.LM354:
 2333 09c2 9781      		ldd r25,Z+7
 2334               	.LVL135:
 2335               	.LM355:
 2336 09c4 1E96      		adiw r26,14
 2337 09c6 8C91      		ld r24,X
 2338 09c8 1E97      		sbiw r26,14
 2339 09ca FD01      		movw r30,r26
 2340 09cc E80F      		add r30,r24
 2341 09ce F11D      		adc r31,__zero_reg__
 2342 09d0 9783      		std Z+7,r25
 2343               	.LM356:
 2344 09d2 1E96      		adiw r26,14
 2345 09d4 8C91      		ld r24,X
 2346 09d6 1E97      		sbiw r26,14
 2347 09d8 8F5F      		subi r24,lo8(-(1))
 2348 09da 1E96      		adiw r26,14
 2349 09dc 8C93      		st X,r24
 2350 09de 1E97      		sbiw r26,14
 2351 09e0 00C0      		rjmp .L185
 2352               	.LVL136:
 2353               	.L184:
 2354               	.LBE446:
 2355               	.LM357:
 2356 09e2 83E0      		ldi r24,lo8(3)
 2357 09e4 8383      		std Z+3,r24
 2358               	.LBB447:
 2359               	.LBB448:
 2360               	.LM358:
 2361 09e6 82E0      		ldi r24,lo8(2)
 2362 09e8 5096      		adiw r26,16
 2363 09ea 8C93      		st X,r24
 2364 09ec 5097      		sbiw r26,16
 2365               	.LM359:
 2366 09ee 1F96      		adiw r26,15
 2367 09f0 1C92      		st X,__zero_reg__
 2368 09f2 1F97      		sbiw r26,15
 2369               	.LVL137:
 2370               	.L185:
 2371               	.LBE448:
 2372               	.LBE447:
 2373               	.LM360:
 2374 09f4 1C96      		adiw r26,12
 2375 09f6 9C91      		ld r25,X
 2376 09f8 1C97      		sbiw r26,12
 2377               	.LVL138:
 2378               	.LM361:
 2379 09fa 1E96      		adiw r26,14
 2380 09fc 8C91      		ld r24,X
 2381 09fe 1E97      		sbiw r26,14
 2382 0a00 ED91      		ld r30,X+
 2383 0a02 FC91      		ld r31,X
 2384 0a04 1197      		sbiw r26,1
 2385 0a06 8917      		cp r24,r25
 2386 0a08 00F4      		brsh .L186
 2387               	.LM362:
 2388 0a0a 82E0      		ldi r24,lo8(2)
 2389 0a0c 8383      		std Z+3,r24
 2390 0a0e 0895      		ret
 2391               	.L186:
 2392               	.LM363:
 2393 0a10 87E0      		ldi r24,lo8(7)
 2394 0a12 8383      		std Z+3,r24
 2395               	.LBB449:
 2396               	.LBB450:
 2397               	.LM364:
 2398 0a14 81E0      		ldi r24,lo8(1)
 2399 0a16 5096      		adiw r26,16
 2400 0a18 8C93      		st X,r24
 2401 0a1a 5097      		sbiw r26,16
 2402               	.LM365:
 2403 0a1c 1F96      		adiw r26,15
 2404 0a1e 1C92      		st X,__zero_reg__
 2405 0a20 0895      		ret
 2406               	.LBE450:
 2407               	.LBE449:
 2408               	.LFE49:
 2410               	.global	TWI_MasterInterruptHandler
 2412               	TWI_MasterInterruptHandler:
 2413               	.LFB46:
 2414               	.LM366:
 2415               	.LVL139:
 2416               	/* prologue: function */
 2417               	/* frame size = 0 */
 2418 0a22 DC01      		movw r26,r24
 2419               	.LM367:
 2420 0a24 ED91      		ld r30,X+
 2421 0a26 FC91      		ld r31,X
 2422 0a28 1197      		sbiw r26,1
 2423 0a2a 4481      		ldd r20,Z+4
 2424               	.LVL140:
 2425               	.LM368:
 2426 0a2c 242F      		mov r18,r20
 2427 0a2e 30E0      		ldi r19,lo8(0)
 2428 0a30 C901      		movw r24,r18
 2429               	.LVL141:
 2430 0a32 8C70      		andi r24,lo8(12)
 2431 0a34 9070      		andi r25,hi8(12)
 2432 0a36 892B      		or r24,r25
 2433 0a38 01F0      		breq .L190
 2434               	.LM369:
 2435 0a3a CD01      		movw r24,r26
 2436 0a3c 0E94 0000 		call TWI_MasterArbitrationLostBusErrorHandler
 2437               	.LVL142:
 2438 0a40 0895      		ret
 2439               	.LVL143:
 2440               	.L190:
 2441               	.LM370:
 2442 0a42 46FF      		sbrs r20,6
 2443 0a44 00C0      		rjmp .L192
 2444               	.LVL144:
 2445               	.LM371:
 2446 0a46 CD01      		movw r24,r26
 2447 0a48 0E94 0000 		call TWI_MasterWriteHandler
 2448               	.LVL145:
 2449 0a4c 0895      		ret
 2450               	.LVL146:
 2451               	.L192:
 2452               	.LM372:
 2453 0a4e 47FF      		sbrs r20,7
 2454 0a50 00C0      		rjmp .L193
 2455               	.LVL147:
 2456               	.LM373:
 2457 0a52 CD01      		movw r24,r26
 2458 0a54 0E94 0000 		call TWI_MasterReadHandler
 2459               	.LVL148:
 2460 0a58 0895      		ret
 2461               	.LVL149:
 2462               	.L193:
 2463               	.LBB451:
 2464               	.LBB452:
 2465               	.LM374:
 2466 0a5a 86E0      		ldi r24,lo8(6)
 2467 0a5c 5096      		adiw r26,16
 2468 0a5e 8C93      		st X,r24
 2469 0a60 5097      		sbiw r26,16
 2470               	.LM375:
 2471 0a62 1F96      		adiw r26,15
 2472 0a64 1C92      		st X,__zero_reg__
 2473 0a66 0895      		ret
 2474               	.LBE452:
 2475               	.LBE451:
 2476               	.LFE46:
 2478               	.global	TWI_MasterTransactionFinished
 2480               	TWI_MasterTransactionFinished:
 2481               	.LFB50:
 2482               	.LM376:
 2483               	.LVL150:
 2484               	/* prologue: function */
 2485               	/* frame size = 0 */
 2486 0a68 FC01      		movw r30,r24
 2487               	.LM377:
 2488 0a6a 608B      		std Z+16,r22
 2489               	.LM378:
 2490 0a6c 1786      		std Z+15,__zero_reg__
 2491               	/* epilogue start */
 2492               	.LM379:
 2493 0a6e 0895      		ret
 2494               	.LFE50:
 2496               	.global	getAccelData
 2498               	getAccelData:
 2499               	.LFB51:
 2500               	.LM380:
 2501               	/* prologue: function */
 2502               	/* frame size = 0 */
 2503               	.LM381:
 2504 0a70 6091 0000 		lds r22,_acc
 2505 0a74 7091 0000 		lds r23,_acc+1
 2506               	.LM382:
 2507 0a78 8091 0000 		lds r24,_acc+2
 2508 0a7c 9091 0000 		lds r25,_acc+3
 2509               	/* epilogue start */
 2510 0a80 0895      		ret
 2511               	.LFE51:
 2513               	.global	newAccelData
 2515               	newAccelData:
 2516               	.LFB52:
 2517               	.LM383:
 2518               	/* prologue: function */
 2519               	/* frame size = 0 */
 2520               	.LM384:
 2521 0a82 8091 0000 		lds r24,twiMaster+16
 2522 0a86 8130      		cpi r24,lo8(1)
 2523 0a88 01F0      		breq .L200
 2524 0a8a 20E0      		ldi r18,lo8(0)
 2525 0a8c 30E0      		ldi r19,hi8(0)
 2526 0a8e 00C0      		rjmp .L201
 2527               	.L200:
 2528 0a90 8091 0000 		lds r24,twiMaster+15
 2529 0a94 90E0      		ldi r25,lo8(0)
 2530 0a96 8111      		cpse r24,__zero_reg__
 2531 0a98 91E0      		ldi r25,lo8(1)
 2532               	.L202:
 2533 0a9a 81E0      		ldi r24,lo8(1)
 2534 0a9c 9827      		eor r25,r24
 2535 0a9e 292F      		mov r18,r25
 2536 0aa0 30E0      		ldi r19,lo8(0)
 2537               	.L201:
 2538               	.LM385:
 2539 0aa2 C901      		movw r24,r18
 2540               	/* epilogue start */
 2541 0aa4 0895      		ret
 2542               	.LFE52:
 2544               	.global	updateAccel
 2546               	updateAccel:
 2547               	.LFB53:
 2548               	.LM386:
 2549 0aa6 0F93      		push r16
 2550 0aa8 DF93      		push r29
 2551 0aaa CF93      		push r28
 2552 0aac 0F92      		push __tmp_reg__
 2553 0aae CDB7      		in r28,__SP_L__
 2554 0ab0 DEB7      		in r29,__SP_H__
 2555               	/* prologue: function */
 2556               	/* frame size = 1 */
 2557               	.LM387:
 2558 0ab2 1982      		std Y+1,__zero_reg__
 2559               	.LVL151:
 2560               	.LM388:
 2561 0ab4 80E0      		ldi r24,lo8(twiMaster)
 2562 0ab6 90E0      		ldi r25,hi8(twiMaster)
 2563 0ab8 6CE4      		ldi r22,lo8(76)
 2564 0aba AE01      		movw r20,r28
 2565 0abc 4F5F      		subi r20,lo8(-(1))
 2566 0abe 5F4F      		sbci r21,hi8(-(1))
 2567 0ac0 21E0      		ldi r18,lo8(1)
 2568 0ac2 04E0      		ldi r16,lo8(4)
 2569 0ac4 0E94 0000 		call TWI_MasterWriteRead
 2570               	.L205:
 2571               	.LM389:
 2572 0ac8 8091 0000 		lds r24,twiMaster+15
 2573 0acc 8823      		tst r24
 2574 0ace 01F4      		brne .L205
 2575               	.LM390:
 2576 0ad0 8091 0000 		lds r24,twiMaster+7
 2577 0ad4 8093 0000 		sts _acc,r24
 2578               	.LM391:
 2579 0ad8 8091 0000 		lds r24,twiMaster+8
 2580 0adc 8093 0000 		sts _acc+1,r24
 2581               	.LM392:
 2582 0ae0 8091 0000 		lds r24,twiMaster+9
 2583 0ae4 8093 0000 		sts _acc+2,r24
 2584               	.LM393:
 2585 0ae8 8091 0000 		lds r24,twiMaster+10
 2586 0aec 8093 0000 		sts _acc+3,r24
 2587               	.LM394:
 2588 0af0 1092 0000 		sts twiMaster+16,__zero_reg__
 2589               	/* epilogue start */
 2590               	.LM395:
 2591 0af4 0F90      		pop __tmp_reg__
 2592 0af6 CF91      		pop r28
 2593 0af8 DF91      		pop r29
 2594 0afa 0F91      		pop r16
 2595 0afc 0895      		ret
 2596               	.LFE53:
 2598               	.global	initAccel
 2600               	initAccel:
 2601               	.LFB54:
 2602               	.LM396:
 2603 0afe 0F93      		push r16
 2604 0b00 DF93      		push r29
 2605 0b02 CF93      		push r28
 2606 0b04 00D0      		rcall .
 2607 0b06 CDB7      		in r28,__SP_L__
 2608 0b08 DEB7      		in r29,__SP_H__
 2609               	/* prologue: function */
 2610               	/* frame size = 2 */
 2611               	.LM397:
 2612               	/* #APP */
 2613               	 ;  54 "accelerometer.c" 1
 2614 0b0a F894      		cli
 2615               	 ;  0 "" 2
 2616               	/* #NOAPP */
 2617               	.LBB453:
 2618               	.LBB454:
 2619               	.LM398:
 2620 0b0c E0EA      		ldi r30,lo8(1184)
 2621 0b0e F4E0      		ldi r31,hi8(1184)
 2622 0b10 E093 0000 		sts twiMaster,r30
 2623 0b14 F093 0000 		sts (twiMaster)+1,r31
 2624               	.LM399:
 2625 0b18 88E7      		ldi r24,lo8(120)
 2626 0b1a 8183      		std Z+1,r24
 2627               	.LM400:
 2628 0b1c 8BE9      		ldi r24,lo8(-101)
 2629 0b1e 8583      		std Z+5,r24
 2630               	.LM401:
 2631 0b20 81E0      		ldi r24,lo8(1)
 2632 0b22 8483      		std Z+4,r24
 2633               	.LBE454:
 2634               	.LBE453:
 2635               	.LM402:
 2636 0b24 8091 A200 		lds r24,162
 2637 0b28 8160      		ori r24,lo8(1)
 2638 0b2a E0EA      		ldi r30,lo8(160)
 2639 0b2c F0E0      		ldi r31,hi8(160)
 2640 0b2e 8283      		std Z+2,r24
 2641               	.LM403:
 2642               	/* #APP */
 2643               	 ;  64 "accelerometer.c" 1
 2644 0b30 7894      		sei
 2645               	 ;  0 "" 2
 2646               	.LM404:
 2647               	/* #NOAPP */
 2648 0b32 87E0      		ldi r24,lo8(7)
 2649 0b34 8983      		std Y+1,r24
 2650               	.LM405:
 2651 0b36 80E5      		ldi r24,lo8(80)
 2652 0b38 8A83      		std Y+2,r24
 2653               	.LM406:
 2654 0b3a 80E0      		ldi r24,lo8(twiMaster)
 2655 0b3c 90E0      		ldi r25,hi8(twiMaster)
 2656 0b3e 6CE4      		ldi r22,lo8(76)
 2657 0b40 AE01      		movw r20,r28
 2658 0b42 4F5F      		subi r20,lo8(-(1))
 2659 0b44 5F4F      		sbci r21,hi8(-(1))
 2660 0b46 22E0      		ldi r18,lo8(2)
 2661 0b48 00E0      		ldi r16,lo8(0)
 2662 0b4a 0E94 0000 		call TWI_MasterWriteRead
 2663               	.L209:
 2664               	.LM407:
 2665 0b4e 8091 0000 		lds r24,twiMaster+15
 2666 0b52 8823      		tst r24
 2667 0b54 01F4      		brne .L209
 2668               	.LM408:
 2669 0b56 85E0      		ldi r24,lo8(5)
 2670 0b58 8983      		std Y+1,r24
 2671               	.LM409:
 2672 0b5a 1A82      		std Y+2,__zero_reg__
 2673               	.LM410:
 2674 0b5c 80E0      		ldi r24,lo8(twiMaster)
 2675 0b5e 90E0      		ldi r25,hi8(twiMaster)
 2676 0b60 6CE4      		ldi r22,lo8(76)
 2677 0b62 AE01      		movw r20,r28
 2678 0b64 4F5F      		subi r20,lo8(-(1))
 2679 0b66 5F4F      		sbci r21,hi8(-(1))
 2680 0b68 22E0      		ldi r18,lo8(2)
 2681 0b6a 00E0      		ldi r16,lo8(0)
 2682 0b6c 0E94 0000 		call TWI_MasterWriteRead
 2683               	.L210:
 2684               	.LM411:
 2685 0b70 8091 0000 		lds r24,twiMaster+15
 2686 0b74 8823      		tst r24
 2687 0b76 01F4      		brne .L210
 2688               	.LM412:
 2689 0b78 86E0      		ldi r24,lo8(6)
 2690 0b7a 8983      		std Y+1,r24
 2691               	.LM413:
 2692 0b7c 84EE      		ldi r24,lo8(-28)
 2693 0b7e 8A83      		std Y+2,r24
 2694               	.LM414:
 2695 0b80 80E0      		ldi r24,lo8(twiMaster)
 2696 0b82 90E0      		ldi r25,hi8(twiMaster)
 2697 0b84 6CE4      		ldi r22,lo8(76)
 2698 0b86 AE01      		movw r20,r28
 2699 0b88 4F5F      		subi r20,lo8(-(1))
 2700 0b8a 5F4F      		sbci r21,hi8(-(1))
 2701 0b8c 22E0      		ldi r18,lo8(2)
 2702 0b8e 00E0      		ldi r16,lo8(0)
 2703 0b90 0E94 0000 		call TWI_MasterWriteRead
 2704               	.L211:
 2705               	.LM415:
 2706 0b94 8091 0000 		lds r24,twiMaster+15
 2707 0b98 8823      		tst r24
 2708 0b9a 01F4      		brne .L211
 2709               	.LM416:
 2710 0b9c 88E0      		ldi r24,lo8(8)
 2711 0b9e 8983      		std Y+1,r24
 2712               	.LM417:
 2713 0ba0 80EE      		ldi r24,lo8(-32)
 2714 0ba2 8A83      		std Y+2,r24
 2715               	.LM418:
 2716 0ba4 80E0      		ldi r24,lo8(twiMaster)
 2717 0ba6 90E0      		ldi r25,hi8(twiMaster)
 2718 0ba8 6CE4      		ldi r22,lo8(76)
 2719 0baa AE01      		movw r20,r28
 2720 0bac 4F5F      		subi r20,lo8(-(1))
 2721 0bae 5F4F      		sbci r21,hi8(-(1))
 2722 0bb0 22E0      		ldi r18,lo8(2)
 2723 0bb2 00E0      		ldi r16,lo8(0)
 2724 0bb4 0E94 0000 		call TWI_MasterWriteRead
 2725               	.L212:
 2726               	.LM419:
 2727 0bb8 8091 0000 		lds r24,twiMaster+15
 2728 0bbc 8823      		tst r24
 2729 0bbe 01F4      		brne .L212
 2730               	.LM420:
 2731 0bc0 89E0      		ldi r24,lo8(9)
 2732 0bc2 8983      		std Y+1,r24
 2733               	.LM421:
 2734 0bc4 88E0      		ldi r24,lo8(8)
 2735 0bc6 8A83      		std Y+2,r24
 2736               	.LM422:
 2737 0bc8 80E0      		ldi r24,lo8(twiMaster)
 2738 0bca 90E0      		ldi r25,hi8(twiMaster)
 2739 0bcc 6CE4      		ldi r22,lo8(76)
 2740 0bce AE01      		movw r20,r28
 2741 0bd0 4F5F      		subi r20,lo8(-(1))
 2742 0bd2 5F4F      		sbci r21,hi8(-(1))
 2743 0bd4 22E0      		ldi r18,lo8(2)
 2744 0bd6 00E0      		ldi r16,lo8(0)
 2745 0bd8 0E94 0000 		call TWI_MasterWriteRead
 2746               	.L213:
 2747               	.LM423:
 2748 0bdc 8091 0000 		lds r24,twiMaster+15
 2749 0be0 8823      		tst r24
 2750 0be2 01F4      		brne .L213
 2751               	.LM424:
 2752 0be4 8AE0      		ldi r24,lo8(10)
 2753 0be6 8983      		std Y+1,r24
 2754               	.LM425:
 2755 0be8 80E1      		ldi r24,lo8(16)
 2756 0bea 8A83      		std Y+2,r24
 2757               	.LM426:
 2758 0bec 80E0      		ldi r24,lo8(twiMaster)
 2759 0bee 90E0      		ldi r25,hi8(twiMaster)
 2760 0bf0 6CE4      		ldi r22,lo8(76)
 2761 0bf2 AE01      		movw r20,r28
 2762 0bf4 4F5F      		subi r20,lo8(-(1))
 2763 0bf6 5F4F      		sbci r21,hi8(-(1))
 2764 0bf8 22E0      		ldi r18,lo8(2)
 2765 0bfa 00E0      		ldi r16,lo8(0)
 2766 0bfc 0E94 0000 		call TWI_MasterWriteRead
 2767               	.L214:
 2768               	.LM427:
 2769 0c00 8091 0000 		lds r24,twiMaster+15
 2770 0c04 8823      		tst r24
 2771 0c06 01F4      		brne .L214
 2772               	.LM428:
 2773 0c08 87E0      		ldi r24,lo8(7)
 2774 0c0a 8983      		std Y+1,r24
 2775               	.LM429:
 2776 0c0c 81E5      		ldi r24,lo8(81)
 2777 0c0e 8A83      		std Y+2,r24
 2778               	.LM430:
 2779 0c10 80E0      		ldi r24,lo8(twiMaster)
 2780 0c12 90E0      		ldi r25,hi8(twiMaster)
 2781 0c14 6CE4      		ldi r22,lo8(76)
 2782 0c16 AE01      		movw r20,r28
 2783 0c18 4F5F      		subi r20,lo8(-(1))
 2784 0c1a 5F4F      		sbci r21,hi8(-(1))
 2785 0c1c 22E0      		ldi r18,lo8(2)
 2786 0c1e 00E0      		ldi r16,lo8(0)
 2787 0c20 0E94 0000 		call TWI_MasterWriteRead
 2788               	.L215:
 2789               	.LM431:
 2790 0c24 8091 0000 		lds r24,twiMaster+15
 2791 0c28 8823      		tst r24
 2792 0c2a 01F4      		brne .L215
 2793               	/* epilogue start */
 2794               	.LM432:
 2795 0c2c 0F90      		pop __tmp_reg__
 2796 0c2e 0F90      		pop __tmp_reg__
 2797 0c30 CF91      		pop r28
 2798 0c32 DF91      		pop r29
 2799 0c34 0F91      		pop r16
 2800 0c36 0895      		ret
 2801               	.LFE54:
 2803               	.global	__vector_46
 2805               	__vector_46:
 2806               	.LFB55:
 2807               	.LM433:
 2808 0c38 1F92      		push __zero_reg__
 2809 0c3a 0F92      		push r0
 2810 0c3c 0FB6      		in r0,__SREG__
 2811 0c3e 0F92      		push r0
 2812 0c40 1124      		clr __zero_reg__
 2813 0c42 2F93      		push r18
 2814 0c44 3F93      		push r19
 2815 0c46 4F93      		push r20
 2816 0c48 5F93      		push r21
 2817 0c4a 6F93      		push r22
 2818 0c4c 7F93      		push r23
 2819 0c4e 8F93      		push r24
 2820 0c50 9F93      		push r25
 2821 0c52 AF93      		push r26
 2822 0c54 BF93      		push r27
 2823 0c56 EF93      		push r30
 2824 0c58 FF93      		push r31
 2825               	/* prologue: Signal */
 2826               	/* frame size = 0 */
 2827               	.LM434:
 2828 0c5a 80E0      		ldi r24,lo8(twiMaster)
 2829 0c5c 90E0      		ldi r25,hi8(twiMaster)
 2830 0c5e 0E94 0000 		call TWI_MasterInterruptHandler
 2831               	/* epilogue start */
 2832               	.LM435:
 2833 0c62 FF91      		pop r31
 2834 0c64 EF91      		pop r30
 2835 0c66 BF91      		pop r27
 2836 0c68 AF91      		pop r26
 2837 0c6a 9F91      		pop r25
 2838 0c6c 8F91      		pop r24
 2839 0c6e 7F91      		pop r23
 2840 0c70 6F91      		pop r22
 2841 0c72 5F91      		pop r21
 2842 0c74 4F91      		pop r20
 2843 0c76 3F91      		pop r19
 2844 0c78 2F91      		pop r18
 2845 0c7a 0F90      		pop r0
 2846 0c7c 0FBE      		out __SREG__,r0
 2847 0c7e 0F90      		pop r0
 2848 0c80 1F90      		pop __zero_reg__
 2849 0c82 1895      		reti
 2850               	.LFE55:
 2852               	.global	init_dac
 2854               	init_dac:
 2855               	.LFB56:
 2856               	.LM436:
 2857               	/* prologue: function */
 2858               	/* frame size = 0 */
 2859               	.LM437:
 2860 0c84 E0E2      		ldi r30,lo8(800)
 2861 0c86 F3E0      		ldi r31,hi8(800)
 2862 0c88 80E4      		ldi r24,lo8(64)
 2863 0c8a 8183      		std Z+1,r24
 2864               	.LM438:
 2865 0c8c 89E0      		ldi r24,lo8(9)
 2866 0c8e 8283      		std Z+2,r24
 2867               	.LM439:
 2868 0c90 82E5      		ldi r24,lo8(82)
 2869 0c92 8483      		std Z+4,r24
 2870               	.LM440:
 2871 0c94 81E0      		ldi r24,lo8(1)
 2872 0c96 8093 2003 		sts 800,r24
 2873               	.LBB455:
 2874               	.LBB456:
 2875               	.LM441:
 2876 0c9a 8091 2003 		lds r24,800
 2877 0c9e 8460      		ori r24,lo8(4)
 2878 0ca0 8093 2003 		sts 800,r24
 2879               	.L227:
 2880               	.LM442:
 2881 0ca4 8091 2503 		lds r24,805
 2882 0ca8 80FF      		sbrs r24,0
 2883 0caa 00C0      		rjmp .L227
 2884               	.LM443:
 2885 0cac E0E2      		ldi r30,lo8(800)
 2886 0cae F3E0      		ldi r31,hi8(800)
 2887 0cb0 118E      		std Z+25,__zero_reg__
 2888               	.LBE456:
 2889               	.LBE455:
 2890               	.LBB457:
 2891               	.LBB458:
 2892               	.LM444:
 2893 0cb2 8091 2003 		lds r24,800
 2894 0cb6 8860      		ori r24,lo8(8)
 2895 0cb8 8093 2003 		sts 800,r24
 2896               	.L228:
 2897               	.LM445:
 2898 0cbc 8091 2503 		lds r24,805
 2899 0cc0 81FF      		sbrs r24,1
 2900 0cc2 00C0      		rjmp .L228
 2901               	.LM446:
 2902 0cc4 E0E2      		ldi r30,lo8(800)
 2903 0cc6 F3E0      		ldi r31,hi8(800)
 2904 0cc8 138E      		std Z+27,__zero_reg__
 2905               	/* epilogue start */
 2906               	.LBE458:
 2907               	.LBE457:
 2908               	.LM447:
 2909 0cca 0895      		ret
 2910               	.LFE56:
 2912               	.global	set_dac0
 2914               	set_dac0:
 2915               	.LFB57:
 2916               	.LM448:
 2917               	.LVL152:
 2918               	/* prologue: function */
 2919               	/* frame size = 0 */
 2920 0ccc 982F      		mov r25,r24
 2921               	.LM449:
 2922 0cce 8091 2003 		lds r24,800
 2923               	.LVL153:
 2924 0cd2 8460      		ori r24,lo8(4)
 2925 0cd4 8093 2003 		sts 800,r24
 2926               	.L233:
 2927               	.LM450:
 2928 0cd8 8091 2503 		lds r24,805
 2929 0cdc 80FF      		sbrs r24,0
 2930 0cde 00C0      		rjmp .L233
 2931               	.LM451:
 2932 0ce0 E0E2      		ldi r30,lo8(800)
 2933 0ce2 F3E0      		ldi r31,hi8(800)
 2934 0ce4 918F      		std Z+25,r25
 2935               	/* epilogue start */
 2936               	.LM452:
 2937 0ce6 0895      		ret
 2938               	.LFE57:
 2940               	.global	set_dac1
 2942               	set_dac1:
 2943               	.LFB58:
 2944               	.LM453:
 2945               	.LVL154:
 2946               	/* prologue: function */
 2947               	/* frame size = 0 */
 2948 0ce8 982F      		mov r25,r24
 2949               	.LM454:
 2950 0cea 8091 2003 		lds r24,800
 2951               	.LVL155:
 2952 0cee 8860      		ori r24,lo8(8)
 2953 0cf0 8093 2003 		sts 800,r24
 2954               	.L237:
 2955               	.LM455:
 2956 0cf4 8091 2503 		lds r24,805
 2957 0cf8 81FF      		sbrs r24,1
 2958 0cfa 00C0      		rjmp .L237
 2959               	.LM456:
 2960 0cfc E0E2      		ldi r30,lo8(800)
 2961 0cfe F3E0      		ldi r31,hi8(800)
 2962 0d00 938F      		std Z+27,r25
 2963               	/* epilogue start */
 2964               	.LM457:
 2965 0d02 0895      		ret
 2966               	.LFE58:
 2968               	.global	disable_dac0
 2970               	disable_dac0:
 2971               	.LFB59:
 2972               	.LM458:
 2973               	/* prologue: function */
 2974               	/* frame size = 0 */
 2975               	.LM459:
 2976 0d04 E0E2      		ldi r30,lo8(800)
 2977 0d06 F3E0      		ldi r31,hi8(800)
 2978 0d08 8081      		ld r24,Z
 2979 0d0a 8B7F      		andi r24,lo8(-5)
 2980 0d0c 8083      		st Z,r24
 2981               	/* epilogue start */
 2982               	.LM460:
 2983 0d0e 0895      		ret
 2984               	.LFE59:
 2986               	.global	disable_dac1
 2988               	disable_dac1:
 2989               	.LFB60:
 2990               	.LM461:
 2991               	/* prologue: function */
 2992               	/* frame size = 0 */
 2993               	.LM462:
 2994 0d10 E0E2      		ldi r30,lo8(800)
 2995 0d12 F3E0      		ldi r31,hi8(800)
 2996 0d14 8081      		ld r24,Z
 2997 0d16 877F      		andi r24,lo8(-9)
 2998 0d18 8083      		st Z,r24
 2999               	/* epilogue start */
 3000               	.LM463:
 3001 0d1a 0895      		ret
 3002               	.LFE60:
 3004               	.global	init_buzzer
 3006               	init_buzzer:
 3007               	.LFB61:
 3008               	.LM464:
 3009               	/* prologue: function */
 3010               	/* frame size = 0 */
 3011               	.LM465:
 3012 0d1c E0E4      		ldi r30,lo8(2368)
 3013 0d1e F9E0      		ldi r31,hi8(2368)
 3014 0d20 86E0      		ldi r24,lo8(6)
 3015 0d22 8083      		st Z,r24
 3016               	.LM466:
 3017 0d24 81E0      		ldi r24,lo8(1)
 3018 0d26 8183      		std Z+1,r24
 3019               	.LM467:
 3020 0d28 E0E6      		ldi r30,lo8(1632)
 3021 0d2a F6E0      		ldi r31,hi8(1632)
 3022 0d2c 8181      		ldd r24,Z+1
 3023 0d2e 8061      		ori r24,lo8(16)
 3024 0d30 8183      		std Z+1,r24
 3025               	.LM468:
 3026 0d32 8681      		ldd r24,Z+6
 3027 0d34 8061      		ori r24,lo8(16)
 3028 0d36 8683      		std Z+6,r24
 3029               	/* epilogue start */
 3030               	.LM469:
 3031 0d38 0895      		ret
 3032               	.LFE61:
 3034               	.global	set_buzzer
 3036               	set_buzzer:
 3037               	.LFB62:
 3038               	.LM470:
 3039               	.LVL156:
 3040               	/* prologue: function */
 3041               	/* frame size = 0 */
 3042               	.LM471:
 3043 0d3a E0E4      		ldi r30,lo8(2368)
 3044 0d3c F9E0      		ldi r31,hi8(2368)
 3045 0d3e 2181      		ldd r18,Z+1
 3046 0d40 2061      		ori r18,lo8(16)
 3047 0d42 2183      		std Z+1,r18
 3048               	.LM472:
 3049               	/* #APP */
 3050               	 ;  20 "buzzer.c" 1
 3051 0d44 F894      		cli
 3052               	 ;  0 "" 2
 3053               	.LM473:
 3054               	/* #NOAPP */
 3055 0d46 E0E4      		ldi r30,lo8(2368)
 3056 0d48 F9E0      		ldi r31,hi8(2368)
 3057 0d4a 80A7      		std Z+40,r24
 3058 0d4c 91A7      		std Z+41,r25
 3059               	.LVL157:
 3060               	.LM474:
 3061               	/* #APP */
 3062               	 ;  22 "buzzer.c" 1
 3063 0d4e 7894      		sei
 3064               	 ;  0 "" 2
 3065               	/* epilogue start */
 3066               	.LM475:
 3067               	/* #NOAPP */
 3068 0d50 0895      		ret
 3069               	.LFE62:
 3071               	.global	turn_off_buzzer
 3073               	turn_off_buzzer:
 3074               	.LFB63:
 3075               	.LM476:
 3076               	/* prologue: function */
 3077               	/* frame size = 0 */
 3078               	.LM477:
 3079 0d52 E0E4      		ldi r30,lo8(2368)
 3080 0d54 F9E0      		ldi r31,hi8(2368)
 3081 0d56 8181      		ldd r24,Z+1
 3082 0d58 8F7E      		andi r24,lo8(-17)
 3083 0d5a 8183      		std Z+1,r24
 3084               	.LM478:
 3085 0d5c E0E6      		ldi r30,lo8(1632)
 3086 0d5e F6E0      		ldi r31,hi8(1632)
 3087 0d60 8681      		ldd r24,Z+6
 3088 0d62 8061      		ori r24,lo8(16)
 3089 0d64 8683      		std Z+6,r24
 3090               	/* epilogue start */
 3091               	.LM479:
 3092 0d66 0895      		ret
 3093               	.LFE63:
 3095               	.global	set_pwm
 3097               	set_pwm:
 3098               	.LFB64:
 3099               	.LM480:
 3100               	/* prologue: function */
 3101               	/* frame size = 0 */
 3102               	.LM481:
 3103 0d68 E0E0      		ldi r30,lo8(2560)
 3104 0d6a FAE0      		ldi r31,hi8(2560)
 3105 0d6c 81E0      		ldi r24,lo8(1)
 3106 0d6e 8083      		st Z,r24
 3107               	.LM482:
 3108 0d70 83E0      		ldi r24,lo8(3)
 3109 0d72 8183      		std Z+1,r24
 3110               	.LM483:
 3111 0d74 1382      		std Z+3,__zero_reg__
 3112               	.LM484:
 3113 0d76 8091 0000 		lds r24,pwm_frequency
 3114 0d7a 9091 0000 		lds r25,(pwm_frequency)+1
 3115 0d7e 86AB      		std Z+54,r24
 3116 0d80 97AB      		std Z+55,r25
 3117               	/* epilogue start */
 3118               	.LM485:
 3119 0d82 0895      		ret
 3120               	.LFE64:
 3122               	.global	turn_off_pwm0
 3124               	turn_off_pwm0:
 3125               	.LFB65:
 3126               	.LM486:
 3127               	/* prologue: function */
 3128               	/* frame size = 0 */
 3129               	.LM487:
 3130 0d84 E0E0      		ldi r30,lo8(2560)
 3131 0d86 FAE0      		ldi r31,hi8(2560)
 3132 0d88 8181      		ldd r24,Z+1
 3133 0d8a 8F7B      		andi r24,lo8(-65)
 3134 0d8c 8183      		std Z+1,r24
 3135               	/* epilogue start */
 3136               	.LM488:
 3137 0d8e 0895      		ret
 3138               	.LFE65:
 3140               	.global	turn_off_pwm1
 3142               	turn_off_pwm1:
 3143               	.LFB66:
 3144               	.LM489:
 3145               	/* prologue: function */
 3146               	/* frame size = 0 */
 3147               	.LM490:
 3148 0d90 E0E0      		ldi r30,lo8(2560)
 3149 0d92 FAE0      		ldi r31,hi8(2560)
 3150 0d94 8181      		ldd r24,Z+1
 3151 0d96 8F77      		andi r24,lo8(127)
 3152 0d98 8183      		std Z+1,r24
 3153               	/* epilogue start */
 3154               	.LM491:
 3155 0d9a 0895      		ret
 3156               	.LFE66:
 3158               	.global	set_pwm0
 3160               	set_pwm0:
 3161               	.LFB67:
 3162               	.LM492:
 3163               	.LVL158:
 3164               	/* prologue: function */
 3165               	/* frame size = 0 */
 3166               	.LM493:
 3167 0d9c A0E0      		ldi r26,lo8(2560)
 3168 0d9e BAE0      		ldi r27,hi8(2560)
 3169 0da0 1196      		adiw r26,1
 3170 0da2 2C91      		ld r18,X
 3171 0da4 1197      		sbiw r26,1
 3172 0da6 2064      		ori r18,lo8(64)
 3173 0da8 1196      		adiw r26,1
 3174 0daa 2C93      		st X,r18
 3175 0dac 1197      		sbiw r26,1
 3176               	.LM494:
 3177 0dae 24E0      		ldi r18,lo8(4)
 3178 0db0 E0E8      		ldi r30,lo8(1664)
 3179 0db2 F6E0      		ldi r31,hi8(1664)
 3180 0db4 2183      		std Z+1,r18
 3181               	.LM495:
 3182 0db6 9C96      		adiw r26,44
 3183 0db8 8D93      		st X+,r24
 3184 0dba 9C93      		st X,r25
 3185 0dbc 9D97      		sbiw r26,44+1
 3186               	/* epilogue start */
 3187               	.LM496:
 3188 0dbe 0895      		ret
 3189               	.LFE67:
 3191               	.global	set_pwm1
 3193               	set_pwm1:
 3194               	.LFB68:
 3195               	.LM497:
 3196               	.LVL159:
 3197               	/* prologue: function */
 3198               	/* frame size = 0 */
 3199               	.LM498:
 3200 0dc0 A0E0      		ldi r26,lo8(2560)
 3201 0dc2 BAE0      		ldi r27,hi8(2560)
 3202 0dc4 1196      		adiw r26,1
 3203 0dc6 2C91      		ld r18,X
 3204 0dc8 1197      		sbiw r26,1
 3205 0dca 2068      		ori r18,lo8(-128)
 3206 0dcc 1196      		adiw r26,1
 3207 0dce 2C93      		st X,r18
 3208 0dd0 1197      		sbiw r26,1
 3209               	.LM499:
 3210 0dd2 28E0      		ldi r18,lo8(8)
 3211 0dd4 E0E8      		ldi r30,lo8(1664)
 3212 0dd6 F6E0      		ldi r31,hi8(1664)
 3213 0dd8 2183      		std Z+1,r18
 3214               	.LM500:
 3215 0dda 9E96      		adiw r26,46
 3216 0ddc 8D93      		st X+,r24
 3217 0dde 9C93      		st X,r25
 3218 0de0 9F97      		sbiw r26,46+1
 3219               	/* epilogue start */
 3220               	.LM501:
 3221 0de2 0895      		ret
 3222               	.LFE68:
 3224               	.global	set_output
 3226               	set_output:
 3227               	.LFB69:
 3228               	.LM502:
 3229               	.LVL160:
 3230               	/* prologue: function */
 3231               	/* frame size = 0 */
 3232               	.LM503:
 3233 0de4 8433      		cpi r24,lo8(52)
 3234 0de6 01F0      		breq .L266
 3235 0de8 8533      		cpi r24,lo8(53)
 3236 0dea 00F4      		brsh .L272
 3237 0dec 8133      		cpi r24,lo8(49)
 3238 0dee 01F0      		breq .L263
 3239 0df0 8233      		cpi r24,lo8(50)
 3240 0df2 00F4      		brsh .L273
 3241 0df4 8033      		cpi r24,lo8(48)
 3242 0df6 01F0      		breq .+2
 3243 0df8 00C0      		rjmp .L285
 3244 0dfa 00C0      		rjmp .L298
 3245               	.L273:
 3246 0dfc 8233      		cpi r24,lo8(50)
 3247 0dfe 01F0      		breq .L264
 3248 0e00 8333      		cpi r24,lo8(51)
 3249 0e02 01F0      		breq .+2
 3250 0e04 00C0      		rjmp .L285
 3251 0e06 00C0      		rjmp .L299
 3252               	.L272:
 3253 0e08 8733      		cpi r24,lo8(55)
 3254 0e0a 01F0      		breq .L269
 3255 0e0c 8833      		cpi r24,lo8(56)
 3256 0e0e 00F4      		brsh .L274
 3257 0e10 8533      		cpi r24,lo8(53)
 3258 0e12 01F0      		breq .L267
 3259 0e14 8633      		cpi r24,lo8(54)
 3260 0e16 01F0      		breq .+2
 3261 0e18 00C0      		rjmp .L285
 3262 0e1a 00C0      		rjmp .L300
 3263               	.L274:
 3264 0e1c 8833      		cpi r24,lo8(56)
 3265 0e1e 01F0      		breq .L270
 3266 0e20 8933      		cpi r24,lo8(57)
 3267 0e22 01F0      		breq .+2
 3268 0e24 00C0      		rjmp .L285
 3269 0e26 00C0      		rjmp .L301
 3270               	.L298:
 3271               	.LM504:
 3272 0e28 E0E0      		ldi r30,lo8(1536)
 3273 0e2a F6E0      		ldi r31,hi8(1536)
 3274 0e2c 81E0      		ldi r24,lo8(1)
 3275               	.LVL161:
 3276 0e2e 00C0      		rjmp .L288
 3277               	.LVL162:
 3278               	.L263:
 3279               	.LM505:
 3280 0e30 E0E0      		ldi r30,lo8(1536)
 3281 0e32 F6E0      		ldi r31,hi8(1536)
 3282 0e34 82E0      		ldi r24,lo8(2)
 3283               	.LVL163:
 3284 0e36 00C0      		rjmp .L288
 3285               	.LVL164:
 3286               	.L264:
 3287               	.LM506:
 3288 0e38 E0E0      		ldi r30,lo8(1536)
 3289 0e3a F6E0      		ldi r31,hi8(1536)
 3290 0e3c 00C0      		rjmp .L296
 3291               	.L299:
 3292               	.LM507:
 3293 0e3e E0E0      		ldi r30,lo8(1536)
 3294 0e40 F6E0      		ldi r31,hi8(1536)
 3295 0e42 00C0      		rjmp .L297
 3296               	.L266:
 3297               	.LM508:
 3298 0e44 E0E0      		ldi r30,lo8(1536)
 3299 0e46 F6E0      		ldi r31,hi8(1536)
 3300 0e48 80E1      		ldi r24,lo8(16)
 3301               	.LVL165:
 3302 0e4a 00C0      		rjmp .L288
 3303               	.LVL166:
 3304               	.L267:
 3305               	.LM509:
 3306 0e4c E0E0      		ldi r30,lo8(1536)
 3307 0e4e F6E0      		ldi r31,hi8(1536)
 3308 0e50 80E2      		ldi r24,lo8(32)
 3309               	.LVL167:
 3310 0e52 00C0      		rjmp .L288
 3311               	.LVL168:
 3312               	.L300:
 3313               	.LBB459:
 3314               	.LBB460:
 3315               	.LM510:
 3316 0e54 8091 2003 		lds r24,800
 3317               	.LVL169:
 3318 0e58 8B7F      		andi r24,lo8(-5)
 3319 0e5a 8093 2003 		sts 800,r24
 3320               	.LBE460:
 3321               	.LBE459:
 3322               	.LM511:
 3323 0e5e E0E2      		ldi r30,lo8(1568)
 3324 0e60 F6E0      		ldi r31,hi8(1568)
 3325 0e62 00C0      		rjmp .L296
 3326               	.LVL170:
 3327               	.L269:
 3328               	.LBB461:
 3329               	.LBB462:
 3330               	.LM512:
 3331 0e64 8091 2003 		lds r24,800
 3332               	.LVL171:
 3333 0e68 877F      		andi r24,lo8(-9)
 3334 0e6a 8093 2003 		sts 800,r24
 3335               	.LBE462:
 3336               	.LBE461:
 3337               	.LM513:
 3338 0e6e E0E2      		ldi r30,lo8(1568)
 3339 0e70 F6E0      		ldi r31,hi8(1568)
 3340               	.LVL172:
 3341               	.L297:
 3342 0e72 88E0      		ldi r24,lo8(8)
 3343               	.LVL173:
 3344 0e74 00C0      		rjmp .L288
 3345               	.LVL174:
 3346               	.L270:
 3347               	.LBB463:
 3348               	.LBB464:
 3349               	.LM514:
 3350 0e76 8091 010A 		lds r24,2561
 3351               	.LVL175:
 3352 0e7a 8F7B      		andi r24,lo8(-65)
 3353 0e7c E0E0      		ldi r30,lo8(2560)
 3354 0e7e FAE0      		ldi r31,hi8(2560)
 3355 0e80 8183      		std Z+1,r24
 3356               	.LBE464:
 3357               	.LBE463:
 3358               	.LM515:
 3359 0e82 E0E8      		ldi r30,lo8(1664)
 3360 0e84 F6E0      		ldi r31,hi8(1664)
 3361               	.LVL176:
 3362               	.L296:
 3363 0e86 84E0      		ldi r24,lo8(4)
 3364               	.LVL177:
 3365               	.L288:
 3366 0e88 8183      		std Z+1,r24
 3367               	.LM516:
 3368 0e8a 6623      		tst r22
 3369 0e8c 01F4      		brne .L286
 3370               	.L283:
 3371               	.LM517:
 3372 0e8e 8683      		std Z+6,r24
 3373 0e90 0895      		ret
 3374               	.LVL178:
 3375               	.L301:
 3376               	.LBB465:
 3377               	.LBB466:
 3378               	.LM518:
 3379 0e92 8091 010A 		lds r24,2561
 3380               	.LVL179:
 3381 0e96 8F77      		andi r24,lo8(127)
 3382 0e98 E0E0      		ldi r30,lo8(2560)
 3383 0e9a FAE0      		ldi r31,hi8(2560)
 3384 0e9c 8183      		std Z+1,r24
 3385               	.LBE466:
 3386               	.LBE465:
 3387               	.LM519:
 3388 0e9e E0E8      		ldi r30,lo8(1664)
 3389 0ea0 F6E0      		ldi r31,hi8(1664)
 3390 0ea2 88E0      		ldi r24,lo8(8)
 3391 0ea4 8183      		std Z+1,r24
 3392               	.LM520:
 3393 0ea6 6623      		tst r22
 3394 0ea8 01F0      		breq .L284
 3395               	.L286:
 3396               	.LM521:
 3397 0eaa 8583      		std Z+5,r24
 3398 0eac 0895      		ret
 3399               	.L284:
 3400               	.LM522:
 3401 0eae 8683      		std Z+6,r24
 3402               	.LVL180:
 3403               	.L285:
 3404 0eb0 0895      		ret
 3405               	.LFE69:
 3407               	.global	read_input
 3409               	read_input:
 3410               	.LFB70:
 3411               	.LM523:
 3412               	.LVL181:
 3413               	/* prologue: function */
 3414               	/* frame size = 0 */
 3415               	.LM524:
 3416 0eb2 8433      		cpi r24,lo8(52)
 3417 0eb4 01F4      		brne .+2
 3418 0eb6 00C0      		rjmp .L308
 3419 0eb8 8533      		cpi r24,lo8(53)
 3420 0eba 00F4      		brsh .L314
 3421 0ebc 8133      		cpi r24,lo8(49)
 3422 0ebe 01F0      		breq .L305
 3423 0ec0 8233      		cpi r24,lo8(50)
 3424 0ec2 00F4      		brsh .L315
 3425 0ec4 8033      		cpi r24,lo8(48)
 3426 0ec6 01F4      		brne .L303
 3427 0ec8 00C0      		rjmp .L321
 3428               	.L315:
 3429 0eca 8233      		cpi r24,lo8(50)
 3430 0ecc 01F0      		breq .L306
 3431 0ece 8333      		cpi r24,lo8(51)
 3432 0ed0 01F4      		brne .L303
 3433 0ed2 00C0      		rjmp .L322
 3434               	.L314:
 3435 0ed4 8733      		cpi r24,lo8(55)
 3436 0ed6 01F4      		brne .+2
 3437 0ed8 00C0      		rjmp .L311
 3438 0eda 8833      		cpi r24,lo8(56)
 3439 0edc 00F4      		brsh .L316
 3440 0ede 8533      		cpi r24,lo8(53)
 3441 0ee0 01F0      		breq .L309
 3442 0ee2 8633      		cpi r24,lo8(54)
 3443 0ee4 01F4      		brne .L303
 3444 0ee6 00C0      		rjmp .L323
 3445               	.L316:
 3446 0ee8 8833      		cpi r24,lo8(56)
 3447 0eea 01F4      		brne .+2
 3448 0eec 00C0      		rjmp .L312
 3449 0eee 8933      		cpi r24,lo8(57)
 3450 0ef0 01F4      		brne .+2
 3451 0ef2 00C0      		rjmp .L313
 3452               	.L303:
 3453 0ef4 80ED      		ldi r24,lo8(-48)
 3454               	.LVL182:
 3455 0ef6 0895      		ret
 3456               	.LVL183:
 3457               	.L321:
 3458               	.LM525:
 3459 0ef8 81E0      		ldi r24,lo8(1)
 3460               	.LVL184:
 3461 0efa E0E0      		ldi r30,lo8(1536)
 3462 0efc F6E0      		ldi r31,hi8(1536)
 3463 0efe 8283      		std Z+2,r24
 3464               	.LM526:
 3465 0f00 8091 0806 		lds r24,1544
 3466 0f04 8170      		andi r24,lo8(1)
 3467 0f06 0895      		ret
 3468               	.LVL185:
 3469               	.L305:
 3470               	.LM527:
 3471 0f08 82E0      		ldi r24,lo8(2)
 3472               	.LVL186:
 3473 0f0a E0E0      		ldi r30,lo8(1536)
 3474 0f0c F6E0      		ldi r31,hi8(1536)
 3475 0f0e 8283      		std Z+2,r24
 3476               	.LM528:
 3477 0f10 8091 0806 		lds r24,1544
 3478 0f14 90E0      		ldi r25,lo8(0)
 3479 0f16 8270      		andi r24,lo8(2)
 3480 0f18 9070      		andi r25,hi8(2)
 3481 0f1a 9595      		asr r25
 3482 0f1c 8795      		ror r24
 3483 0f1e 0895      		ret
 3484               	.LVL187:
 3485               	.L306:
 3486               	.LM529:
 3487 0f20 84E0      		ldi r24,lo8(4)
 3488               	.LVL188:
 3489 0f22 E0E0      		ldi r30,lo8(1536)
 3490 0f24 F6E0      		ldi r31,hi8(1536)
 3491 0f26 8283      		std Z+2,r24
 3492               	.LM530:
 3493 0f28 8091 0806 		lds r24,1544
 3494 0f2c 00C0      		rjmp .L319
 3495               	.LVL189:
 3496               	.L322:
 3497               	.LM531:
 3498 0f2e 88E0      		ldi r24,lo8(8)
 3499               	.LVL190:
 3500 0f30 E0E0      		ldi r30,lo8(1536)
 3501 0f32 F6E0      		ldi r31,hi8(1536)
 3502 0f34 8283      		std Z+2,r24
 3503               	.LM532:
 3504 0f36 8091 0806 		lds r24,1544
 3505 0f3a 00C0      		rjmp .L320
 3506               	.LVL191:
 3507               	.L308:
 3508               	.LM533:
 3509 0f3c 80E1      		ldi r24,lo8(16)
 3510               	.LVL192:
 3511 0f3e E0E0      		ldi r30,lo8(1536)
 3512 0f40 F6E0      		ldi r31,hi8(1536)
 3513 0f42 8283      		std Z+2,r24
 3514               	.LM534:
 3515 0f44 8091 0806 		lds r24,1544
 3516 0f48 90E0      		ldi r25,lo8(0)
 3517 0f4a 8071      		andi r24,lo8(16)
 3518 0f4c 9070      		andi r25,hi8(16)
 3519 0f4e B4E0      		ldi r27,4
 3520 0f50 9595      	1:	asr r25
 3521 0f52 8795      		ror r24
 3522 0f54 BA95      		dec r27
 3523 0f56 01F4      		brne 1b
 3524 0f58 0895      		ret
 3525               	.LVL193:
 3526               	.L309:
 3527               	.LM535:
 3528 0f5a 80E2      		ldi r24,lo8(32)
 3529               	.LVL194:
 3530 0f5c E0E0      		ldi r30,lo8(1536)
 3531 0f5e F6E0      		ldi r31,hi8(1536)
 3532 0f60 8283      		std Z+2,r24
 3533               	.LM536:
 3534 0f62 8091 0806 		lds r24,1544
 3535 0f66 90E0      		ldi r25,lo8(0)
 3536 0f68 8072      		andi r24,lo8(32)
 3537 0f6a 9070      		andi r25,hi8(32)
 3538 0f6c A5E0      		ldi r26,5
 3539 0f6e 9595      	1:	asr r25
 3540 0f70 8795      		ror r24
 3541 0f72 AA95      		dec r26
 3542 0f74 01F4      		brne 1b
 3543 0f76 0895      		ret
 3544               	.LVL195:
 3545               	.L323:
 3546               	.LBB467:
 3547               	.LBB468:
 3548               	.LM537:
 3549 0f78 8091 2003 		lds r24,800
 3550               	.LVL196:
 3551 0f7c 8B7F      		andi r24,lo8(-5)
 3552 0f7e 8093 2003 		sts 800,r24
 3553               	.LBE468:
 3554               	.LBE467:
 3555               	.LM538:
 3556 0f82 84E0      		ldi r24,lo8(4)
 3557 0f84 E0E2      		ldi r30,lo8(1568)
 3558 0f86 F6E0      		ldi r31,hi8(1568)
 3559 0f88 8283      		std Z+2,r24
 3560               	.LM539:
 3561 0f8a 8091 2806 		lds r24,1576
 3562 0f8e 00C0      		rjmp .L319
 3563               	.LVL197:
 3564               	.L311:
 3565               	.LBB469:
 3566               	.LBB470:
 3567               	.LM540:
 3568 0f90 8091 2003 		lds r24,800
 3569               	.LVL198:
 3570 0f94 877F      		andi r24,lo8(-9)
 3571 0f96 8093 2003 		sts 800,r24
 3572               	.LBE470:
 3573               	.LBE469:
 3574               	.LM541:
 3575 0f9a 88E0      		ldi r24,lo8(8)
 3576 0f9c E0E2      		ldi r30,lo8(1568)
 3577 0f9e F6E0      		ldi r31,hi8(1568)
 3578 0fa0 8283      		std Z+2,r24
 3579               	.LM542:
 3580 0fa2 8091 2806 		lds r24,1576
 3581               	.L320:
 3582 0fa6 90E0      		ldi r25,lo8(0)
 3583 0fa8 8870      		andi r24,lo8(8)
 3584 0faa 9070      		andi r25,hi8(8)
 3585 0fac F3E0      		ldi r31,3
 3586 0fae 9595      	1:	asr r25
 3587 0fb0 8795      		ror r24
 3588 0fb2 FA95      		dec r31
 3589 0fb4 01F4      		brne 1b
 3590 0fb6 0895      		ret
 3591               	.LVL199:
 3592               	.L312:
 3593               	.LBB471:
 3594               	.LBB472:
 3595               	.LM543:
 3596 0fb8 8091 010A 		lds r24,2561
 3597               	.LVL200:
 3598 0fbc 8F7B      		andi r24,lo8(-65)
 3599 0fbe E0E0      		ldi r30,lo8(2560)
 3600 0fc0 FAE0      		ldi r31,hi8(2560)
 3601 0fc2 8183      		std Z+1,r24
 3602               	.LBE472:
 3603               	.LBE471:
 3604               	.LM544:
 3605 0fc4 84E0      		ldi r24,lo8(4)
 3606 0fc6 E0E8      		ldi r30,lo8(1664)
 3607 0fc8 F6E0      		ldi r31,hi8(1664)
 3608 0fca 8283      		std Z+2,r24
 3609               	.LM545:
 3610 0fcc 8091 8806 		lds r24,1672
 3611               	.L319:
 3612 0fd0 90E0      		ldi r25,lo8(0)
 3613 0fd2 8470      		andi r24,lo8(4)
 3614 0fd4 9070      		andi r25,hi8(4)
 3615 0fd6 9595      		asr r25
 3616 0fd8 8795      		ror r24
 3617 0fda 9595      		asr r25
 3618 0fdc 8795      		ror r24
 3619 0fde 0895      		ret
 3620               	.LVL201:
 3621               	.L313:
 3622               	.LBB473:
 3623               	.LBB474:
 3624               	.LM546:
 3625 0fe0 8091 010A 		lds r24,2561
 3626               	.LVL202:
 3627 0fe4 8F77      		andi r24,lo8(127)
 3628 0fe6 E0E0      		ldi r30,lo8(2560)
 3629 0fe8 FAE0      		ldi r31,hi8(2560)
 3630 0fea 8183      		std Z+1,r24
 3631               	.LBE474:
 3632               	.LBE473:
 3633               	.LM547:
 3634 0fec 88E0      		ldi r24,lo8(8)
 3635 0fee E0E8      		ldi r30,lo8(1664)
 3636 0ff0 F6E0      		ldi r31,hi8(1664)
 3637 0ff2 8283      		std Z+2,r24
 3638               	.LM548:
 3639 0ff4 8091 8806 		lds r24,1672
 3640 0ff8 90E0      		ldi r25,lo8(0)
 3641 0ffa 8870      		andi r24,lo8(8)
 3642 0ffc 9070      		andi r25,hi8(8)
 3643 0ffe 73E0      		ldi r23,3
 3644 1000 9595      	1:	asr r25
 3645 1002 8795      		ror r24
 3646 1004 7A95      		dec r23
 3647 1006 01F4      		brne 1b
 3648               	.LM549:
 3649 1008 0895      		ret
 3650               	.LFE70:
 3652               	.global	init_ir_read
 3654               	init_ir_read:
 3655               	.LFB71:
 3656               	.LM550:
 3657               	/* prologue: function */
 3658               	/* frame size = 0 */
 3659               	.LM551:
 3660 100a 81E0      		ldi r24,lo8(1)
 3661 100c 8093 0000 		sts ir_read_flag,r24
 3662               	.LM552:
 3663 1010 A0E0      		ldi r26,lo8(2560)
 3664 1012 BAE0      		ldi r27,hi8(2560)
 3665 1014 85E0      		ldi r24,lo8(5)
 3666 1016 8C93      		st X,r24
 3667               	.LM553:
 3668 1018 90E1      		ldi r25,lo8(16)
 3669 101a 1196      		adiw r26,1
 3670 101c 9C93      		st X,r25
 3671 101e 1197      		sbiw r26,1
 3672               	.LM554:
 3673 1020 88E2      		ldi r24,lo8(40)
 3674 1022 1396      		adiw r26,3
 3675 1024 8C93      		st X,r24
 3676 1026 1397      		sbiw r26,3
 3677               	.LM555:
 3678 1028 E0E4      		ldi r30,lo8(1600)
 3679 102a F6E0      		ldi r31,hi8(1600)
 3680 102c 9283      		std Z+2,r25
 3681               	.LM556:
 3682 102e 8489      		ldd r24,Z+20
 3683 1030 8064      		ori r24,lo8(64)
 3684 1032 848B      		std Z+20,r24
 3685               	.LM557:
 3686 1034 84E6      		ldi r24,lo8(100)
 3687 1036 8093 8001 		sts 384,r24
 3688               	.LM558:
 3689 103a 80E4      		ldi r24,lo8(8000)
 3690 103c 9FE1      		ldi r25,hi8(8000)
 3691 103e D696      		adiw r26,54
 3692 1040 8D93      		st X+,r24
 3693 1042 9C93      		st X,r25
 3694 1044 D797      		sbiw r26,54+1
 3695               	.LM559:
 3696 1046 1092 0000 		sts signal_count,__zero_reg__
 3697               	.LM560:
 3698 104a 1092 0000 		sts ir_read_time_out,__zero_reg__
 3699               	.LM561:
 3700 104e 83E0      		ldi r24,lo8(3)
 3701 1050 1696      		adiw r26,6
 3702 1052 8C93      		st X,r24
 3703 1054 1697      		sbiw r26,6
 3704               	.LM562:
 3705 1056 1796      		adiw r26,7
 3706 1058 8C93      		st X,r24
 3707               	.LM563:
 3708 105a E0EA      		ldi r30,lo8(160)
 3709 105c F0E0      		ldi r31,hi8(160)
 3710 105e 8281      		ldd r24,Z+2
 3711 1060 8460      		ori r24,lo8(4)
 3712 1062 8283      		std Z+2,r24
 3713               	/* epilogue start */
 3714               	.LM564:
 3715 1064 0895      		ret
 3716               	.LFE71:
 3718               	.global	ir_fail
 3720               	ir_fail:
 3721               	.LFB74:
 3722               	.LM565:
 3723               	/* prologue: function */
 3724               	/* frame size = 0 */
 3725               	.L327:
 3726               	.LBB475:
 3727               	.LBB476:
 3728               	.LM566:
 3729 1066 8091 B109 		lds r24,2481
 3730 106a 85FF      		sbrs r24,5
 3731 106c 00C0      		rjmp .L327
 3732               	.LM567:
 3733 106e 85E4      		ldi r24,lo8(69)
 3734 1070 8093 B009 		sts 2480,r24
 3735               	.L328:
 3736               	.LBE476:
 3737               	.LBE475:
 3738               	.LBB477:
 3739               	.LBB478:
 3740               	.LM568:
 3741 1074 8091 B109 		lds r24,2481
 3742 1078 85FF      		sbrs r24,5
 3743 107a 00C0      		rjmp .L328
 3744               	.LM569:
 3745 107c 82E5      		ldi r24,lo8(82)
 3746 107e 8093 B009 		sts 2480,r24
 3747               	.L329:
 3748               	.LBE478:
 3749               	.LBE477:
 3750               	.LBB479:
 3751               	.LBB480:
 3752               	.LM570:
 3753 1082 8091 B109 		lds r24,2481
 3754 1086 85FF      		sbrs r24,5
 3755 1088 00C0      		rjmp .L329
 3756               	.LM571:
 3757 108a 82E5      		ldi r24,lo8(82)
 3758 108c 8093 B009 		sts 2480,r24
 3759               	.LBE480:
 3760               	.LBE479:
 3761               	.LM572:
 3762 1090 1092 0000 		sts ir_read_flag,__zero_reg__
 3763               	/* epilogue start */
 3764               	.LM573:
 3765 1094 0895      		ret
 3766               	.LFE74:
 3768               	.global	disable_ir_read
 3770               	disable_ir_read:
 3771               	.LFB75:
 3772               	.LM574:
 3773               	/* prologue: function */
 3774               	/* frame size = 0 */
 3775               	.LM575:
 3776 1096 E0E0      		ldi r30,lo8(2560)
 3777 1098 FAE0      		ldi r31,hi8(2560)
 3778 109a 1682      		std Z+6,__zero_reg__
 3779               	.LM576:
 3780 109c 1782      		std Z+7,__zero_reg__
 3781               	.LM577:
 3782 109e 1092 8001 		sts 384,__zero_reg__
 3783               	.LM578:
 3784 10a2 1382      		std Z+3,__zero_reg__
 3785               	.LM579:
 3786 10a4 1182      		std Z+1,__zero_reg__
 3787               	.LM580:
 3788 10a6 1082      		st Z,__zero_reg__
 3789               	/* epilogue start */
 3790               	.LM581:
 3791 10a8 0895      		ret
 3792               	.LFE75:
 3794               	.global	dump_data
 3796               	dump_data:
 3797               	.LFB76:
 3798               	.LM582:
 3799               	/* prologue: function */
 3800               	/* frame size = 0 */
 3801               	.LM583:
 3802 10aa 8091 0000 		lds r24,signal_count
 3803 10ae 8530      		cpi r24,lo8(5)
 3804 10b0 00F0      		brlo .L337
 3805               	.LM584:
 3806 10b2 9091 0000 		lds r25,signal_count
 3807               	.L338:
 3808               	.LBB481:
 3809               	.LBB482:
 3810               	.LM585:
 3811 10b6 8091 B109 		lds r24,2481
 3812 10ba 85FF      		sbrs r24,5
 3813 10bc 00C0      		rjmp .L338
 3814               	.LBE482:
 3815               	.LBE481:
 3816               	.LM586:
 3817 10be 9150      		subi r25,lo8(-(-1))
 3818               	.LBB484:
 3819               	.LBB483:
 3820               	.LM587:
 3821 10c0 9093 B009 		sts 2480,r25
 3822 10c4 92E0      		ldi r25,lo8(2)
 3823               	.LVL203:
 3824 10c6 00C0      		rjmp .L339
 3825               	.L341:
 3826               	.LBE483:
 3827               	.LBE484:
 3828               	.LBB485:
 3829               	.LM588:
 3830 10c8 E92F      		mov r30,r25
 3831 10ca F0E0      		ldi r31,lo8(0)
 3832 10cc E050      		subi r30,lo8(-(captured_signal))
 3833 10ce F040      		sbci r31,hi8(-(captured_signal))
 3834 10d0 E081      		ld r30,Z
 3835               	.L340:
 3836               	.LBB486:
 3837               	.LBB487:
 3838               	.LM589:
 3839 10d2 8091 B109 		lds r24,2481
 3840 10d6 85FF      		sbrs r24,5
 3841 10d8 00C0      		rjmp .L340
 3842               	.LM590:
 3843 10da E093 B009 		sts 2480,r30
 3844               	.LBE487:
 3845               	.LBE486:
 3846               	.LM591:
 3847 10de 9F5F      		subi r25,lo8(-(1))
 3848               	.L339:
 3849 10e0 8091 0000 		lds r24,signal_count
 3850 10e4 9817      		cp r25,r24
 3851 10e6 00F0      		brlo .L341
 3852               	.LBE485:
 3853               	.LM592:
 3854 10e8 1092 0000 		sts ir_read_flag,__zero_reg__
 3855 10ec 0895      		ret
 3856               	.LVL204:
 3857               	.L337:
 3858               	.LM593:
 3859 10ee 0E94 0000 		call ir_fail
 3860 10f2 0895      		ret
 3861               	.LFE76:
 3863               	.global	__vector_47
 3865               	__vector_47:
 3866               	.LFB73:
 3867               	.LM594:
 3868 10f4 1F92      		push __zero_reg__
 3869 10f6 0F92      		push r0
 3870 10f8 0FB6      		in r0,__SREG__
 3871 10fa 0F92      		push r0
 3872 10fc 1124      		clr __zero_reg__
 3873 10fe 2F93      		push r18
 3874 1100 3F93      		push r19
 3875 1102 4F93      		push r20
 3876 1104 5F93      		push r21
 3877 1106 6F93      		push r22
 3878 1108 7F93      		push r23
 3879 110a 8F93      		push r24
 3880 110c 9F93      		push r25
 3881 110e AF93      		push r26
 3882 1110 BF93      		push r27
 3883 1112 EF93      		push r30
 3884 1114 FF93      		push r31
 3885               	/* prologue: Signal */
 3886               	/* frame size = 0 */
 3887               	.LM595:
 3888 1116 8091 0000 		lds r24,signal_count
 3889 111a 8823      		tst r24
 3890 111c 01F0      		breq .L347
 3891               	.LM596:
 3892 111e 0E94 0000 		call disable_ir_read
 3893               	.LM597:
 3894 1122 0E94 0000 		call dump_data
 3895 1126 00C0      		rjmp .L349
 3896               	.L347:
 3897               	.LM598:
 3898 1128 8091 0000 		lds r24,ir_read_time_out
 3899 112c 8F5F      		subi r24,lo8(-(1))
 3900 112e 8093 0000 		sts ir_read_time_out,r24
 3901               	.LM599:
 3902 1132 8091 0000 		lds r24,ir_read_time_out
 3903 1136 8B3F      		cpi r24,lo8(-5)
 3904 1138 00F0      		brlo .L349
 3905               	.LM600:
 3906 113a 0E94 0000 		call disable_ir_read
 3907               	.LM601:
 3908 113e 0E94 0000 		call ir_fail
 3909               	.L349:
 3910               	/* epilogue start */
 3911               	.LM602:
 3912 1142 FF91      		pop r31
 3913 1144 EF91      		pop r30
 3914 1146 BF91      		pop r27
 3915 1148 AF91      		pop r26
 3916 114a 9F91      		pop r25
 3917 114c 8F91      		pop r24
 3918 114e 7F91      		pop r23
 3919 1150 6F91      		pop r22
 3920 1152 5F91      		pop r21
 3921 1154 4F91      		pop r20
 3922 1156 3F91      		pop r19
 3923 1158 2F91      		pop r18
 3924 115a 0F90      		pop r0
 3925 115c 0FBE      		out __SREG__,r0
 3926 115e 0F90      		pop r0
 3927 1160 1F90      		pop __zero_reg__
 3928 1162 1895      		reti
 3929               	.LFE73:
 3931               	.global	__vector_49
 3933               	__vector_49:
 3934               	.LFB72:
 3935               	.LM603:
 3936 1164 1F92      		push __zero_reg__
 3937 1166 0F92      		push r0
 3938 1168 0FB6      		in r0,__SREG__
 3939 116a 0F92      		push r0
 3940 116c 1124      		clr __zero_reg__
 3941 116e 2F93      		push r18
 3942 1170 3F93      		push r19
 3943 1172 4F93      		push r20
 3944 1174 5F93      		push r21
 3945 1176 6F93      		push r22
 3946 1178 7F93      		push r23
 3947 117a 8F93      		push r24
 3948 117c 9F93      		push r25
 3949 117e AF93      		push r26
 3950 1180 BF93      		push r27
 3951 1182 EF93      		push r30
 3952 1184 FF93      		push r31
 3953               	/* prologue: Signal */
 3954               	/* frame size = 0 */
 3955               	.LM604:
 3956 1186 E0E0      		ldi r30,lo8(2560)
 3957 1188 FAE0      		ldi r31,hi8(2560)
 3958 118a 10A2      		std Z+32,__zero_reg__
 3959 118c 11A2      		std Z+33,__zero_reg__
 3960               	.LM605:
 3961 118e 8091 0000 		lds r24,signal_count
 3962 1192 803C      		cpi r24,lo8(-64)
 3963 1194 00F0      		brlo .L351
 3964               	.LM606:
 3965 1196 0E94 0000 		call disable_ir_read
 3966               	.LM607:
 3967 119a 0E94 0000 		call ir_fail
 3968 119e 00C0      		rjmp .L355
 3969               	.L351:
 3970               	.LM608:
 3971 11a0 E091 0000 		lds r30,signal_count
 3972 11a4 F0E0      		ldi r31,lo8(0)
 3973 11a6 8091 280A 		lds r24,2600
 3974 11aa E050      		subi r30,lo8(-(captured_signal+1))
 3975 11ac F040      		sbci r31,hi8(-(captured_signal+1))
 3976 11ae 8083      		st Z,r24
 3977               	.LM609:
 3978 11b0 E091 0000 		lds r30,signal_count
 3979 11b4 F0E0      		ldi r31,lo8(0)
 3980 11b6 8091 290A 		lds r24,2601
 3981 11ba 8F77      		andi r24,lo8(127)
 3982 11bc E050      		subi r30,lo8(-(captured_signal))
 3983 11be F040      		sbci r31,hi8(-(captured_signal))
 3984 11c0 8083      		st Z,r24
 3985               	.LM610:
 3986 11c2 E091 0000 		lds r30,signal_count
 3987 11c6 F0E0      		ldi r31,lo8(0)
 3988 11c8 E050      		subi r30,lo8(-(captured_signal+1))
 3989 11ca F040      		sbci r31,hi8(-(captured_signal+1))
 3990 11cc 8081      		ld r24,Z
 3991 11ce 8034      		cpi r24,lo8(64)
 3992 11d0 00F4      		brsh .L353
 3993 11d2 E091 0000 		lds r30,signal_count
 3994 11d6 F0E0      		ldi r31,lo8(0)
 3995 11d8 E050      		subi r30,lo8(-(captured_signal))
 3996 11da F040      		sbci r31,hi8(-(captured_signal))
 3997 11dc 8081      		ld r24,Z
 3998 11de 8823      		tst r24
 3999 11e0 01F4      		brne .L353
 4000               	.LM611:
 4001 11e2 1092 0000 		sts signal_count,__zero_reg__
 4002               	.L353:
 4003               	.LM612:
 4004 11e6 8091 0000 		lds r24,signal_count
 4005 11ea E091 0000 		lds r30,signal_count
 4006 11ee F0E0      		ldi r31,lo8(0)
 4007 11f0 E050      		subi r30,lo8(-(captured_signal))
 4008 11f2 F040      		sbci r31,hi8(-(captured_signal))
 4009 11f4 E081      		ld r30,Z
 4010 11f6 8131      		cpi r24,lo8(17)
 4011 11f8 00F0      		brlo .L354
 4012 11fa E131      		cpi r30,lo8(17)
 4013 11fc 00F0      		brlo .L354
 4014               	.LM613:
 4015 11fe 0E94 0000 		call disable_ir_read
 4016               	.LM614:
 4017 1202 0E94 0000 		call dump_data
 4018 1206 00C0      		rjmp .L355
 4019               	.L354:
 4020               	.LM615:
 4021 1208 8091 0000 		lds r24,signal_count
 4022 120c 8E5F      		subi r24,lo8(-(2))
 4023 120e 8093 0000 		sts signal_count,r24
 4024               	.L355:
 4025               	/* epilogue start */
 4026               	.LM616:
 4027 1212 FF91      		pop r31
 4028 1214 EF91      		pop r30
 4029 1216 BF91      		pop r27
 4030 1218 AF91      		pop r26
 4031 121a 9F91      		pop r25
 4032 121c 8F91      		pop r24
 4033 121e 7F91      		pop r23
 4034 1220 6F91      		pop r22
 4035 1222 5F91      		pop r21
 4036 1224 4F91      		pop r20
 4037 1226 3F91      		pop r19
 4038 1228 2F91      		pop r18
 4039 122a 0F90      		pop r0
 4040 122c 0FBE      		out __SREG__,r0
 4041 122e 0F90      		pop r0
 4042 1230 1F90      		pop __zero_reg__
 4043 1232 1895      		reti
 4044               	.LFE72:
 4046               	.global	read_data_from_serial
 4048               	read_data_from_serial:
 4049               	.LFB80:
 4050               	.LM617:
 4051 1234 EF92      		push r14
 4052 1236 FF92      		push r15
 4053 1238 1F93      		push r17
 4054 123a CF93      		push r28
 4055 123c DF93      		push r29
 4056               	/* prologue: function */
 4057               	/* frame size = 0 */
 4058               	.LM618:
 4059 123e 80EB      		ldi r24,lo8(2480)
 4060 1240 99E0      		ldi r25,hi8(2480)
 4061 1242 0E94 0000 		call uart_getchar_timeout
 4062 1246 9C01      		movw r18,r24
 4063               	.LVL205:
 4064               	.LM619:
 4065 1248 182F      		mov r17,r24
 4066               	.LVL206:
 4067               	.L357:
 4068               	.LBB488:
 4069               	.LBB489:
 4070               	.LM620:
 4071 124a 8091 B109 		lds r24,2481
 4072               	.LVL207:
 4073 124e 85FF      		sbrs r24,5
 4074 1250 00C0      		rjmp .L357
 4075               	.LM621:
 4076 1252 1093 B009 		sts 2480,r17
 4077 1256 C0E0      		ldi r28,lo8(0)
 4078 1258 D0E0      		ldi r29,hi8(0)
 4079               	.LVL208:
 4080               	.LBE489:
 4081               	.LBE488:
 4082               	.LBB490:
 4083               	.LM622:
 4084 125a 7901      		movw r14,r18
 4085 125c 0894      		sec
 4086 125e E108      		sbc r14,__zero_reg__
 4087 1260 F108      		sbc r15,__zero_reg__
 4088 1262 00C0      		rjmp .L358
 4089               	.L362:
 4090               	.LM623:
 4091 1264 80EB      		ldi r24,lo8(2480)
 4092 1266 99E0      		ldi r25,hi8(2480)
 4093 1268 0E94 0000 		call uart_getchar_timeout
 4094               	.LVL209:
 4095               	.LM624:
 4096 126c 21E0      		ldi r18,hi8(256)
 4097 126e 8030      		cpi r24,lo8(256)
 4098 1270 9207      		cpc r25,r18
 4099               	.LVL210:
 4100 1272 01F4      		brne .L359
 4101 1274 20E0      		ldi r18,lo8(0)
 4102 1276 30E0      		ldi r19,hi8(0)
 4103 1278 00C0      		rjmp .L360
 4104               	.L359:
 4105               	.LM625:
 4106 127a 982F      		mov r25,r24
 4107               	.L361:
 4108               	.LBB491:
 4109               	.LBB492:
 4110               	.LM626:
 4111 127c 8091 B109 		lds r24,2481
 4112               	.LVL211:
 4113 1280 85FF      		sbrs r24,5
 4114 1282 00C0      		rjmp .L361
 4115               	.LM627:
 4116 1284 9093 B009 		sts 2480,r25
 4117               	.LBE492:
 4118               	.LBE491:
 4119               	.LM628:
 4120 1288 FE01      		movw r30,r28
 4121 128a E050      		subi r30,lo8(-(robotData))
 4122 128c F040      		sbci r31,hi8(-(robotData))
 4123 128e 94A7      		std Z+44,r25
 4124               	.LM629:
 4125 1290 2196      		adiw r28,1
 4126               	.LVL212:
 4127               	.L358:
 4128 1292 CE15      		cp r28,r14
 4129 1294 DF05      		cpc r29,r15
 4130 1296 04F0      		brlt .L362
 4131               	.LBE490:
 4132               	.LM630:
 4133 1298 1150      		subi r17,lo8(-(-1))
 4134 129a 1093 0000 		sts robotData+36,r17
 4135 129e 21E0      		ldi r18,lo8(1)
 4136 12a0 30E0      		ldi r19,hi8(1)
 4137               	.LVL213:
 4138               	.L360:
 4139               	.LM631:
 4140 12a2 C901      		movw r24,r18
 4141               	.LVL214:
 4142               	/* epilogue start */
 4143 12a4 DF91      		pop r29
 4144 12a6 CF91      		pop r28
 4145               	.LVL215:
 4146 12a8 1F91      		pop r17
 4147 12aa FF90      		pop r15
 4148 12ac EF90      		pop r14
 4149 12ae 0895      		ret
 4150               	.LFE80:
 4152               	.global	EEPROM_ReadByte
 4154               	EEPROM_ReadByte:
 4155               	.LFB82:
 4156               	.LM632:
 4157               	.LVL216:
 4158               	/* prologue: function */
 4159               	/* frame size = 0 */
 4160 12b0 982F      		mov r25,r24
 4161               	.LVL217:
 4162               	.L367:
 4163               	.LBB493:
 4164               	.LBB494:
 4165               	.LM633:
 4166 12b2 E0EC      		ldi r30,lo8(448)
 4167 12b4 F1E0      		ldi r31,hi8(448)
 4168 12b6 8091 CF01 		lds r24,463
 4169 12ba 87FD      		sbrc r24,7
 4170 12bc 00C0      		rjmp .L367
 4171               	.LBE494:
 4172               	.LBE493:
 4173               	.LM634:
 4174 12be 262F      		mov r18,r22
 4175               	.LVL218:
 4176 12c0 30E0      		ldi r19,lo8(0)
 4177               	.LVL219:
 4178 12c2 2F71      		andi r18,lo8(31)
 4179 12c4 3070      		andi r19,hi8(31)
 4180               	.LVL220:
 4181 12c6 892F      		mov r24,r25
 4182 12c8 90E0      		ldi r25,lo8(0)
 4183               	.LVL221:
 4184 12ca 45E0      		ldi r20,5
 4185 12cc 880F      	1:	lsl r24
 4186 12ce 991F      		rol r25
 4187 12d0 4A95      		dec r20
 4188 12d2 01F4      		brne 1b
 4189               	.LVL222:
 4190 12d4 282B      		or r18,r24
 4191 12d6 392B      		or r19,r25
 4192               	.LM635:
 4193 12d8 2093 C001 		sts 448,r18
 4194               	.LM636:
 4195 12dc 832F      		mov r24,r19
 4196               	.LVL223:
 4197 12de 8F71      		andi r24,lo8(31)
 4198 12e0 8183      		std Z+1,r24
 4199               	.LM637:
 4200 12e2 1282      		std Z+2,__zero_reg__
 4201               	.LM638:
 4202 12e4 86E0      		ldi r24,lo8(6)
 4203 12e6 8287      		std Z+10,r24
 4204               	.LM639:
 4205               	/* #APP */
 4206               	 ;  129 "eeprom_driver.c" 1
 4207 12e8 EF93      		push r30
 4208 12ea FF93      		push r31
 4209 12ec 0F93      		push r16
 4210 12ee 2F93      		push r18
 4211 12f0 EBEC      		ldi r30, 0xCB
 4212 12f2 F1E0      		ldi r31, 0x01
 4213 12f4 08ED      		ldi r16, 0xD8
 4214 12f6 21E0      		ldi r18, 0x01
 4215 12f8 04BF      		out 0x34, r16
 4216 12fa 2083      		st Z, r18
 4217 12fc 2F91      		pop r18
 4218 12fe 0F91      		pop r16
 4219 1300 FF91      		pop r31
 4220 1302 EF91      		pop r30
 4221               		
 4222               	 ;  0 "" 2
 4223               	.LM640:
 4224               	/* #NOAPP */
 4225 1304 8091 C401 		lds r24,452
 4226               	/* epilogue start */
 4227               	.LM641:
 4228 1308 0895      		ret
 4229               	.LFE82:
 4231               	.global	print_data_from_eeprom
 4233               	print_data_from_eeprom:
 4234               	.LFB79:
 4235               	.LM642:
 4236               	.LVL224:
 4237 130a AF92      		push r10
 4238 130c BF92      		push r11
 4239 130e CF92      		push r12
 4240 1310 DF92      		push r13
 4241 1312 EF92      		push r14
 4242 1314 FF92      		push r15
 4243 1316 0F93      		push r16
 4244 1318 1F93      		push r17
 4245 131a CF93      		push r28
 4246 131c DF93      		push r29
 4247               	/* prologue: function */
 4248               	/* frame size = 0 */
 4249               	.LM643:
 4250 131e 9C01      		movw r18,r24
 4251 1320 220F      		lsl r18
 4252 1322 331F      		rol r19
 4253 1324 280F      		add r18,r24
 4254 1326 391F      		adc r19,r25
 4255 1328 220F      		lsl r18
 4256 132a 331F      		rol r19
 4257 132c C22E      		mov r12,r18
 4258 132e 822F      		mov r24,r18
 4259               	.LVL225:
 4260 1330 60E0      		ldi r22,lo8(0)
 4261 1332 0E94 0000 		call EEPROM_ReadByte
 4262 1336 282F      		mov r18,r24
 4263 1338 90E0      		ldi r25,lo8(0)
 4264               	.LVL226:
 4265               	.LM644:
 4266 133a 7C01      		movw r14,r24
 4267               	.LVL227:
 4268 133c 65E0      		ldi r22,5
 4269 133e F594      	1:	asr r15
 4270 1340 E794      		ror r14
 4271 1342 6A95      		dec r22
 4272 1344 01F4      		brne 1b
 4273               	.LM645:
 4274 1346 5FE1      		ldi r21,lo8(31)
 4275 1348 A52E      		mov r10,r21
 4276 134a B12C      		mov r11,__zero_reg__
 4277               	.LVL228:
 4278 134c A822      		and r10,r24
 4279 134e B922      		and r11,r25
 4280               	.L371:
 4281               	.LBB495:
 4282               	.LBB496:
 4283               	.LM646:
 4284 1350 8091 B109 		lds r24,2481
 4285               	.LVL229:
 4286 1354 85FF      		sbrs r24,5
 4287 1356 00C0      		rjmp .L371
 4288               	.LM647:
 4289 1358 2093 B009 		sts 2480,r18
 4290 135c C1E0      		ldi r28,lo8(1)
 4291 135e D0E0      		ldi r29,hi8(1)
 4292               	.LVL230:
 4293 1360 00E0      		ldi r16,lo8(0)
 4294 1362 10E0      		ldi r17,hi8(0)
 4295               	.LVL231:
 4296 1364 00C0      		rjmp .L372
 4297               	.L374:
 4298               	.LBE496:
 4299               	.LBE495:
 4300               	.LBB497:
 4301               	.LM648:
 4302 1366 DC2C      		mov r13,r12
 4303 1368 D00E      		add r13,r16
 4304               	.L379:
 4305 136a 8D2D      		mov r24,r13
 4306 136c 6C2F      		mov r22,r28
 4307 136e 0E94 0000 		call EEPROM_ReadByte
 4308               	.LVL232:
 4309 1372 982F      		mov r25,r24
 4310               	.L373:
 4311               	.LBB498:
 4312               	.LBB499:
 4313               	.LM649:
 4314 1374 8091 B109 		lds r24,2481
 4315 1378 85FF      		sbrs r24,5
 4316 137a 00C0      		rjmp .L373
 4317               	.LM650:
 4318 137c 9093 B009 		sts 2480,r25
 4319               	.LBE499:
 4320               	.LBE498:
 4321               	.LM651:
 4322 1380 2196      		adiw r28,1
 4323               	.LM652:
 4324 1382 C032      		cpi r28,32
 4325 1384 D105      		cpc r29,__zero_reg__
 4326 1386 04F0      		brlt .L379
 4327               	.LM653:
 4328 1388 0F5F      		subi r16,lo8(-(1))
 4329 138a 1F4F      		sbci r17,hi8(-(1))
 4330 138c C0E0      		ldi r28,lo8(0)
 4331 138e D0E0      		ldi r29,hi8(0)
 4332               	.LVL233:
 4333               	.L372:
 4334 1390 0E15      		cp r16,r14
 4335 1392 1F05      		cpc r17,r15
 4336 1394 04F0      		brlt .L374
 4337 1396 00C0      		rjmp .L386
 4338               	.L377:
 4339               	.LBE497:
 4340               	.LM654:
 4341 1398 812F      		mov r24,r17
 4342 139a 6C2F      		mov r22,r28
 4343 139c 0E94 0000 		call EEPROM_ReadByte
 4344               	.LVL234:
 4345 13a0 982F      		mov r25,r24
 4346               	.L376:
 4347               	.LBB500:
 4348               	.LBB501:
 4349               	.LM655:
 4350 13a2 8091 B109 		lds r24,2481
 4351 13a6 85FF      		sbrs r24,5
 4352 13a8 00C0      		rjmp .L376
 4353               	.LM656:
 4354 13aa 9093 B009 		sts 2480,r25
 4355               	.LBE501:
 4356               	.LBE500:
 4357               	.LM657:
 4358 13ae 2196      		adiw r28,1
 4359 13b0 00C0      		rjmp .L385
 4360               	.LVL235:
 4361               	.L386:
 4362               	.LM658:
 4363 13b2 1C2D      		mov r17,r12
 4364 13b4 1E0D      		add r17,r14
 4365               	.L385:
 4366               	.LM659:
 4367 13b6 CA15      		cp r28,r10
 4368 13b8 DB05      		cpc r29,r11
 4369 13ba 04F0      		brlt .L377
 4370               	/* epilogue start */
 4371               	.LM660:
 4372 13bc DF91      		pop r29
 4373 13be CF91      		pop r28
 4374               	.LVL236:
 4375 13c0 1F91      		pop r17
 4376 13c2 0F91      		pop r16
 4377               	.LVL237:
 4378 13c4 FF90      		pop r15
 4379 13c6 EF90      		pop r14
 4380               	.LVL238:
 4381 13c8 DF90      		pop r13
 4382 13ca CF90      		pop r12
 4383 13cc BF90      		pop r11
 4384 13ce AF90      		pop r10
 4385               	.LVL239:
 4386 13d0 0895      		ret
 4387               	.LFE79:
 4389               	.global	read_data_from_eeprom
 4391               	read_data_from_eeprom:
 4392               	.LFB78:
 4393               	.LM661:
 4394               	.LVL240:
 4395 13d2 5F92      		push r5
 4396 13d4 6F92      		push r6
 4397 13d6 7F92      		push r7
 4398 13d8 8F92      		push r8
 4399 13da 9F92      		push r9
 4400 13dc AF92      		push r10
 4401 13de BF92      		push r11
 4402 13e0 CF92      		push r12
 4403 13e2 DF92      		push r13
 4404 13e4 EF92      		push r14
 4405 13e6 FF92      		push r15
 4406 13e8 0F93      		push r16
 4407 13ea 1F93      		push r17
 4408 13ec CF93      		push r28
 4409 13ee DF93      		push r29
 4410               	/* prologue: function */
 4411               	/* frame size = 0 */
 4412               	.LM662:
 4413 13f0 9C01      		movw r18,r24
 4414 13f2 220F      		lsl r18
 4415 13f4 331F      		rol r19
 4416 13f6 280F      		add r18,r24
 4417 13f8 391F      		adc r19,r25
 4418 13fa 220F      		lsl r18
 4419 13fc 331F      		rol r19
 4420 13fe 522E      		mov r5,r18
 4421 1400 822F      		mov r24,r18
 4422               	.LVL241:
 4423 1402 60E0      		ldi r22,lo8(0)
 4424 1404 0E94 0000 		call EEPROM_ReadByte
 4425 1408 B82E      		mov r11,r24
 4426 140a 90E0      		ldi r25,lo8(0)
 4427               	.LVL242:
 4428               	.LM663:
 4429 140c 4C01      		movw r8,r24
 4430               	.LVL243:
 4431 140e B5E0      		ldi r27,5
 4432 1410 9594      	1:	asr r9
 4433 1412 8794      		ror r8
 4434 1414 BA95      		dec r27
 4435 1416 01F4      		brne 1b
 4436               	.LM664:
 4437 1418 AFE1      		ldi r26,lo8(31)
 4438 141a 6A2E      		mov r6,r26
 4439 141c 712C      		mov r7,__zero_reg__
 4440               	.LVL244:
 4441 141e 6822      		and r6,r24
 4442 1420 7922      		and r7,r25
 4443 1422 EE24      		clr r14
 4444 1424 FF24      		clr r15
 4445               	.LVL245:
 4446 1426 C1E0      		ldi r28,lo8(1)
 4447 1428 D0E0      		ldi r29,hi8(1)
 4448               	.LVL246:
 4449 142a 00E0      		ldi r16,lo8(0)
 4450 142c 10E0      		ldi r17,hi8(0)
 4451               	.LVL247:
 4452 142e 00C0      		rjmp .L388
 4453               	.LVL248:
 4454               	.L389:
 4455               	.LBB502:
 4456               	.LM665:
 4457 1430 8A2D      		mov r24,r10
 4458 1432 6C2F      		mov r22,r28
 4459 1434 0E94 0000 		call EEPROM_ReadByte
 4460               	.LVL249:
 4461 1438 F601      		movw r30,r12
 4462 143a 8193      		st Z+,r24
 4463 143c 6F01      		movw r12,r30
 4464               	.LM666:
 4465 143e 0894      		sec
 4466 1440 E11C      		adc r14,__zero_reg__
 4467 1442 F11C      		adc r15,__zero_reg__
 4468               	.LM667:
 4469 1444 2196      		adiw r28,1
 4470               	.LM668:
 4471 1446 C032      		cpi r28,32
 4472 1448 D105      		cpc r29,__zero_reg__
 4473 144a 04F0      		brlt .L389
 4474               	.LM669:
 4475 144c 0F5F      		subi r16,lo8(-(1))
 4476 144e 1F4F      		sbci r17,hi8(-(1))
 4477 1450 C0E0      		ldi r28,lo8(0)
 4478 1452 D0E0      		ldi r29,hi8(0)
 4479               	.LVL250:
 4480               	.L388:
 4481 1454 C701      		movw r24,r14
 4482               	.LVL251:
 4483 1456 8C96      		adiw r24,44
 4484 1458 0815      		cp r16,r8
 4485 145a 1905      		cpc r17,r9
 4486 145c 04F0      		brlt .L390
 4487 145e 8C01      		movw r16,r24
 4488               	.LVL252:
 4489 1460 0050      		subi r16,lo8(-(robotData))
 4490 1462 1040      		sbci r17,hi8(-(robotData))
 4491               	.LBE502:
 4492               	.LM670:
 4493 1464 F52C      		mov r15,r5
 4494 1466 F80C      		add r15,r8
 4495 1468 00C0      		rjmp .L391
 4496               	.LVL253:
 4497               	.L390:
 4498               	.LBB503:
 4499               	.LM671:
 4500 146a F0E0      		ldi r31,lo8(robotData)
 4501 146c CF2E      		mov r12,r31
 4502 146e F0E0      		ldi r31,hi8(robotData)
 4503 1470 DF2E      		mov r13,r31
 4504 1472 C80E      		add r12,r24
 4505 1474 D91E      		adc r13,r25
 4506               	.LM672:
 4507 1476 A52C      		mov r10,r5
 4508 1478 A00E      		add r10,r16
 4509 147a 00C0      		rjmp .L389
 4510               	.LVL254:
 4511               	.L392:
 4512               	.LBE503:
 4513               	.LM673:
 4514 147c 8F2D      		mov r24,r15
 4515 147e 6C2F      		mov r22,r28
 4516 1480 0E94 0000 		call EEPROM_ReadByte
 4517               	.LVL255:
 4518 1484 F801      		movw r30,r16
 4519 1486 8193      		st Z+,r24
 4520 1488 8F01      		movw r16,r30
 4521               	.LM674:
 4522 148a 2196      		adiw r28,1
 4523               	.LVL256:
 4524               	.L391:
 4525               	.LM675:
 4526 148c C615      		cp r28,r6
 4527 148e D705      		cpc r29,r7
 4528 1490 04F0      		brlt .L392
 4529               	.LM676:
 4530 1492 BA94      		dec r11
 4531 1494 B092 0000 		sts robotData+36,r11
 4532               	/* epilogue start */
 4533               	.LM677:
 4534 1498 DF91      		pop r29
 4535 149a CF91      		pop r28
 4536               	.LVL257:
 4537 149c 1F91      		pop r17
 4538 149e 0F91      		pop r16
 4539 14a0 FF90      		pop r15
 4540 14a2 EF90      		pop r14
 4541               	.LVL258:
 4542 14a4 DF90      		pop r13
 4543 14a6 CF90      		pop r12
 4544 14a8 BF90      		pop r11
 4545 14aa AF90      		pop r10
 4546 14ac 9F90      		pop r9
 4547 14ae 8F90      		pop r8
 4548               	.LVL259:
 4549 14b0 7F90      		pop r7
 4550 14b2 6F90      		pop r6
 4551               	.LVL260:
 4552 14b4 5F90      		pop r5
 4553 14b6 0895      		ret
 4554               	.LFE78:
 4556               	.global	EEPROM_WaitForNVM
 4558               	EEPROM_WaitForNVM:
 4559               	.LFB83:
 4560               	.LM678:
 4561               	/* prologue: function */
 4562               	/* frame size = 0 */
 4563               	.L396:
 4564               	.LM679:
 4565 14b8 8091 CF01 		lds r24,463
 4566 14bc 87FD      		sbrc r24,7
 4567 14be 00C0      		rjmp .L396
 4568               	/* epilogue start */
 4569               	.LM680:
 4570 14c0 0895      		ret
 4571               	.LFE83:
 4573               	.global	EEPROM_FlushBuffer
 4575               	EEPROM_FlushBuffer:
 4576               	.LFB84:
 4577               	.LM681:
 4578               	/* prologue: function */
 4579               	/* frame size = 0 */
 4580               	.L400:
 4581               	.LBB504:
 4582               	.LBB505:
 4583               	.LM682:
 4584 14c2 8091 CF01 		lds r24,463
 4585 14c6 87FD      		sbrc r24,7
 4586 14c8 00C0      		rjmp .L400
 4587               	.LBE505:
 4588               	.LBE504:
 4589               	.LM683:
 4590 14ca 8091 CF01 		lds r24,463
 4591 14ce 81FF      		sbrs r24,1
 4592 14d0 00C0      		rjmp .L402
 4593               	.LM684:
 4594 14d2 86E3      		ldi r24,lo8(54)
 4595 14d4 E0EC      		ldi r30,lo8(448)
 4596 14d6 F1E0      		ldi r31,hi8(448)
 4597 14d8 8287      		std Z+10,r24
 4598               	.LM685:
 4599               	/* #APP */
 4600               	 ;  166 "eeprom_driver.c" 1
 4601 14da EF93      		push r30
 4602 14dc FF93      		push r31
 4603 14de 0F93      		push r16
 4604 14e0 2F93      		push r18
 4605 14e2 EBEC      		ldi r30, 0xCB
 4606 14e4 F1E0      		ldi r31, 0x01
 4607 14e6 08ED      		ldi r16, 0xD8
 4608 14e8 21E0      		ldi r18, 0x01
 4609 14ea 04BF      		out 0x34, r16
 4610 14ec 2083      		st Z, r18
 4611 14ee 2F91      		pop r18
 4612 14f0 0F91      		pop r16
 4613 14f2 FF91      		pop r31
 4614 14f4 EF91      		pop r30
 4615               		
 4616               	 ;  0 "" 2
 4617               	/* #NOAPP */
 4618               	.L402:
 4619 14f6 0895      		ret
 4620               	.LFE84:
 4622               	.global	EEPROM_WriteByte
 4624               	EEPROM_WriteByte:
 4625               	.LFB81:
 4626               	.LM686:
 4627               	.LVL261:
 4628 14f8 DF92      		push r13
 4629 14fa EF92      		push r14
 4630 14fc FF92      		push r15
 4631 14fe 0F93      		push r16
 4632 1500 1F93      		push r17
 4633               	/* prologue: function */
 4634               	/* frame size = 0 */
 4635 1502 E82E      		mov r14,r24
 4636 1504 062F      		mov r16,r22
 4637 1506 D42E      		mov r13,r20
 4638               	.LM687:
 4639 1508 0E94 0000 		call EEPROM_FlushBuffer
 4640               	.LVL262:
 4641               	.LM688:
 4642 150c E0EC      		ldi r30,lo8(448)
 4643 150e F1E0      		ldi r31,hi8(448)
 4644 1510 83E3      		ldi r24,lo8(51)
 4645 1512 8287      		std Z+10,r24
 4646               	.LM689:
 4647 1514 10E0      		ldi r17,lo8(0)
 4648               	.LVL263:
 4649 1516 0F71      		andi r16,lo8(31)
 4650 1518 1070      		andi r17,hi8(31)
 4651               	.LVL264:
 4652 151a FF24      		clr r15
 4653               	.LVL265:
 4654 151c 85E0      		ldi r24,5
 4655 151e EE0C      	1:	lsl r14
 4656 1520 FF1C      		rol r15
 4657 1522 8A95      		dec r24
 4658 1524 01F4      		brne 1b
 4659               	.LVL266:
 4660 1526 0E29      		or r16,r14
 4661 1528 1F29      		or r17,r15
 4662               	.LM690:
 4663 152a 0083      		st Z,r16
 4664               	.LM691:
 4665 152c 812F      		mov r24,r17
 4666               	.LVL267:
 4667 152e 8F71      		andi r24,lo8(31)
 4668 1530 8183      		std Z+1,r24
 4669               	.LM692:
 4670 1532 1282      		std Z+2,__zero_reg__
 4671               	.LM693:
 4672 1534 D482      		std Z+4,r13
 4673               	.LM694:
 4674 1536 85E3      		ldi r24,lo8(53)
 4675 1538 8287      		std Z+10,r24
 4676               	.LM695:
 4677               	/* #APP */
 4678               	 ;  99 "eeprom_driver.c" 1
 4679 153a EF93      		push r30
 4680 153c FF93      		push r31
 4681 153e 0F93      		push r16
 4682 1540 2F93      		push r18
 4683 1542 EBEC      		ldi r30, 0xCB
 4684 1544 F1E0      		ldi r31, 0x01
 4685 1546 08ED      		ldi r16, 0xD8
 4686 1548 21E0      		ldi r18, 0x01
 4687 154a 04BF      		out 0x34, r16
 4688 154c 2083      		st Z, r18
 4689 154e 2F91      		pop r18
 4690 1550 0F91      		pop r16
 4691 1552 FF91      		pop r31
 4692 1554 EF91      		pop r30
 4693               		
 4694               	 ;  0 "" 2
 4695               	/* epilogue start */
 4696               	.LM696:
 4697               	/* #NOAPP */
 4698 1556 1F91      		pop r17
 4699 1558 0F91      		pop r16
 4700               	.LVL268:
 4701 155a FF90      		pop r15
 4702               	.LVL269:
 4703 155c EF90      		pop r14
 4704               	.LVL270:
 4705 155e DF90      		pop r13
 4706               	.LVL271:
 4707 1560 0895      		ret
 4708               	.LFE81:
 4710               	.global	write_data_to_eeprom
 4712               	write_data_to_eeprom:
 4713               	.LFB77:
 4714               	.LM697:
 4715               	.LVL272:
 4716 1562 8F92      		push r8
 4717 1564 9F92      		push r9
 4718 1566 AF92      		push r10
 4719 1568 BF92      		push r11
 4720 156a CF92      		push r12
 4721 156c DF92      		push r13
 4722 156e EF92      		push r14
 4723 1570 FF92      		push r15
 4724 1572 0F93      		push r16
 4725 1574 1F93      		push r17
 4726 1576 CF93      		push r28
 4727 1578 DF93      		push r29
 4728               	/* prologue: function */
 4729               	/* frame size = 0 */
 4730 157a 9C01      		movw r18,r24
 4731               	.LM698:
 4732 157c 8091 0000 		lds r24,signal_count
 4733               	.LVL273:
 4734 1580 90E0      		ldi r25,lo8(0)
 4735 1582 0197      		sbiw r24,1
 4736 1584 60E2      		ldi r22,lo8(32)
 4737 1586 70E0      		ldi r23,hi8(32)
 4738 1588 0E94 0000 		call __divmodhi4
 4739 158c 6B01      		movw r12,r22
 4740               	.LM699:
 4741 158e 8091 0000 		lds r24,signal_count
 4742 1592 90E0      		ldi r25,lo8(0)
 4743 1594 0197      		sbiw r24,1
 4744 1596 60E2      		ldi r22,lo8(32)
 4745 1598 70E0      		ldi r23,hi8(32)
 4746 159a 0E94 0000 		call __divmodhi4
 4747 159e 5C01      		movw r10,r24
 4748               	.LM700:
 4749 15a0 C901      		movw r24,r18
 4750 15a2 880F      		lsl r24
 4751 15a4 991F      		rol r25
 4752 15a6 820F      		add r24,r18
 4753 15a8 931F      		adc r25,r19
 4754 15aa 880F      		lsl r24
 4755 15ac 991F      		rol r25
 4756               	.LVL274:
 4757 15ae 882E      		mov r8,r24
 4758 15b0 4091 0000 		lds r20,signal_count
 4759 15b4 4150      		subi r20,lo8(-(-1))
 4760 15b6 60E0      		ldi r22,lo8(0)
 4761 15b8 0E94 0000 		call EEPROM_WriteByte
 4762 15bc 92E0      		ldi r25,lo8(2)
 4763 15be E92E      		mov r14,r25
 4764 15c0 F12C      		mov r15,__zero_reg__
 4765               	.LVL275:
 4766 15c2 C1E0      		ldi r28,lo8(1)
 4767 15c4 D0E0      		ldi r29,hi8(1)
 4768               	.LVL276:
 4769 15c6 00E0      		ldi r16,lo8(0)
 4770 15c8 10E0      		ldi r17,hi8(0)
 4771               	.LVL277:
 4772 15ca 00C0      		rjmp .L407
 4773               	.LVL278:
 4774               	.L408:
 4775               	.LBB506:
 4776               	.LM701:
 4777 15cc 982C      		mov r9,r8
 4778 15ce 900E      		add r9,r16
 4779               	.L412:
 4780 15d0 F701      		movw r30,r14
 4781 15d2 E050      		subi r30,lo8(-(captured_signal))
 4782 15d4 F040      		sbci r31,hi8(-(captured_signal))
 4783 15d6 4081      		ld r20,Z
 4784 15d8 892D      		mov r24,r9
 4785 15da 6C2F      		mov r22,r28
 4786 15dc 0E94 0000 		call EEPROM_WriteByte
 4787               	.LM702:
 4788 15e0 0894      		sec
 4789 15e2 E11C      		adc r14,__zero_reg__
 4790 15e4 F11C      		adc r15,__zero_reg__
 4791               	.LM703:
 4792 15e6 2196      		adiw r28,1
 4793               	.LM704:
 4794 15e8 C032      		cpi r28,32
 4795 15ea D105      		cpc r29,__zero_reg__
 4796 15ec 04F0      		brlt .L412
 4797               	.LM705:
 4798 15ee 0F5F      		subi r16,lo8(-(1))
 4799 15f0 1F4F      		sbci r17,hi8(-(1))
 4800 15f2 C0E0      		ldi r28,lo8(0)
 4801 15f4 D0E0      		ldi r29,hi8(0)
 4802               	.L407:
 4803 15f6 0C15      		cp r16,r12
 4804 15f8 1D05      		cpc r17,r13
 4805 15fa 04F0      		brlt .L408
 4806 15fc 00C0      		rjmp .L416
 4807               	.LVL279:
 4808               	.L410:
 4809               	.LBE506:
 4810               	.LM706:
 4811 15fe F701      		movw r30,r14
 4812 1600 E050      		subi r30,lo8(-(captured_signal))
 4813 1602 F040      		sbci r31,hi8(-(captured_signal))
 4814 1604 4081      		ld r20,Z
 4815 1606 812F      		mov r24,r17
 4816 1608 6C2F      		mov r22,r28
 4817 160a 0E94 0000 		call EEPROM_WriteByte
 4818               	.LM707:
 4819 160e 0894      		sec
 4820 1610 E11C      		adc r14,__zero_reg__
 4821 1612 F11C      		adc r15,__zero_reg__
 4822               	.LM708:
 4823 1614 2196      		adiw r28,1
 4824 1616 00C0      		rjmp .L415
 4825               	.LVL280:
 4826               	.L416:
 4827               	.LM709:
 4828 1618 182D      		mov r17,r8
 4829 161a 1C0D      		add r17,r12
 4830               	.LVL281:
 4831               	.L415:
 4832               	.LM710:
 4833 161c CA15      		cp r28,r10
 4834 161e DB05      		cpc r29,r11
 4835 1620 04F0      		brlt .L410
 4836               	/* epilogue start */
 4837               	.LM711:
 4838 1622 DF91      		pop r29
 4839 1624 CF91      		pop r28
 4840               	.LVL282:
 4841 1626 1F91      		pop r17
 4842 1628 0F91      		pop r16
 4843               	.LVL283:
 4844 162a FF90      		pop r15
 4845 162c EF90      		pop r14
 4846               	.LVL284:
 4847 162e DF90      		pop r13
 4848 1630 CF90      		pop r12
 4849               	.LVL285:
 4850 1632 BF90      		pop r11
 4851 1634 AF90      		pop r10
 4852               	.LVL286:
 4853 1636 9F90      		pop r9
 4854 1638 8F90      		pop r8
 4855 163a 0895      		ret
 4856               	.LFE77:
 4858               	.global	EEPROM_LoadByte
 4860               	EEPROM_LoadByte:
 4861               	.LFB85:
 4862               	.LM712:
 4863               	.LVL287:
 4864               	/* prologue: function */
 4865               	/* frame size = 0 */
 4866 163c 982F      		mov r25,r24
 4867               	.LVL288:
 4868               	.L418:
 4869               	.LBB507:
 4870               	.LBB508:
 4871               	.LM713:
 4872 163e E0EC      		ldi r30,lo8(448)
 4873 1640 F1E0      		ldi r31,hi8(448)
 4874 1642 8091 CF01 		lds r24,463
 4875 1646 87FD      		sbrc r24,7
 4876 1648 00C0      		rjmp .L418
 4877               	.LBE508:
 4878               	.LBE507:
 4879               	.LM714:
 4880 164a 83E3      		ldi r24,lo8(51)
 4881 164c 8287      		std Z+10,r24
 4882               	.LM715:
 4883 164e 9093 C001 		sts 448,r25
 4884               	.LM716:
 4885 1652 1182      		std Z+1,__zero_reg__
 4886               	.LM717:
 4887 1654 1282      		std Z+2,__zero_reg__
 4888               	.LM718:
 4889 1656 6483      		std Z+4,r22
 4890               	/* epilogue start */
 4891               	.LM719:
 4892 1658 0895      		ret
 4893               	.LFE85:
 4895               	.global	EEPROM_LoadPage
 4897               	EEPROM_LoadPage:
 4898               	.LFB86:
 4899               	.LM720:
 4900               	.LVL289:
 4901               	/* prologue: function */
 4902               	/* frame size = 0 */
 4903 165a DC01      		movw r26,r24
 4904               	.LVL290:
 4905               	.L422:
 4906               	.LBB509:
 4907               	.LBB510:
 4908               	.LM721:
 4909 165c E0EC      		ldi r30,lo8(448)
 4910 165e F1E0      		ldi r31,hi8(448)
 4911 1660 8091 CF01 		lds r24,463
 4912 1664 87FD      		sbrc r24,7
 4913 1666 00C0      		rjmp .L422
 4914               	.LBE510:
 4915               	.LBE509:
 4916               	.LM722:
 4917 1668 83E3      		ldi r24,lo8(51)
 4918 166a 8287      		std Z+10,r24
 4919               	.LM723:
 4920 166c 1182      		std Z+1,__zero_reg__
 4921               	.LM724:
 4922 166e 1282      		std Z+2,__zero_reg__
 4923 1670 90E0      		ldi r25,lo8(0)
 4924               	.LVL291:
 4925               	.L423:
 4926               	.LBB511:
 4927               	.LM725:
 4928 1672 9093 C001 		sts 448,r25
 4929               	.LM726:
 4930 1676 8D91      		ld r24,X+
 4931 1678 8483      		std Z+4,r24
 4932               	.LM727:
 4933 167a 9F5F      		subi r25,lo8(-(1))
 4934 167c 9032      		cpi r25,lo8(32)
 4935 167e 01F4      		brne .L423
 4936               	/* epilogue start */
 4937               	.LBE511:
 4938               	.LM728:
 4939 1680 0895      		ret
 4940               	.LFE86:
 4942               	.global	EEPROM_AtomicWritePage
 4944               	EEPROM_AtomicWritePage:
 4945               	.LFB87:
 4946               	.LM729:
 4947               	.LVL292:
 4948               	/* prologue: function */
 4949               	/* frame size = 0 */
 4950 1682 982F      		mov r25,r24
 4951               	.LVL293:
 4952               	.L428:
 4953               	.LBB512:
 4954               	.LBB513:
 4955               	.LM730:
 4956 1684 E0EC      		ldi r30,lo8(448)
 4957 1686 F1E0      		ldi r31,hi8(448)
 4958 1688 8091 CF01 		lds r24,463
 4959 168c 87FD      		sbrc r24,7
 4960 168e 00C0      		rjmp .L428
 4961               	.LBE513:
 4962               	.LBE512:
 4963               	.LM731:
 4964 1690 892F      		mov r24,r25
 4965               	.LVL294:
 4966 1692 90E0      		ldi r25,lo8(0)
 4967               	.LVL295:
 4968 1694 55E0      		ldi r21,5
 4969 1696 880F      	1:	lsl r24
 4970 1698 991F      		rol r25
 4971 169a 5A95      		dec r21
 4972 169c 01F4      		brne 1b
 4973               	.LVL296:
 4974               	.LM732:
 4975 169e 8093 C001 		sts 448,r24
 4976               	.LM733:
 4977 16a2 892F      		mov r24,r25
 4978               	.LVL297:
 4979 16a4 8F71      		andi r24,lo8(31)
 4980 16a6 8183      		std Z+1,r24
 4981               	.LM734:
 4982 16a8 1282      		std Z+2,__zero_reg__
 4983               	.LM735:
 4984 16aa 85E3      		ldi r24,lo8(53)
 4985 16ac 8287      		std Z+10,r24
 4986               	.LM736:
 4987               	/* #APP */
 4988               	 ;  263 "eeprom_driver.c" 1
 4989 16ae EF93      		push r30
 4990 16b0 FF93      		push r31
 4991 16b2 0F93      		push r16
 4992 16b4 2F93      		push r18
 4993 16b6 EBEC      		ldi r30, 0xCB
 4994 16b8 F1E0      		ldi r31, 0x01
 4995 16ba 08ED      		ldi r16, 0xD8
 4996 16bc 21E0      		ldi r18, 0x01
 4997 16be 04BF      		out 0x34, r16
 4998 16c0 2083      		st Z, r18
 4999 16c2 2F91      		pop r18
 5000 16c4 0F91      		pop r16
 5001 16c6 FF91      		pop r31
 5002 16c8 EF91      		pop r30
 5003               		
 5004               	 ;  0 "" 2
 5005               	/* epilogue start */
 5006               	.LM737:
 5007               	/* #NOAPP */
 5008 16ca 0895      		ret
 5009               	.LFE87:
 5011               	.global	EEPROM_ErasePage
 5013               	EEPROM_ErasePage:
 5014               	.LFB88:
 5015               	.LM738:
 5016               	.LVL298:
 5017               	/* prologue: function */
 5018               	/* frame size = 0 */
 5019 16cc 982F      		mov r25,r24
 5020               	.LVL299:
 5021               	.L432:
 5022               	.LBB514:
 5023               	.LBB515:
 5024               	.LM739:
 5025 16ce E0EC      		ldi r30,lo8(448)
 5026 16d0 F1E0      		ldi r31,hi8(448)
 5027 16d2 8091 CF01 		lds r24,463
 5028 16d6 87FD      		sbrc r24,7
 5029 16d8 00C0      		rjmp .L432
 5030               	.LBE515:
 5031               	.LBE514:
 5032               	.LM740:
 5033 16da 892F      		mov r24,r25
 5034               	.LVL300:
 5035 16dc 90E0      		ldi r25,lo8(0)
 5036               	.LVL301:
 5037 16de 65E0      		ldi r22,5
 5038 16e0 880F      	1:	lsl r24
 5039 16e2 991F      		rol r25
 5040 16e4 6A95      		dec r22
 5041 16e6 01F4      		brne 1b
 5042               	.LVL302:
 5043               	.LM741:
 5044 16e8 8093 C001 		sts 448,r24
 5045               	.LM742:
 5046 16ec 892F      		mov r24,r25
 5047               	.LVL303:
 5048 16ee 8F71      		andi r24,lo8(31)
 5049 16f0 8183      		std Z+1,r24
 5050               	.LM743:
 5051 16f2 1282      		std Z+2,__zero_reg__
 5052               	.LM744:
 5053 16f4 82E3      		ldi r24,lo8(50)
 5054 16f6 8287      		std Z+10,r24
 5055               	.LM745:
 5056               	/* #APP */
 5057               	 ;  288 "eeprom_driver.c" 1
 5058 16f8 EF93      		push r30
 5059 16fa FF93      		push r31
 5060 16fc 0F93      		push r16
 5061 16fe 2F93      		push r18
 5062 1700 EBEC      		ldi r30, 0xCB
 5063 1702 F1E0      		ldi r31, 0x01
 5064 1704 08ED      		ldi r16, 0xD8
 5065 1706 21E0      		ldi r18, 0x01
 5066 1708 04BF      		out 0x34, r16
 5067 170a 2083      		st Z, r18
 5068 170c 2F91      		pop r18
 5069 170e 0F91      		pop r16
 5070 1710 FF91      		pop r31
 5071 1712 EF91      		pop r30
 5072               		
 5073               	 ;  0 "" 2
 5074               	/* epilogue start */
 5075               	.LM746:
 5076               	/* #NOAPP */
 5077 1714 0895      		ret
 5078               	.LFE88:
 5080               	.global	EEPROM_SplitWritePage
 5082               	EEPROM_SplitWritePage:
 5083               	.LFB89:
 5084               	.LM747:
 5085               	.LVL304:
 5086               	/* prologue: function */
 5087               	/* frame size = 0 */
 5088 1716 982F      		mov r25,r24
 5089               	.LVL305:
 5090               	.L436:
 5091               	.LBB516:
 5092               	.LBB517:
 5093               	.LM748:
 5094 1718 E0EC      		ldi r30,lo8(448)
 5095 171a F1E0      		ldi r31,hi8(448)
 5096 171c 8091 CF01 		lds r24,463
 5097 1720 87FD      		sbrc r24,7
 5098 1722 00C0      		rjmp .L436
 5099               	.LBE517:
 5100               	.LBE516:
 5101               	.LM749:
 5102 1724 892F      		mov r24,r25
 5103               	.LVL306:
 5104 1726 90E0      		ldi r25,lo8(0)
 5105               	.LVL307:
 5106 1728 75E0      		ldi r23,5
 5107 172a 880F      	1:	lsl r24
 5108 172c 991F      		rol r25
 5109 172e 7A95      		dec r23
 5110 1730 01F4      		brne 1b
 5111               	.LVL308:
 5112               	.LM750:
 5113 1732 8093 C001 		sts 448,r24
 5114               	.LM751:
 5115 1736 892F      		mov r24,r25
 5116               	.LVL309:
 5117 1738 8F71      		andi r24,lo8(31)
 5118 173a 8183      		std Z+1,r24
 5119               	.LM752:
 5120 173c 1282      		std Z+2,__zero_reg__
 5121               	.LM753:
 5122 173e 84E3      		ldi r24,lo8(52)
 5123 1740 8287      		std Z+10,r24
 5124               	.LM754:
 5125               	/* #APP */
 5126               	 ;  317 "eeprom_driver.c" 1
 5127 1742 EF93      		push r30
 5128 1744 FF93      		push r31
 5129 1746 0F93      		push r16
 5130 1748 2F93      		push r18
 5131 174a EBEC      		ldi r30, 0xCB
 5132 174c F1E0      		ldi r31, 0x01
 5133 174e 08ED      		ldi r16, 0xD8
 5134 1750 21E0      		ldi r18, 0x01
 5135 1752 04BF      		out 0x34, r16
 5136 1754 2083      		st Z, r18
 5137 1756 2F91      		pop r18
 5138 1758 0F91      		pop r16
 5139 175a FF91      		pop r31
 5140 175c EF91      		pop r30
 5141               		
 5142               	 ;  0 "" 2
 5143               	/* epilogue start */
 5144               	.LM755:
 5145               	/* #NOAPP */
 5146 175e 0895      		ret
 5147               	.LFE89:
 5149               	.global	EEPROM_EraseAll
 5151               	EEPROM_EraseAll:
 5152               	.LFB90:
 5153               	.LM756:
 5154               	/* prologue: function */
 5155               	/* frame size = 0 */
 5156               	.L440:
 5157               	.LBB518:
 5158               	.LBB519:
 5159               	.LM757:
 5160 1760 8091 CF01 		lds r24,463
 5161 1764 87FD      		sbrc r24,7
 5162 1766 00C0      		rjmp .L440
 5163               	.LBE519:
 5164               	.LBE518:
 5165               	.LM758:
 5166 1768 80E3      		ldi r24,lo8(48)
 5167 176a E0EC      		ldi r30,lo8(448)
 5168 176c F1E0      		ldi r31,hi8(448)
 5169 176e 8287      		std Z+10,r24
 5170               	.LM759:
 5171               	/* #APP */
 5172               	 ;  331 "eeprom_driver.c" 1
 5173 1770 EF93      		push r30
 5174 1772 FF93      		push r31
 5175 1774 0F93      		push r16
 5176 1776 2F93      		push r18
 5177 1778 EBEC      		ldi r30, 0xCB
 5178 177a F1E0      		ldi r31, 0x01
 5179 177c 08ED      		ldi r16, 0xD8
 5180 177e 21E0      		ldi r18, 0x01
 5181 1780 04BF      		out 0x34, r16
 5182 1782 2083      		st Z, r18
 5183 1784 2F91      		pop r18
 5184 1786 0F91      		pop r16
 5185 1788 FF91      		pop r31
 5186 178a EF91      		pop r30
 5187               		
 5188               	 ;  0 "" 2
 5189               	/* epilogue start */
 5190               	.LM760:
 5191               	/* #NOAPP */
 5192 178c 0895      		ret
 5193               	.LFE90:
 5195               	.global	main
 5197               	main:
 5198               	.LFB91:
 5199               	.LM761:
 5200 178e 2F92      		push r2
 5201 1790 3F92      		push r3
 5202 1792 4F92      		push r4
 5203 1794 5F92      		push r5
 5204 1796 6F92      		push r6
 5205 1798 7F92      		push r7
 5206 179a 8F92      		push r8
 5207 179c 9F92      		push r9
 5208 179e AF92      		push r10
 5209 17a0 BF92      		push r11
 5210 17a2 CF92      		push r12
 5211 17a4 DF92      		push r13
 5212 17a6 EF92      		push r14
 5213 17a8 FF92      		push r15
 5214 17aa 0F93      		push r16
 5215 17ac 1F93      		push r17
 5216 17ae DF93      		push r29
 5217 17b0 CF93      		push r28
 5218 17b2 CDB7      		in r28,__SP_L__
 5219 17b4 DEB7      		in r29,__SP_H__
 5220 17b6 A397      		sbiw r28,35
 5221 17b8 CDBF      		out __SP_L__,r28
 5222 17ba DEBF      		out __SP_H__,r29
 5223               	/* prologue: function */
 5224               	/* frame size = 35 */
 5225               	.LM762:
 5226 17bc 0E94 0000 		call init_clock
 5227               	.LM763:
 5228 17c0 0E94 0000 		call init_led
 5229               	.LM764:
 5230 17c4 0E94 0000 		call init_adc
 5231               	.LM765:
 5232 17c8 0E94 0000 		call init_ir
 5233               	.LM766:
 5234 17cc 0E94 0000 		call init_BT
 5235               	.LM767:
 5236 17d0 0E94 0000 		call init_dac
 5237               	.LM768:
 5238 17d4 0E94 0000 		call init_buzzer
 5239               	.LM769:
 5240 17d8 0E94 0000 		call initAccel
 5241               	.LM770:
 5242 17dc 83E8      		ldi r24,lo8(131)
 5243 17de 90E0      		ldi r25,hi8(131)
 5244 17e0 6DEF      		ldi r22,lo8(-3)
 5245 17e2 0E94 0000 		call init_aux_uart
 5246               	.LM771:
 5247 17e6 8091 CC01 		lds r24,460
 5248 17ea 877F      		andi r24,lo8(-9)
 5249 17ec E0EC      		ldi r30,lo8(448)
 5250 17ee F1E0      		ldi r31,hi8(448)
 5251 17f0 8487      		std Z+12,r24
 5252               	.LM772:
 5253               	/* #APP */
 5254               	 ;  56 "mainFirmware.c" 1
 5255 17f2 7894      		sei
 5256               	 ;  0 "" 2
 5257               	/* #NOAPP */
 5258 17f4 CC24      		clr r12
 5259 17f6 DD24      		clr r13
 5260               	.LVL310:
 5261               	.LBB520:
 5262               	.LBB521:
 5263               	.LM773:
 5264 17f8 70EA      		ldi r23,lo8(2208)
 5265 17fa 672E      		mov r6,r23
 5266 17fc 78E0      		ldi r23,hi8(2208)
 5267 17fe 772E      		mov r7,r23
 5268               	.LVL311:
 5269               	.L727:
 5270               	.LBE521:
 5271               	.LBE520:
 5272               	.LBB523:
 5273               	.LBB524:
 5274               	.LM774:
 5275 1800 2FEF      		ldi r18,lo8(-1)
 5276 1802 2093 3909 		sts 2361,r18
 5277               	.LM775:
 5278 1806 2093 3B09 		sts 2363,r18
 5279               	.LM776:
 5280 180a 2093 3D09 		sts 2365,r18
 5281               	.LBE524:
 5282               	.LBE523:
 5283               	.LBB525:
 5284               	.LBB526:
 5285               	.LM777:
 5286 180e E0E4      		ldi r30,lo8(2112)
 5287 1810 F8E0      		ldi r31,hi8(2112)
 5288               	.LVL312:
 5289 1812 1682      		std Z+6,__zero_reg__
 5290               	.LBB527:
 5291               	.LBB528:
 5292               	.LM778:
 5293               	/* #APP */
 5294               	 ;  42 "ir.c" 1
 5295 1814 F894      		cli
 5296               	 ;  0 "" 2
 5297               	.LM779:
 5298               	/* #NOAPP */
 5299 1816 E0E0      		ldi r30,lo8(2048)
 5300 1818 F8E0      		ldi r31,hi8(2048)
 5301 181a 10A6      		std Z+40,__zero_reg__
 5302 181c 11A6      		std Z+41,__zero_reg__
 5303               	.LM780:
 5304               	/* #APP */
 5305               	 ;  44 "ir.c" 1
 5306 181e 7894      		sei
 5307               	 ;  0 "" 2
 5308               	/* #NOAPP */
 5309 1820 10E0      		ldi r17,lo8(0)
 5310               	.LVL313:
 5311               	.L726:
 5312               	.LBE528:
 5313               	.LBE527:
 5314               	.LBE526:
 5315               	.LBE525:
 5316               	.LBB529:
 5317               	.LBB530:
 5318               	.LM781:
 5319 1822 8091 B109 		lds r24,2481
 5320               	.LVL314:
 5321 1826 85FF      		sbrs r24,5
 5322 1828 00C0      		rjmp .L726
 5323               	.LM782:
 5324 182a 32E4      		ldi r19,lo8(66)
 5325 182c 3093 B009 		sts 2480,r19
 5326               	.L446:
 5327               	.LBE530:
 5328               	.LBE529:
 5329               	.LBB531:
 5330               	.LBB532:
 5331               	.LM783:
 5332 1830 8091 B109 		lds r24,2481
 5333 1834 85FF      		sbrs r24,5
 5334 1836 00C0      		rjmp .L446
 5335               	.LM784:
 5336 1838 4CE4      		ldi r20,lo8(76)
 5337               	.LVL315:
 5338 183a 4093 B009 		sts 2480,r20
 5339               	.LBE532:
 5340               	.LBE531:
 5341               	.LBB533:
 5342               	.LBB534:
 5343               	.LM785:
 5344 183e 9091 0000 		lds r25,BT_data+258
 5345               	.LVL316:
 5346               	.LM786:
 5347 1842 8091 0000 		lds r24,BT_data+259
 5348               	.LVL317:
 5349               	.LBE534:
 5350               	.LBE533:
 5351               	.LM787:
 5352 1846 9817      		cp r25,r24
 5353 1848 01F0      		breq .L447
 5354               	.LBB535:
 5355               	.LBB536:
 5356               	.LM788:
 5357 184a E091 0000 		lds r30,BT_data+259
 5358               	.LVL318:
 5359 184e F0E0      		ldi r31,lo8(0)
 5360 1850 E050      		subi r30,lo8(-(BT_data))
 5361 1852 F040      		sbci r31,hi8(-(BT_data))
 5362 1854 1281      		ldd r17,Z+2
 5363               	.LM789:
 5364 1856 8091 0000 		lds r24,BT_data+259
 5365               	.LVL319:
 5366 185a 8F5F      		subi r24,lo8(-(1))
 5367 185c 8093 0000 		sts BT_data+259,r24
 5368               	.LBE536:
 5369               	.LBE535:
 5370               	.LM790:
 5371 1860 1038      		cpi r17,lo8(-128)
 5372 1862 01F4      		brne .L448
 5373               	.LBB537:
 5374               	.LBB538:
 5375               	.LM791:
 5376 1864 8091 0000 		lds r24,AUX_data+258
 5377 1868 8093 0000 		sts AUX_data+259,r24
 5378               	.LM792:
 5379 186c 27E8      		ldi r18,lo8(-121)
 5380 186e F301      		movw r30,r6
 5381 1870 2683      		std Z+6,r18
 5382 1872 30EE      		ldi r19,lo8(-32)
 5383 1874 3783      		std Z+7,r19
 5384               	.L449:
 5385               	.LBE538:
 5386               	.LBE537:
 5387               	.LBB539:
 5388               	.LBB540:
 5389               	.LM793:
 5390 1876 8091 A108 		lds r24,2209
 5391 187a 85FF      		sbrs r24,5
 5392 187c 00C0      		rjmp .L449
 5393               	.LM794:
 5394 187e 40E8      		ldi r20,lo8(-128)
 5395 1880 4093 A008 		sts 2208,r20
 5396 1884 00C0      		rjmp .L728
 5397               	.L448:
 5398               	.LBE540:
 5399               	.LBE539:
 5400               	.LM795:
 5401 1886 1123      		tst r17
 5402 1888 01F4      		brne .L646
 5403               	.LBB541:
 5404               	.LBB522:
 5405               	.LM796:
 5406 188a 8091 0000 		lds r24,AUX_data+258
 5407 188e 8093 0000 		sts AUX_data+259,r24
 5408               	.LM797:
 5409 1892 27E8      		ldi r18,lo8(-121)
 5410 1894 F301      		movw r30,r6
 5411 1896 2683      		std Z+6,r18
 5412 1898 30EE      		ldi r19,lo8(-32)
 5413 189a 3783      		std Z+7,r19
 5414               	.L451:
 5415               	.LBE522:
 5416               	.LBE541:
 5417               	.LBB542:
 5418               	.LBB543:
 5419               	.LM798:
 5420 189c 8091 A108 		lds r24,2209
 5421 18a0 85FF      		sbrs r24,5
 5422 18a2 00C0      		rjmp .L451
 5423               	.LM799:
 5424 18a4 1092 A008 		sts 2208,__zero_reg__
 5425               	.L728:
 5426               	.LBE543:
 5427               	.LBE542:
 5428               	.LM800:
 5429 18a8 0E94 0000 		call serial_bridge
 5430               	.LVL320:
 5431 18ac 00C0      		rjmp .L447
 5432               	.LVL321:
 5433               	.L646:
 5434               	.LBB544:
 5435               	.LBB545:
 5436               	.LM801:
 5437 18ae 8091 B109 		lds r24,2481
 5438 18b2 85FF      		sbrs r24,5
 5439 18b4 00C0      		rjmp .L646
 5440               	.LM802:
 5441 18b6 1093 B009 		sts 2480,r17
 5442               	.LBE545:
 5443               	.LBE544:
 5444               	.LM803:
 5445 18ba 1A32      		cpi r17,lo8(42)
 5446 18bc 01F0      		breq .L452
 5447               	.LVL322:
 5448               	.L447:
 5449 18be 88E8      		ldi r24,lo8(5000)
 5450 18c0 93E1      		ldi r25,hi8(5000)
 5451               	.LVL323:
 5452               	.L453:
 5453               	.LBB546:
 5454               	.LBB547:
 5455               	.LBB548:
 5456               	.LBB549:
 5457               	.LM804:
 5458 18c2 E0E2      		ldi r30,lo8(800)
 5459 18c4 F3E0      		ldi r31,hi8(800)
 5460               	/* #APP */
 5461               	 ;  105 "c:/winavr-20100110/lib/gcc/../../avr/include/util/delay_basic.h" 1
 5462 18c6 3197      		1: sbiw r30,1
 5463 18c8 01F4      		brne 1b
 5464               	 ;  0 "" 2
 5465               	/* #NOAPP */
 5466               	.LBE549:
 5467               	.LBE548:
 5468               	.LM805:
 5469 18ca 0197      		sbiw r24,1
 5470               	.LM806:
 5471 18cc 01F4      		brne .L453
 5472               	.LBE547:
 5473               	.LBE546:
 5474               	.LM807:
 5475 18ce 1A32      		cpi r17,lo8(42)
 5476 18d0 01F0      		breq .+2
 5477 18d2 00C0      		rjmp .L726
 5478               	.L452:
 5479 18d4 80E0      		ldi r24,lo8(0)
 5480 18d6 90E0      		ldi r25,hi8(0)
 5481 18d8 A0E0      		ldi r26,hlo8(0)
 5482 18da B0E0      		ldi r27,hhi8(0)
 5483               	.LVL324:
 5484               	.LBB550:
 5485               	.LBB551:
 5486               	.LM808:
 5487 18dc 412C      		mov r4,__zero_reg__
 5488 18de 6AE0      		ldi r22,hi8(2560)
 5489 18e0 562E      		mov r5,r22
 5490               	.LVL325:
 5491               	.L607:
 5492               	.LBE551:
 5493               	.LBE550:
 5494               	.LM809:
 5495 18e2 9C01      		movw r18,r24
 5496 18e4 AD01      		movw r20,r26
 5497 18e6 2F5F      		subi r18,lo8(-(1))
 5498 18e8 3F4F      		sbci r19,hi8(-(1))
 5499 18ea 4F4F      		sbci r20,hlo8(-(1))
 5500 18ec 5F4F      		sbci r21,hhi8(-(1))
 5501 18ee 28A3      		std Y+32,r18
 5502 18f0 39A3      		std Y+33,r19
 5503 18f2 4AA3      		std Y+34,r20
 5504 18f4 5BA3      		std Y+35,r21
 5505               	.LVL326:
 5506               	.LBB553:
 5507               	.LBB554:
 5508               	.LM810:
 5509 18f6 9091 0000 		lds r25,BT_data+258
 5510               	.LVL327:
 5511               	.LM811:
 5512 18fa 8091 0000 		lds r24,BT_data+259
 5513               	.LVL328:
 5514               	.LBE554:
 5515               	.LBE553:
 5516               	.LM812:
 5517 18fe 9817      		cp r25,r24
 5518 1900 01F4      		brne .+2
 5519 1902 00C0      		rjmp .L454
 5520               	.LBB555:
 5521               	.LBB556:
 5522               	.LM813:
 5523 1904 E091 0000 		lds r30,BT_data+259
 5524               	.LVL329:
 5525 1908 F0E0      		ldi r31,lo8(0)
 5526 190a E050      		subi r30,lo8(-(BT_data))
 5527 190c F040      		sbci r31,hi8(-(BT_data))
 5528 190e 9281      		ldd r25,Z+2
 5529               	.LVL330:
 5530               	.LM814:
 5531 1910 8091 0000 		lds r24,BT_data+259
 5532               	.LVL331:
 5533 1914 8F5F      		subi r24,lo8(-(1))
 5534 1916 8093 0000 		sts BT_data+259,r24
 5535               	.LBE556:
 5536               	.LBE555:
 5537               	.LM815:
 5538 191a 9923      		tst r25
 5539 191c 01F4      		brne .+2
 5540 191e 00C0      		rjmp .L454
 5541               	.L645:
 5542               	.LBB557:
 5543               	.LBB558:
 5544               	.LM816:
 5545 1920 8091 B109 		lds r24,2481
 5546 1924 85FF      		sbrs r24,5
 5547 1926 00C0      		rjmp .L645
 5548               	.LM817:
 5549 1928 9093 B009 		sts 2480,r25
 5550               	.LBE558:
 5551               	.LBE557:
 5552               	.LM818:
 5553 192c 9435      		cpi r25,lo8(84)
 5554 192e 01F4      		brne .+2
 5555 1930 00C0      		rjmp .L470
 5556 1932 9535      		cpi r25,lo8(85)
 5557 1934 00F4      		brsh .L483
 5558 1936 9934      		cpi r25,lo8(73)
 5559 1938 01F4      		brne .+2
 5560 193a 00C0      		rjmp .L464
 5561 193c 9A34      		cpi r25,lo8(74)
 5562 193e 00F4      		brsh .L484
 5563 1940 9234      		cpi r25,lo8(66)
 5564 1942 01F4      		brne .+2
 5565 1944 00C0      		rjmp .L461
 5566 1946 9334      		cpi r25,lo8(67)
 5567 1948 00F4      		brsh .L485
 5568 194a 9E33      		cpi r25,lo8(62)
 5569 194c 01F4      		brne .+2
 5570 194e 00C0      		rjmp .L459
 5571 1950 9F33      		cpi r25,lo8(63)
 5572 1952 00F4      		brsh .L486
 5573 1954 9132      		cpi r25,lo8(33)
 5574 1956 01F4      		brne .+2
 5575 1958 00C0      		rjmp .L457
 5576 195a 9C33      		cpi r25,lo8(60)
 5577 195c 01F0      		breq .+2
 5578 195e 00C0      		rjmp .L456
 5579 1960 00C0      		rjmp .L738
 5580               	.L486:
 5581 1962 9134      		cpi r25,lo8(65)
 5582 1964 01F0      		breq .+2
 5583 1966 00C0      		rjmp .L456
 5584 1968 00C0      		rjmp .L739
 5585               	.L485:
 5586 196a 9334      		cpi r25,lo8(67)
 5587 196c 01F4      		brne .+2
 5588 196e 00C0      		rjmp .L462
 5589 1970 9734      		cpi r25,lo8(71)
 5590 1972 01F0      		breq .+2
 5591 1974 00C0      		rjmp .L456
 5592 1976 00C0      		rjmp .L740
 5593               	.L484:
 5594 1978 9035      		cpi r25,lo8(80)
 5595 197a 01F4      		brne .+2
 5596 197c 00C0      		rjmp .L467
 5597 197e 9135      		cpi r25,lo8(81)
 5598 1980 00F4      		brsh .L487
 5599 1982 9C34      		cpi r25,lo8(76)
 5600 1984 01F4      		brne .+2
 5601 1986 00C0      		rjmp .L465
 5602 1988 9F34      		cpi r25,lo8(79)
 5603 198a 01F0      		breq .+2
 5604 198c 00C0      		rjmp .L456
 5605 198e 00C0      		rjmp .L741
 5606               	.L487:
 5607 1990 9235      		cpi r25,lo8(82)
 5608 1992 01F4      		brne .+2
 5609 1994 00C0      		rjmp .L468
 5610 1996 9335      		cpi r25,lo8(83)
 5611 1998 00F0      		brlo .+2
 5612 199a 00C0      		rjmp .L469
 5613 199c 00C0      		rjmp .L727
 5614               	.L483:
 5615 199e 9736      		cpi r25,lo8(103)
 5616 19a0 01F4      		brne .+2
 5617 19a2 00C0      		rjmp .L476
 5618 19a4 9836      		cpi r25,lo8(104)
 5619 19a6 00F4      		brsh .L488
 5620 19a8 9A35      		cpi r25,lo8(90)
 5621 19aa 01F4      		brne .+2
 5622 19ac 00C0      		rjmp .L473
 5623 19ae 9B35      		cpi r25,lo8(91)
 5624 19b0 00F4      		brsh .L489
 5625 19b2 9635      		cpi r25,lo8(86)
 5626 19b4 01F4      		brne .+2
 5627 19b6 00C0      		rjmp .L471
 5628 19b8 9835      		cpi r25,lo8(88)
 5629 19ba 01F0      		breq .+2
 5630 19bc 00C0      		rjmp .L456
 5631 19be 00C0      		rjmp .L742
 5632               	.L489:
 5633 19c0 9236      		cpi r25,lo8(98)
 5634 19c2 01F4      		brne .+2
 5635 19c4 00C0      		rjmp .L474
 5636 19c6 9436      		cpi r25,lo8(100)
 5637 19c8 01F0      		breq .+2
 5638 19ca 00C0      		rjmp .L456
 5639 19cc 00C0      		rjmp .L743
 5640               	.L488:
 5641 19ce 9237      		cpi r25,lo8(114)
 5642 19d0 01F0      		breq .L479
 5643 19d2 9337      		cpi r25,lo8(115)
 5644 19d4 00F4      		brsh .L490
 5645 19d6 9936      		cpi r25,lo8(105)
 5646 19d8 01F0      		breq .L477
 5647 19da 9037      		cpi r25,lo8(112)
 5648 19dc 01F0      		breq .+2
 5649 19de 00C0      		rjmp .L456
 5650 19e0 00C0      		rjmp .L744
 5651               	.L490:
 5652 19e2 9437      		cpi r25,lo8(116)
 5653 19e4 01F4      		brne .+2
 5654 19e6 00C0      		rjmp .L481
 5655 19e8 9437      		cpi r25,lo8(116)
 5656 19ea 00F4      		brsh .+2
 5657 19ec 00C0      		rjmp .L480
 5658 19ee 9537      		cpi r25,lo8(117)
 5659 19f0 01F0      		breq .+2
 5660 19f2 00C0      		rjmp .L456
 5661 19f4 00C0      		rjmp .L745
 5662               	.L479:
 5663 19f6 20E0      		ldi r18,lo8(0)
 5664               	.LVL332:
 5665 19f8 00C0      		rjmp .L491
 5666               	.LVL333:
 5667               	.L477:
 5668 19fa 00E0      		ldi r16,lo8(0)
 5669 19fc 10E0      		ldi r17,hi8(0)
 5670               	.LVL334:
 5671 19fe 00C0      		rjmp .L492
 5672               	.LVL335:
 5673               	.L739:
 5674               	.LM819:
 5675 1a00 0E94 0000 		call updateAccel
 5676               	.LVL336:
 5677               	.LM820:
 5678 1a04 9091 0000 		lds r25,_acc
 5679               	.L493:
 5680               	.LBB559:
 5681               	.LBB560:
 5682               	.LM821:
 5683 1a08 8091 B109 		lds r24,2481
 5684 1a0c 85FF      		sbrs r24,5
 5685 1a0e 00C0      		rjmp .L493
 5686               	.LM822:
 5687 1a10 9093 B009 		sts 2480,r25
 5688               	.LBE560:
 5689               	.LBE559:
 5690               	.LM823:
 5691 1a14 9091 0000 		lds r25,_acc+1
 5692               	.L494:
 5693               	.LBB561:
 5694               	.LBB562:
 5695               	.LM824:
 5696 1a18 8091 B109 		lds r24,2481
 5697 1a1c 85FF      		sbrs r24,5
 5698 1a1e 00C0      		rjmp .L494
 5699               	.LM825:
 5700 1a20 9093 B009 		sts 2480,r25
 5701               	.LBE562:
 5702               	.LBE561:
 5703               	.LM826:
 5704 1a24 9091 0000 		lds r25,_acc+2
 5705               	.L495:
 5706               	.LBB563:
 5707               	.LBB564:
 5708               	.LM827:
 5709 1a28 8091 B109 		lds r24,2481
 5710 1a2c 85FF      		sbrs r24,5
 5711 1a2e 00C0      		rjmp .L495
 5712               	.LM828:
 5713 1a30 9093 B009 		sts 2480,r25
 5714               	.LBE564:
 5715               	.LBE563:
 5716               	.LM829:
 5717 1a34 9091 0000 		lds r25,_acc+3
 5718               	.L496:
 5719               	.LBB565:
 5720               	.LBB566:
 5721               	.LM830:
 5722 1a38 8091 B109 		lds r24,2481
 5723 1a3c 85FF      		sbrs r24,5
 5724 1a3e 00C0      		rjmp .L496
 5725 1a40 00C0      		rjmp .L735
 5726               	.LVL337:
 5727               	.L461:
 5728               	.LBE566:
 5729               	.LBE565:
 5730               	.LM831:
 5731 1a42 80EB      		ldi r24,lo8(2480)
 5732 1a44 99E0      		ldi r25,hi8(2480)
 5733 1a46 0E94 0000 		call uart_getchar_timeout
 5734               	.LVL338:
 5735 1a4a 8C01      		movw r16,r24
 5736               	.LVL339:
 5737               	.LM832:
 5738 1a4c 31E0      		ldi r19,hi8(256)
 5739 1a4e 8030      		cpi r24,lo8(256)
 5740 1a50 9307      		cpc r25,r19
 5741 1a52 01F4      		brne .+2
 5742 1a54 00C0      		rjmp .L731
 5743               	.LVL340:
 5744               	.L639:
 5745               	.LBB567:
 5746               	.LBB568:
 5747               	.LM833:
 5748 1a56 8091 B109 		lds r24,2481
 5749               	.LVL341:
 5750 1a5a 85FF      		sbrs r24,5
 5751 1a5c 00C0      		rjmp .L639
 5752               	.LM834:
 5753 1a5e 0093 B009 		sts 2480,r16
 5754               	.LBE568:
 5755               	.LBE567:
 5756               	.LM835:
 5757 1a62 80EB      		ldi r24,lo8(2480)
 5758 1a64 99E0      		ldi r25,hi8(2480)
 5759 1a66 0E94 0000 		call uart_getchar_timeout
 5760 1a6a 9C01      		movw r18,r24
 5761 1a6c 6C01      		movw r12,r24
 5762               	.LM836:
 5763 1a6e 41E0      		ldi r20,hi8(256)
 5764 1a70 8030      		cpi r24,lo8(256)
 5765 1a72 9407      		cpc r25,r20
 5766 1a74 01F4      		brne .+2
 5767 1a76 00C0      		rjmp .L731
 5768               	.LVL342:
 5769               	.L638:
 5770               	.LBB569:
 5771               	.LBB570:
 5772               	.LM837:
 5773 1a78 8091 B109 		lds r24,2481
 5774 1a7c 85FF      		sbrs r24,5
 5775 1a7e 00C0      		rjmp .L638
 5776               	.LM838:
 5777 1a80 2093 B009 		sts 2480,r18
 5778               	.LBE570:
 5779               	.LBE569:
 5780               	.LM839:
 5781 1a84 902F      		mov r25,r16
 5782 1a86 8827      		clr r24
 5783 1a88 280F      		add r18,r24
 5784 1a8a 391F      		adc r19,r25
 5785               	.LVL343:
 5786               	.LBB571:
 5787               	.LBB572:
 5788               	.LM840:
 5789 1a8c 8091 4109 		lds r24,2369
 5790 1a90 8061      		ori r24,lo8(16)
 5791 1a92 8093 4109 		sts 2369,r24
 5792               	.LM841:
 5793               	/* #APP */
 5794               	 ;  20 "buzzer.c" 1
 5795 1a96 F894      		cli
 5796               	 ;  0 "" 2
 5797               	.LM842:
 5798               	/* #NOAPP */
 5799 1a98 2093 6809 		sts 2408,r18
 5800 1a9c 3093 6909 		sts (2408)+1,r19
 5801               	.LM843:
 5802               	/* #APP */
 5803               	 ;  22 "buzzer.c" 1
 5804 1aa0 7894      		sei
 5805               	 ;  0 "" 2
 5806               	/* #NOAPP */
 5807 1aa2 00C0      		rjmp .L456
 5808               	.LVL344:
 5809               	.L474:
 5810               	.LBE572:
 5811               	.LBE571:
 5812               	.LBB573:
 5813               	.LBB574:
 5814               	.LM844:
 5815 1aa4 8091 4109 		lds r24,2369
 5816 1aa8 8F7E      		andi r24,lo8(-17)
 5817 1aaa 8093 4109 		sts 2369,r24
 5818               	.LM845:
 5819 1aae 8091 6606 		lds r24,1638
 5820 1ab2 8061      		ori r24,lo8(16)
 5821 1ab4 8093 6606 		sts 1638,r24
 5822 1ab8 00C0      		rjmp .L456
 5823               	.L465:
 5824               	.LBE574:
 5825               	.LBE573:
 5826               	.LM846:
 5827 1aba 80E3      		ldi r24,lo8(48)
 5828 1abc 0E94 0000 		call read_analog
 5829               	.LVL345:
 5830 1ac0 982F      		mov r25,r24
 5831               	.L500:
 5832               	.LBB575:
 5833               	.LBB576:
 5834               	.LM847:
 5835 1ac2 8091 B109 		lds r24,2481
 5836 1ac6 85FF      		sbrs r24,5
 5837 1ac8 00C0      		rjmp .L500
 5838 1aca 00C0      		rjmp .L735
 5839               	.LVL346:
 5840               	.L470:
 5841               	.LBE576:
 5842               	.LBE575:
 5843               	.LM848:
 5844 1acc 0E94 0000 		call read_internal_temperature
 5845               	.LVL347:
 5846 1ad0 982F      		mov r25,r24
 5847               	.L501:
 5848               	.LBB577:
 5849               	.LBB578:
 5850               	.LM849:
 5851 1ad2 8091 B109 		lds r24,2481
 5852 1ad6 85FF      		sbrs r24,5
 5853 1ad8 00C0      		rjmp .L501
 5854 1ada 00C0      		rjmp .L735
 5855               	.LVL348:
 5856               	.L471:
 5857               	.LBE578:
 5858               	.LBE577:
 5859               	.LM850:
 5860 1adc 88E3      		ldi r24,lo8(56)
 5861 1ade 0E94 0000 		call read_analog
 5862               	.LVL349:
 5863 1ae2 982F      		mov r25,r24
 5864               	.L502:
 5865               	.LBB579:
 5866               	.LBB580:
 5867               	.LM851:
 5868 1ae4 8091 B109 		lds r24,2481
 5869 1ae8 85FF      		sbrs r24,5
 5870 1aea 00C0      		rjmp .L502
 5871 1aec 00C0      		rjmp .L735
 5872               	.LVL350:
 5873               	.L742:
 5874               	.LBE580:
 5875               	.LBE579:
 5876               	.LM852:
 5877 1aee 80E0      		ldi r24,lo8(0)
 5878 1af0 0E94 0000 		call read_analog
 5879               	.LVL351:
 5880 1af4 982F      		mov r25,r24
 5881               	.L503:
 5882               	.LBB581:
 5883               	.LBB582:
 5884               	.LM853:
 5885 1af6 8091 B109 		lds r24,2481
 5886 1afa 85FF      		sbrs r24,5
 5887 1afc 00C0      		rjmp .L503
 5888               	.LM854:
 5889 1afe 9093 B009 		sts 2480,r25
 5890               	.LBE582:
 5891               	.LBE581:
 5892               	.LM855:
 5893 1b02 88E0      		ldi r24,lo8(8)
 5894 1b04 0E94 0000 		call read_analog
 5895 1b08 982F      		mov r25,r24
 5896               	.L504:
 5897               	.LBB583:
 5898               	.LBB584:
 5899               	.LM856:
 5900 1b0a 8091 B109 		lds r24,2481
 5901 1b0e 85FF      		sbrs r24,5
 5902 1b10 00C0      		rjmp .L504
 5903               	.LM857:
 5904 1b12 9093 B009 		sts 2480,r25
 5905               	.LBE584:
 5906               	.LBE583:
 5907               	.LM858:
 5908 1b16 80E1      		ldi r24,lo8(16)
 5909 1b18 0E94 0000 		call read_analog
 5910 1b1c 982F      		mov r25,r24
 5911               	.L505:
 5912               	.LBB585:
 5913               	.LBB586:
 5914               	.LM859:
 5915 1b1e 8091 B109 		lds r24,2481
 5916 1b22 85FF      		sbrs r24,5
 5917 1b24 00C0      		rjmp .L505
 5918               	.LM860:
 5919 1b26 9093 B009 		sts 2480,r25
 5920               	.LBE586:
 5921               	.LBE585:
 5922               	.LM861:
 5923 1b2a 88E1      		ldi r24,lo8(24)
 5924 1b2c 0E94 0000 		call read_analog
 5925 1b30 982F      		mov r25,r24
 5926               	.L506:
 5927               	.LBB587:
 5928               	.LBB588:
 5929               	.LM862:
 5930 1b32 8091 B109 		lds r24,2481
 5931 1b36 85FF      		sbrs r24,5
 5932 1b38 00C0      		rjmp .L506
 5933               	.LM863:
 5934 1b3a 9093 B009 		sts 2480,r25
 5935               	.LBE588:
 5936               	.LBE587:
 5937               	.LM864:
 5938 1b3e 80E2      		ldi r24,lo8(32)
 5939 1b40 0E94 0000 		call read_analog
 5940 1b44 982F      		mov r25,r24
 5941               	.L507:
 5942               	.LBB589:
 5943               	.LBB590:
 5944               	.LM865:
 5945 1b46 8091 B109 		lds r24,2481
 5946 1b4a 85FF      		sbrs r24,5
 5947 1b4c 00C0      		rjmp .L507
 5948               	.LM866:
 5949 1b4e 9093 B009 		sts 2480,r25
 5950               	.LBE590:
 5951               	.LBE589:
 5952               	.LM867:
 5953 1b52 80E2      		ldi r24,lo8(32)
 5954 1b54 0E94 0000 		call read_analog
 5955 1b58 982F      		mov r25,r24
 5956               	.L508:
 5957               	.LBB591:
 5958               	.LBB592:
 5959               	.LM868:
 5960 1b5a 8091 B109 		lds r24,2481
 5961 1b5e 85FF      		sbrs r24,5
 5962 1b60 00C0      		rjmp .L508
 5963               	.L735:
 5964               	.LM869:
 5965 1b62 9093 B009 		sts 2480,r25
 5966 1b66 00C0      		rjmp .L456
 5967               	.LVL352:
 5968               	.L741:
 5969               	.LBE592:
 5970               	.LBE591:
 5971               	.LM870:
 5972 1b68 80EB      		ldi r24,lo8(2480)
 5973 1b6a 99E0      		ldi r25,hi8(2480)
 5974 1b6c 0E94 0000 		call uart_getchar_timeout
 5975               	.LVL353:
 5976               	.LM871:
 5977 1b70 51E0      		ldi r21,hi8(256)
 5978 1b72 8030      		cpi r24,lo8(256)
 5979 1b74 9507      		cpc r25,r21
 5980               	.LVL354:
 5981 1b76 01F4      		brne .+2
 5982 1b78 00C0      		rjmp .L731
 5983               	.L509:
 5984               	.LM872:
 5985 1b7a 082F      		mov r16,r24
 5986               	.LVL355:
 5987               	.L510:
 5988               	.LBB593:
 5989               	.LBB594:
 5990               	.LM873:
 5991 1b7c 8091 B109 		lds r24,2481
 5992               	.LVL356:
 5993 1b80 85FF      		sbrs r24,5
 5994 1b82 00C0      		rjmp .L510
 5995               	.LM874:
 5996 1b84 0093 B009 		sts 2480,r16
 5997               	.LBE594:
 5998               	.LBE593:
 5999               	.LM875:
 6000 1b88 80EB      		ldi r24,lo8(2480)
 6001 1b8a 99E0      		ldi r25,hi8(2480)
 6002 1b8c 0E94 0000 		call uart_getchar_timeout
 6003               	.LM876:
 6004 1b90 61E0      		ldi r22,hi8(256)
 6005 1b92 8030      		cpi r24,lo8(256)
 6006 1b94 9607      		cpc r25,r22
 6007               	.LVL357:
 6008 1b96 01F4      		brne .+2
 6009 1b98 00C0      		rjmp .L731
 6010               	.L511:
 6011               	.LM877:
 6012 1b9a 182F      		mov r17,r24
 6013               	.L512:
 6014               	.LBB595:
 6015               	.LBB596:
 6016               	.LM878:
 6017 1b9c 8091 B109 		lds r24,2481
 6018               	.LVL358:
 6019 1ba0 85FF      		sbrs r24,5
 6020 1ba2 00C0      		rjmp .L512
 6021               	.LM879:
 6022 1ba4 1093 B009 		sts 2480,r17
 6023               	.LBE596:
 6024               	.LBE595:
 6025               	.LM880:
 6026 1ba8 80EB      		ldi r24,lo8(2480)
 6027 1baa 99E0      		ldi r25,hi8(2480)
 6028 1bac 0E94 0000 		call uart_getchar_timeout
 6029               	.LM881:
 6030 1bb0 E1E0      		ldi r30,hi8(256)
 6031 1bb2 8030      		cpi r24,lo8(256)
 6032 1bb4 9E07      		cpc r25,r30
 6033               	.LVL359:
 6034 1bb6 01F4      		brne .+2
 6035 1bb8 00C0      		rjmp .L731
 6036               	.L513:
 6037               	.LM882:
 6038 1bba 982F      		mov r25,r24
 6039               	.L514:
 6040               	.LBB597:
 6041               	.LBB598:
 6042               	.LM883:
 6043 1bbc 8091 B109 		lds r24,2481
 6044               	.LVL360:
 6045 1bc0 85FF      		sbrs r24,5
 6046 1bc2 00C0      		rjmp .L514
 6047               	.LM884:
 6048 1bc4 9093 B009 		sts 2480,r25
 6049               	.LBE598:
 6050               	.LBE597:
 6051               	.LBB599:
 6052               	.LBB600:
 6053               	.LM885:
 6054 1bc8 0095      		com r16
 6055 1bca 0093 3909 		sts 2361,r16
 6056               	.LM886:
 6057 1bce 9095      		com r25
 6058 1bd0 9093 3B09 		sts 2363,r25
 6059               	.LM887:
 6060 1bd4 1095      		com r17
 6061 1bd6 1093 3D09 		sts 2365,r17
 6062 1bda 00C0      		rjmp .L456
 6063               	.LVL361:
 6064               	.L464:
 6065               	.LBE600:
 6066               	.LBE599:
 6067               	.LM888:
 6068 1bdc 80EB      		ldi r24,lo8(2480)
 6069 1bde 99E0      		ldi r25,hi8(2480)
 6070 1be0 0E94 0000 		call uart_getchar_timeout
 6071               	.LVL362:
 6072 1be4 8C01      		movw r16,r24
 6073               	.LVL363:
 6074 1be6 5C01      		movw r10,r24
 6075               	.LM889:
 6076 1be8 F1E0      		ldi r31,hi8(256)
 6077 1bea 8030      		cpi r24,lo8(256)
 6078 1bec 9F07      		cpc r25,r31
 6079 1bee 01F4      		brne .+2
 6080 1bf0 00C0      		rjmp .L731
 6081               	.L634:
 6082               	.LBB601:
 6083               	.LBB602:
 6084               	.LM890:
 6085 1bf2 8091 B109 		lds r24,2481
 6086 1bf6 85FF      		sbrs r24,5
 6087 1bf8 00C0      		rjmp .L634
 6088               	.LM891:
 6089 1bfa 0093 B009 		sts 2480,r16
 6090               	.LBE602:
 6091               	.LBE601:
 6092               	.LM892:
 6093 1bfe 80EB      		ldi r24,lo8(2480)
 6094 1c00 99E0      		ldi r25,hi8(2480)
 6095 1c02 0E94 0000 		call uart_getchar_timeout
 6096 1c06 9C01      		movw r18,r24
 6097 1c08 6C01      		movw r12,r24
 6098               	.LM893:
 6099 1c0a 41E0      		ldi r20,hi8(256)
 6100 1c0c 8030      		cpi r24,lo8(256)
 6101 1c0e 9407      		cpc r25,r20
 6102 1c10 01F4      		brne .+2
 6103 1c12 00C0      		rjmp .L731
 6104               	.LVL364:
 6105               	.L633:
 6106               	.LBB603:
 6107               	.LBB604:
 6108               	.LM894:
 6109 1c14 8091 B109 		lds r24,2481
 6110 1c18 85FF      		sbrs r24,5
 6111 1c1a 00C0      		rjmp .L633
 6112               	.LM895:
 6113 1c1c 2093 B009 		sts 2480,r18
 6114               	.LBE604:
 6115               	.LBE603:
 6116               	.LM896:
 6117 1c20 902F      		mov r25,r16
 6118 1c22 8827      		clr r24
 6119 1c24 820F      		add r24,r18
 6120 1c26 931F      		adc r25,r19
 6121 1c28 8093 0000 		sts robotData,r24
 6122 1c2c 9093 0000 		sts (robotData)+1,r25
 6123               	.LBB605:
 6124               	.LBB606:
 6125               	.LM897:
 6126               	/* #APP */
 6127               	 ;  50 "ir.c" 1
 6128 1c30 F894      		cli
 6129               	 ;  0 "" 2
 6130               	.LM898:
 6131               	/* #NOAPP */
 6132 1c32 E0E0      		ldi r30,lo8(2048)
 6133 1c34 F8E0      		ldi r31,hi8(2048)
 6134 1c36 86AB      		std Z+54,r24
 6135 1c38 97AB      		std Z+55,r25
 6136               	.LM899:
 6137               	/* #APP */
 6138               	 ;  52 "ir.c" 1
 6139 1c3a 7894      		sei
 6140               	 ;  0 "" 2
 6141               	/* #NOAPP */
 6142               	.LBE606:
 6143               	.LBE605:
 6144               	.LM900:
 6145 1c3c 80EB      		ldi r24,lo8(2480)
 6146 1c3e 99E0      		ldi r25,hi8(2480)
 6147 1c40 0E94 0000 		call uart_getchar_timeout
 6148 1c44 6C01      		movw r12,r24
 6149               	.LM901:
 6150 1c46 51E0      		ldi r21,hi8(256)
 6151 1c48 8030      		cpi r24,lo8(256)
 6152 1c4a 9507      		cpc r25,r21
 6153 1c4c 01F4      		brne .+2
 6154 1c4e 00C0      		rjmp .L731
 6155               	.LVL365:
 6156               	.L517:
 6157               	.LM902:
 6158 1c50 982F      		mov r25,r24
 6159 1c52 C092 0000 		sts robotData+2,r12
 6160               	.LVL366:
 6161               	.L518:
 6162               	.LBB607:
 6163               	.LBB608:
 6164               	.LM903:
 6165 1c56 8091 B109 		lds r24,2481
 6166 1c5a 85FF      		sbrs r24,5
 6167 1c5c 00C0      		rjmp .L518
 6168               	.LM904:
 6169 1c5e 9093 B009 		sts 2480,r25
 6170               	.LBE608:
 6171               	.LBE607:
 6172               	.LM905:
 6173 1c62 9131      		cpi r25,lo8(17)
 6174 1c64 00F4      		brsh .L624
 6175 1c66 90E0      		ldi r25,lo8(robotData+3)
 6176 1c68 892E      		mov r8,r25
 6177 1c6a 90E0      		ldi r25,hi8(robotData+3)
 6178 1c6c 992E      		mov r9,r25
 6179 1c6e 00E0      		ldi r16,lo8(0)
 6180 1c70 10E0      		ldi r17,hi8(0)
 6181               	.LVL367:
 6182 1c72 00C0      		rjmp .L520
 6183               	.LVL368:
 6184               	.L624:
 6185               	.LBB609:
 6186               	.LBB610:
 6187               	.LM906:
 6188 1c74 8091 B109 		lds r24,2481
 6189 1c78 85FF      		sbrs r24,5
 6190 1c7a 00C0      		rjmp .L624
 6191               	.LM907:
 6192 1c7c 82E5      		ldi r24,lo8(82)
 6193 1c7e 8093 B009 		sts 2480,r24
 6194 1c82 00C0      		rjmp .L456
 6195               	.LVL369:
 6196               	.L523:
 6197               	.LBE610:
 6198               	.LBE609:
 6199               	.LM908:
 6200 1c84 80EB      		ldi r24,lo8(2480)
 6201 1c86 99E0      		ldi r25,hi8(2480)
 6202 1c88 0E94 0000 		call uart_getchar_timeout
 6203               	.LVL370:
 6204 1c8c F82E      		mov r15,r24
 6205               	.LVL371:
 6206 1c8e 5C01      		movw r10,r24
 6207               	.LM909:
 6208 1c90 60E0      		ldi r22,lo8(256)
 6209 1c92 A616      		cp r10,r22
 6210 1c94 61E0      		ldi r22,hi8(256)
 6211 1c96 B606      		cpc r11,r22
 6212 1c98 01F4      		brne .+2
 6213 1c9a 00C0      		rjmp .L731
 6214               	.LVL372:
 6215               	.L632:
 6216               	.LBB611:
 6217               	.LBB612:
 6218               	.LM910:
 6219 1c9c 8091 B109 		lds r24,2481
 6220 1ca0 85FF      		sbrs r24,5
 6221 1ca2 00C0      		rjmp .L632
 6222               	.LM911:
 6223 1ca4 F092 B009 		sts 2480,r15
 6224               	.LBE612:
 6225               	.LBE611:
 6226               	.LM912:
 6227 1ca8 80EB      		ldi r24,lo8(2480)
 6228 1caa 99E0      		ldi r25,hi8(2480)
 6229 1cac 0E94 0000 		call uart_getchar_timeout
 6230 1cb0 9C01      		movw r18,r24
 6231 1cb2 6C01      		movw r12,r24
 6232               	.LM913:
 6233 1cb4 81E0      		ldi r24,hi8(256)
 6234 1cb6 2030      		cpi r18,lo8(256)
 6235 1cb8 3807      		cpc r19,r24
 6236 1cba 01F4      		brne .+2
 6237 1cbc 00C0      		rjmp .L731
 6238               	.LVL373:
 6239               	.L631:
 6240               	.LBB613:
 6241               	.LBB614:
 6242               	.LM914:
 6243 1cbe 8091 B109 		lds r24,2481
 6244 1cc2 85FF      		sbrs r24,5
 6245 1cc4 00C0      		rjmp .L631
 6246               	.LM915:
 6247 1cc6 2093 B009 		sts 2480,r18
 6248               	.LBE614:
 6249               	.LBE613:
 6250               	.LM916:
 6251 1cca 3F2C      		mov r3,r15
 6252 1ccc 2224      		clr r2
 6253 1cce 220D      		add r18,r2
 6254 1cd0 331D      		adc r19,r3
 6255               	.LVL374:
 6256 1cd2 F401      		movw r30,r8
 6257 1cd4 2193      		st Z+,r18
 6258 1cd6 3193      		st Z+,r19
 6259 1cd8 4F01      		movw r8,r30
 6260               	.LM917:
 6261 1cda 0F5F      		subi r16,lo8(-(1))
 6262 1cdc 1F4F      		sbci r17,hi8(-(1))
 6263               	.LVL375:
 6264               	.L520:
 6265 1cde 8091 0000 		lds r24,robotData+2
 6266 1ce2 90E0      		ldi r25,lo8(0)
 6267 1ce4 0817      		cp r16,r24
 6268 1ce6 1907      		cpc r17,r25
 6269 1ce8 04F0      		brlt .L523
 6270               	.LM918:
 6271 1cea F0E0      		ldi r31,lo8(256)
 6272 1cec AF16      		cp r10,r31
 6273 1cee F1E0      		ldi r31,hi8(256)
 6274 1cf0 BF06      		cpc r11,r31
 6275 1cf2 01F4      		brne .+2
 6276 1cf4 00C0      		rjmp .L456
 6277 1cf6 20E0      		ldi r18,lo8(256)
 6278 1cf8 C216      		cp r12,r18
 6279 1cfa 21E0      		ldi r18,hi8(256)
 6280 1cfc D206      		cpc r13,r18
 6281               	.LVL376:
 6282 1cfe 01F4      		brne .+2
 6283 1d00 00C0      		rjmp .L456
 6284               	.LM919:
 6285 1d02 80EB      		ldi r24,lo8(2480)
 6286 1d04 99E0      		ldi r25,hi8(2480)
 6287 1d06 0E94 0000 		call uart_getchar_timeout
 6288 1d0a 6C01      		movw r12,r24
 6289               	.LM920:
 6290 1d0c 31E0      		ldi r19,hi8(256)
 6291 1d0e 8030      		cpi r24,lo8(256)
 6292 1d10 9307      		cpc r25,r19
 6293 1d12 01F4      		brne .+2
 6294 1d14 00C0      		rjmp .L731
 6295               	.LVL377:
 6296               	.L524:
 6297               	.LM921:
 6298 1d16 982F      		mov r25,r24
 6299 1d18 C092 0000 		sts robotData+35,r12
 6300               	.LVL378:
 6301               	.L525:
 6302               	.LBB615:
 6303               	.LBB616:
 6304               	.LM922:
 6305 1d1c 8091 B109 		lds r24,2481
 6306 1d20 85FF      		sbrs r24,5
 6307 1d22 00C0      		rjmp .L525
 6308               	.LM923:
 6309 1d24 9093 B009 		sts 2480,r25
 6310               	.LBE616:
 6311               	.LBE615:
 6312               	.LM924:
 6313 1d28 80EB      		ldi r24,lo8(2480)
 6314 1d2a 99E0      		ldi r25,hi8(2480)
 6315 1d2c 0E94 0000 		call uart_getchar_timeout
 6316 1d30 6C01      		movw r12,r24
 6317               	.LM925:
 6318 1d32 41E0      		ldi r20,hi8(256)
 6319 1d34 8030      		cpi r24,lo8(256)
 6320 1d36 9407      		cpc r25,r20
 6321 1d38 01F4      		brne .+2
 6322 1d3a 00C0      		rjmp .L731
 6323               	.LVL379:
 6324               	.L526:
 6325               	.LM926:
 6326 1d3c 282F      		mov r18,r24
 6327               	.LVL380:
 6328               	.L527:
 6329               	.LBB617:
 6330               	.LBB618:
 6331               	.LM927:
 6332 1d3e 8091 B109 		lds r24,2481
 6333 1d42 85FF      		sbrs r24,5
 6334 1d44 00C0      		rjmp .L527
 6335               	.LM928:
 6336 1d46 2093 B009 		sts 2480,r18
 6337               	.LBE618:
 6338               	.LBE617:
 6339               	.LM929:
 6340 1d4a 2093 0000 		sts robotData+36,r18
 6341               	.LM930:
 6342 1d4e 822F      		mov r24,r18
 6343 1d50 90E0      		ldi r25,lo8(0)
 6344 1d52 0197      		sbiw r24,1
 6345 1d54 68E0      		ldi r22,lo8(8)
 6346 1d56 70E0      		ldi r23,hi8(8)
 6347 1d58 0E94 0000 		call __divmodhi4
 6348 1d5c 6F5F      		subi r22,lo8(-(1))
 6349 1d5e 6093 0000 		sts robotData+37,r22
 6350               	.L528:
 6351               	.LBB619:
 6352               	.LBB620:
 6353               	.LM931:
 6354 1d62 8091 B109 		lds r24,2481
 6355 1d66 85FF      		sbrs r24,5
 6356 1d68 00C0      		rjmp .L528
 6357               	.LM932:
 6358 1d6a 2093 B009 		sts 2480,r18
 6359               	.LBE620:
 6360               	.LBE619:
 6361               	.LM933:
 6362 1d6e 80EB      		ldi r24,lo8(2480)
 6363 1d70 99E0      		ldi r25,hi8(2480)
 6364 1d72 0E94 0000 		call uart_getchar_timeout
 6365 1d76 8C01      		movw r16,r24
 6366               	.LVL381:
 6367               	.LM934:
 6368 1d78 51E0      		ldi r21,hi8(256)
 6369 1d7a 8030      		cpi r24,lo8(256)
 6370 1d7c 9507      		cpc r25,r21
 6371 1d7e 01F4      		brne .+2
 6372 1d80 00C0      		rjmp .L731
 6373               	.L630:
 6374               	.LBB621:
 6375               	.LBB622:
 6376               	.LM935:
 6377 1d82 8091 B109 		lds r24,2481
 6378 1d86 85FF      		sbrs r24,5
 6379 1d88 00C0      		rjmp .L630
 6380               	.LM936:
 6381 1d8a 0093 B009 		sts 2480,r16
 6382               	.LBE622:
 6383               	.LBE621:
 6384               	.LM937:
 6385 1d8e 80EB      		ldi r24,lo8(2480)
 6386 1d90 99E0      		ldi r25,hi8(2480)
 6387 1d92 0E94 0000 		call uart_getchar_timeout
 6388 1d96 9C01      		movw r18,r24
 6389 1d98 6C01      		movw r12,r24
 6390               	.LM938:
 6391 1d9a 61E0      		ldi r22,hi8(256)
 6392 1d9c 8030      		cpi r24,lo8(256)
 6393 1d9e 9607      		cpc r25,r22
 6394 1da0 01F4      		brne .+2
 6395 1da2 00C0      		rjmp .L731
 6396               	.LVL382:
 6397               	.L629:
 6398               	.LBB623:
 6399               	.LBB624:
 6400               	.LM939:
 6401 1da4 8091 B109 		lds r24,2481
 6402 1da8 85FF      		sbrs r24,5
 6403 1daa 00C0      		rjmp .L629
 6404               	.LM940:
 6405 1dac 2093 B009 		sts 2480,r18
 6406               	.LBE624:
 6407               	.LBE623:
 6408               	.LM941:
 6409 1db0 902F      		mov r25,r16
 6410 1db2 8827      		clr r24
 6411 1db4 280F      		add r18,r24
 6412 1db6 391F      		adc r19,r25
 6413               	.LVL383:
 6414 1db8 2093 0000 		sts robotData+38,r18
 6415 1dbc 3093 0000 		sts (robotData+38)+1,r19
 6416               	.LM942:
 6417 1dc0 80EB      		ldi r24,lo8(2480)
 6418 1dc2 99E0      		ldi r25,hi8(2480)
 6419 1dc4 0E94 0000 		call uart_getchar_timeout
 6420               	.LVL384:
 6421 1dc8 8C01      		movw r16,r24
 6422               	.LVL385:
 6423               	.LM943:
 6424 1dca 81E0      		ldi r24,hi8(256)
 6425 1dcc 0030      		cpi r16,lo8(256)
 6426 1dce 1807      		cpc r17,r24
 6427 1dd0 01F4      		brne .+2
 6428 1dd2 00C0      		rjmp .L731
 6429               	.LVL386:
 6430               	.L628:
 6431               	.LBB625:
 6432               	.LBB626:
 6433               	.LM944:
 6434 1dd4 8091 B109 		lds r24,2481
 6435 1dd8 85FF      		sbrs r24,5
 6436 1dda 00C0      		rjmp .L628
 6437               	.LM945:
 6438 1ddc 0093 B009 		sts 2480,r16
 6439               	.LBE626:
 6440               	.LBE625:
 6441               	.LM946:
 6442 1de0 80EB      		ldi r24,lo8(2480)
 6443 1de2 99E0      		ldi r25,hi8(2480)
 6444 1de4 0E94 0000 		call uart_getchar_timeout
 6445 1de8 9C01      		movw r18,r24
 6446 1dea 6C01      		movw r12,r24
 6447               	.LVL387:
 6448               	.LM947:
 6449 1dec 91E0      		ldi r25,hi8(256)
 6450 1dee 2030      		cpi r18,lo8(256)
 6451 1df0 3907      		cpc r19,r25
 6452 1df2 01F4      		brne .+2
 6453 1df4 00C0      		rjmp .L731
 6454               	.LVL388:
 6455               	.L627:
 6456               	.LBB627:
 6457               	.LBB628:
 6458               	.LM948:
 6459 1df6 8091 B109 		lds r24,2481
 6460 1dfa 85FF      		sbrs r24,5
 6461 1dfc 00C0      		rjmp .L627
 6462               	.LM949:
 6463 1dfe 2093 B009 		sts 2480,r18
 6464               	.LBE628:
 6465               	.LBE627:
 6466               	.LM950:
 6467 1e02 902F      		mov r25,r16
 6468 1e04 8827      		clr r24
 6469 1e06 280F      		add r18,r24
 6470 1e08 391F      		adc r19,r25
 6471               	.LVL389:
 6472 1e0a 2093 0000 		sts robotData+40,r18
 6473 1e0e 3093 0000 		sts (robotData+40)+1,r19
 6474               	.LM951:
 6475 1e12 80EB      		ldi r24,lo8(2480)
 6476 1e14 99E0      		ldi r25,hi8(2480)
 6477 1e16 0E94 0000 		call uart_getchar_timeout
 6478               	.LVL390:
 6479 1e1a 8C01      		movw r16,r24
 6480               	.LVL391:
 6481               	.LM952:
 6482 1e1c E1E0      		ldi r30,hi8(256)
 6483 1e1e 8030      		cpi r24,lo8(256)
 6484 1e20 9E07      		cpc r25,r30
 6485 1e22 01F4      		brne .+2
 6486 1e24 00C0      		rjmp .L731
 6487               	.L626:
 6488               	.LBB629:
 6489               	.LBB630:
 6490               	.LM953:
 6491 1e26 8091 B109 		lds r24,2481
 6492 1e2a 85FF      		sbrs r24,5
 6493 1e2c 00C0      		rjmp .L626
 6494               	.LM954:
 6495 1e2e 0093 B009 		sts 2480,r16
 6496               	.LBE630:
 6497               	.LBE629:
 6498               	.LM955:
 6499 1e32 80EB      		ldi r24,lo8(2480)
 6500 1e34 99E0      		ldi r25,hi8(2480)
 6501 1e36 0E94 0000 		call uart_getchar_timeout
 6502 1e3a 9C01      		movw r18,r24
 6503 1e3c 6C01      		movw r12,r24
 6504               	.LVL392:
 6505               	.LM956:
 6506 1e3e F1E0      		ldi r31,hi8(256)
 6507 1e40 8030      		cpi r24,lo8(256)
 6508 1e42 9F07      		cpc r25,r31
 6509 1e44 01F4      		brne .+2
 6510 1e46 00C0      		rjmp .L731
 6511               	.LVL393:
 6512               	.L625:
 6513               	.LBB631:
 6514               	.LBB632:
 6515               	.LM957:
 6516 1e48 8091 B109 		lds r24,2481
 6517 1e4c 85FF      		sbrs r24,5
 6518 1e4e 00C0      		rjmp .L625
 6519               	.LM958:
 6520 1e50 2093 B009 		sts 2480,r18
 6521               	.LBE632:
 6522               	.LBE631:
 6523               	.LM959:
 6524 1e54 902F      		mov r25,r16
 6525 1e56 8827      		clr r24
 6526 1e58 280F      		add r18,r24
 6527 1e5a 391F      		adc r19,r25
 6528               	.LVL394:
 6529 1e5c 2093 0000 		sts robotData+42,r18
 6530 1e60 3093 0000 		sts (robotData+42)+1,r19
 6531 1e64 00C0      		rjmp .L456
 6532               	.LVL395:
 6533               	.L537:
 6534               	.LM960:
 6535 1e66 80EB      		ldi r24,lo8(2480)
 6536 1e68 99E0      		ldi r25,hi8(2480)
 6537 1e6a 0E94 0000 		call uart_getchar_timeout
 6538               	.LVL396:
 6539 1e6e 6C01      		movw r12,r24
 6540               	.LM961:
 6541 1e70 21E0      		ldi r18,hi8(256)
 6542 1e72 8030      		cpi r24,lo8(256)
 6543 1e74 9207      		cpc r25,r18
 6544 1e76 01F4      		brne .+2
 6545 1e78 00C0      		rjmp .L731
 6546               	.LVL397:
 6547               	.L535:
 6548               	.LM962:
 6549 1e7a 982F      		mov r25,r24
 6550 1e7c F801      		movw r30,r16
 6551 1e7e E050      		subi r30,lo8(-(robotData))
 6552 1e80 F040      		sbci r31,hi8(-(robotData))
 6553 1e82 C4A6      		std Z+44,r12
 6554               	.LVL398:
 6555               	.L536:
 6556               	.LBB633:
 6557               	.LBB634:
 6558               	.LM963:
 6559 1e84 8091 B109 		lds r24,2481
 6560 1e88 85FF      		sbrs r24,5
 6561 1e8a 00C0      		rjmp .L536
 6562               	.LM964:
 6563 1e8c 9093 B009 		sts 2480,r25
 6564               	.LBE634:
 6565               	.LBE633:
 6566               	.LM965:
 6567 1e90 0F5F      		subi r16,lo8(-(1))
 6568 1e92 1F4F      		sbci r17,hi8(-(1))
 6569               	.LVL399:
 6570               	.L492:
 6571 1e94 8091 0000 		lds r24,robotData+37
 6572 1e98 90E0      		ldi r25,lo8(0)
 6573               	.LVL400:
 6574 1e9a 0817      		cp r16,r24
 6575 1e9c 1907      		cpc r17,r25
 6576 1e9e 04F0      		brlt .L537
 6577               	.LM966:
 6578 1ea0 30E0      		ldi r19,lo8(256)
 6579 1ea2 C316      		cp r12,r19
 6580 1ea4 31E0      		ldi r19,hi8(256)
 6581 1ea6 D306      		cpc r13,r19
 6582 1ea8 01F4      		brne .+2
 6583 1eaa 00C0      		rjmp .L456
 6584               	.LM967:
 6585 1eac 80EB      		ldi r24,lo8(2480)
 6586 1eae 99E0      		ldi r25,hi8(2480)
 6587 1eb0 0E94 0000 		call uart_getchar_timeout
 6588               	.LVL401:
 6589 1eb4 8C01      		movw r16,r24
 6590               	.LVL402:
 6591               	.LM968:
 6592 1eb6 41E0      		ldi r20,hi8(256)
 6593 1eb8 8030      		cpi r24,lo8(256)
 6594 1eba 9407      		cpc r25,r20
 6595 1ebc 01F4      		brne .+2
 6596 1ebe 00C0      		rjmp .L731
 6597               	.LVL403:
 6598               	.L617:
 6599               	.LBB635:
 6600               	.LBB636:
 6601               	.LM969:
 6602 1ec0 8091 B109 		lds r24,2481
 6603               	.LVL404:
 6604 1ec4 85FF      		sbrs r24,5
 6605 1ec6 00C0      		rjmp .L617
 6606               	.LM970:
 6607 1ec8 0093 B009 		sts 2480,r16
 6608               	.LBE636:
 6609               	.LBE635:
 6610               	.LM971:
 6611 1ecc 80EB      		ldi r24,lo8(2480)
 6612 1ece 99E0      		ldi r25,hi8(2480)
 6613 1ed0 0E94 0000 		call uart_getchar_timeout
 6614 1ed4 9C01      		movw r18,r24
 6615 1ed6 6C01      		movw r12,r24
 6616               	.LM972:
 6617 1ed8 51E0      		ldi r21,hi8(256)
 6618 1eda 8030      		cpi r24,lo8(256)
 6619 1edc 9507      		cpc r25,r21
 6620 1ede 01F4      		brne .+2
 6621 1ee0 00C0      		rjmp .L731
 6622               	.LVL405:
 6623               	.L616:
 6624               	.LBB637:
 6625               	.LBB638:
 6626               	.LM973:
 6627 1ee2 8091 B109 		lds r24,2481
 6628 1ee6 85FF      		sbrs r24,5
 6629 1ee8 00C0      		rjmp .L616
 6630               	.LM974:
 6631 1eea 2093 B009 		sts 2480,r18
 6632               	.LBE638:
 6633               	.LBE637:
 6634               	.LM975:
 6635 1eee 902F      		mov r25,r16
 6636 1ef0 8827      		clr r24
 6637 1ef2 820F      		add r24,r18
 6638 1ef4 931F      		adc r25,r19
 6639 1ef6 8093 0000 		sts robotData+236,r24
 6640 1efa 9093 0000 		sts (robotData+236)+1,r25
 6641               	.LM976:
 6642 1efe 892B      		or r24,r25
 6643 1f00 01F0      		breq .L540
 6644               	.LVL406:
 6645               	.LM977:
 6646 1f02 81E0      		ldi r24,lo8(1)
 6647 1f04 90E0      		ldi r25,hi8(1)
 6648 1f06 8093 0000 		sts robotData+238,r24
 6649 1f0a 9093 0000 		sts (robotData+238)+1,r25
 6650 1f0e 00C0      		rjmp .L737
 6651               	.L540:
 6652               	.LM978:
 6653 1f10 1092 0000 		sts robotData+238,__zero_reg__
 6654 1f14 1092 0000 		sts (robotData+238)+1,__zero_reg__
 6655 1f18 00C0      		rjmp .L737
 6656               	.LVL407:
 6657               	.L457:
 6658               	.LM979:
 6659 1f1a 1092 0000 		sts robotData+238,__zero_reg__
 6660 1f1e 1092 0000 		sts (robotData+238)+1,__zero_reg__
 6661               	.LBB639:
 6662               	.LBB640:
 6663               	.LM980:
 6664 1f22 E0E4      		ldi r30,lo8(2112)
 6665 1f24 F8E0      		ldi r31,hi8(2112)
 6666 1f26 1682      		std Z+6,__zero_reg__
 6667               	.LBB641:
 6668               	.LBB642:
 6669               	.LM981:
 6670               	/* #APP */
 6671               	 ;  42 "ir.c" 1
 6672 1f28 F894      		cli
 6673               	 ;  0 "" 2
 6674               	.LM982:
 6675               	/* #NOAPP */
 6676 1f2a E0E0      		ldi r30,lo8(2048)
 6677 1f2c F8E0      		ldi r31,hi8(2048)
 6678 1f2e 10A6      		std Z+40,__zero_reg__
 6679 1f30 11A6      		std Z+41,__zero_reg__
 6680               	.LM983:
 6681               	/* #APP */
 6682               	 ;  44 "ir.c" 1
 6683 1f32 7894      		sei
 6684               	 ;  0 "" 2
 6685               	/* #NOAPP */
 6686 1f34 00C0      		rjmp .L456
 6687               	.L468:
 6688               	.LBE642:
 6689               	.LBE641:
 6690               	.LBE640:
 6691               	.LBE639:
 6692               	.LM984:
 6693 1f36 0E94 0000 		call init_ir_read
 6694               	.LVL408:
 6695               	.L542:
 6696               	.LM985:
 6697 1f3a 8091 0000 		lds r24,ir_read_flag
 6698 1f3e 8823      		tst r24
 6699 1f40 01F4      		brne .L542
 6700 1f42 00C0      		rjmp .L456
 6701               	.LVL409:
 6702               	.L469:
 6703               	.LM986:
 6704 1f44 80EB      		ldi r24,lo8(2480)
 6705 1f46 99E0      		ldi r25,hi8(2480)
 6706 1f48 0E94 0000 		call uart_getchar_timeout
 6707               	.LVL410:
 6708 1f4c 982F      		mov r25,r24
 6709               	.LVL411:
 6710 1f4e 9053      		subi r25,lo8(-(-48))
 6711               	.LM987:
 6712 1f50 9530      		cpi r25,lo8(5)
 6713 1f52 00F0      		brlo .+2
 6714 1f54 00C0      		rjmp .L731
 6715 1f56 8091 0000 		lds r24,signal_count
 6716 1f5a 8530      		cpi r24,lo8(5)
 6717 1f5c 00F4      		brsh .+2
 6718 1f5e 00C0      		rjmp .L731
 6719               	.L637:
 6720               	.LBB643:
 6721               	.LBB644:
 6722               	.LM988:
 6723 1f60 8091 B109 		lds r24,2481
 6724 1f64 85FF      		sbrs r24,5
 6725 1f66 00C0      		rjmp .L637
 6726               	.LBE644:
 6727               	.LBE643:
 6728               	.LM989:
 6729 1f68 905D      		subi r25,lo8(-(48))
 6730               	.LBB646:
 6731               	.LBB645:
 6732               	.LM990:
 6733 1f6a 9093 B009 		sts 2480,r25
 6734 1f6e 9053      		subi r25,lo8(-(-48))
 6735               	.LBE645:
 6736               	.LBE646:
 6737               	.LM991:
 6738 1f70 892F      		mov r24,r25
 6739 1f72 90E0      		ldi r25,lo8(0)
 6740               	.LVL412:
 6741 1f74 0E94 0000 		call write_data_to_eeprom
 6742 1f78 00C0      		rjmp .L456
 6743               	.LVL413:
 6744               	.L480:
 6745               	.LM992:
 6746 1f7a 0E94 0000 		call read_data_from_serial
 6747               	.LVL414:
 6748 1f7e 892B      		or r24,r25
 6749 1f80 01F4      		brne .+2
 6750 1f82 00C0      		rjmp .L731
 6751               	.LM993:
 6752 1f84 80EB      		ldi r24,lo8(2480)
 6753 1f86 99E0      		ldi r25,hi8(2480)
 6754 1f88 0E94 0000 		call uart_getchar_timeout
 6755 1f8c 8C01      		movw r16,r24
 6756               	.LVL415:
 6757               	.LM994:
 6758 1f8e 91E0      		ldi r25,hi8(256)
 6759 1f90 0030      		cpi r16,lo8(256)
 6760 1f92 1907      		cpc r17,r25
 6761 1f94 01F4      		brne .+2
 6762 1f96 00C0      		rjmp .L731
 6763               	.LVL416:
 6764               	.L613:
 6765               	.LBB647:
 6766               	.LBB648:
 6767               	.LM995:
 6768 1f98 8091 B109 		lds r24,2481
 6769 1f9c 85FF      		sbrs r24,5
 6770 1f9e 00C0      		rjmp .L613
 6771               	.LM996:
 6772 1fa0 0093 B009 		sts 2480,r16
 6773               	.LBE648:
 6774               	.LBE647:
 6775               	.LM997:
 6776 1fa4 80EB      		ldi r24,lo8(2480)
 6777 1fa6 99E0      		ldi r25,hi8(2480)
 6778 1fa8 0E94 0000 		call uart_getchar_timeout
 6779 1fac 9C01      		movw r18,r24
 6780 1fae 6C01      		movw r12,r24
 6781               	.LM998:
 6782 1fb0 E1E0      		ldi r30,hi8(256)
 6783 1fb2 8030      		cpi r24,lo8(256)
 6784 1fb4 9E07      		cpc r25,r30
 6785 1fb6 01F4      		brne .+2
 6786 1fb8 00C0      		rjmp .L731
 6787               	.L612:
 6788               	.LBB649:
 6789               	.LBB650:
 6790               	.LM999:
 6791 1fba 8091 B109 		lds r24,2481
 6792 1fbe 85FF      		sbrs r24,5
 6793 1fc0 00C0      		rjmp .L612
 6794               	.LM1000:
 6795 1fc2 2093 B009 		sts 2480,r18
 6796               	.LBE650:
 6797               	.LBE649:
 6798               	.LM1001:
 6799 1fc6 902F      		mov r25,r16
 6800 1fc8 8827      		clr r24
 6801 1fca 820F      		add r24,r18
 6802 1fcc 931F      		adc r25,r19
 6803 1fce 8093 0000 		sts robotData+236,r24
 6804 1fd2 9093 0000 		sts (robotData+236)+1,r25
 6805               	.LM1002:
 6806 1fd6 892B      		or r24,r25
 6807 1fd8 01F0      		breq .L548
 6808               	.LVL417:
 6809               	.LM1003:
 6810 1fda 21E0      		ldi r18,lo8(1)
 6811 1fdc 30E0      		ldi r19,hi8(1)
 6812               	.LVL418:
 6813 1fde 2093 0000 		sts robotData+238,r18
 6814 1fe2 3093 0000 		sts (robotData+238)+1,r19
 6815 1fe6 00C0      		rjmp .L736
 6816               	.LVL419:
 6817               	.L548:
 6818               	.LM1004:
 6819 1fe8 1092 0000 		sts robotData+238,__zero_reg__
 6820 1fec 1092 0000 		sts (robotData+238)+1,__zero_reg__
 6821 1ff0 00C0      		rjmp .L736
 6822               	.LVL420:
 6823               	.L740:
 6824               	.LM1005:
 6825 1ff2 80EB      		ldi r24,lo8(2480)
 6826 1ff4 99E0      		ldi r25,hi8(2480)
 6827 1ff6 0E94 0000 		call uart_getchar_timeout
 6828               	.LVL421:
 6829 1ffa 70ED      		ldi r23,lo8(-48)
 6830 1ffc F72E      		mov r15,r23
 6831 1ffe F80E      		add r15,r24
 6832               	.LM1006:
 6833 2000 64E0      		ldi r22,lo8(4)
 6834 2002 6F15      		cp r22,r15
 6835 2004 00F4      		brsh .+2
 6836 2006 00C0      		rjmp .L731
 6837               	.L644:
 6838               	.LBB651:
 6839               	.LBB652:
 6840               	.LM1007:
 6841 2008 8091 B109 		lds r24,2481
 6842 200c 85FF      		sbrs r24,5
 6843 200e 00C0      		rjmp .L644
 6844               	.LBE652:
 6845               	.LBE651:
 6846               	.LM1008:
 6847 2010 80E3      		ldi r24,lo8(48)
 6848 2012 F80E      		add r15,r24
 6849               	.LBB654:
 6850               	.LBB653:
 6851               	.LM1009:
 6852 2014 F092 B009 		sts 2480,r15
 6853 2018 90ED      		ldi r25,lo8(-48)
 6854 201a F90E      		add r15,r25
 6855               	.LBE653:
 6856               	.LBE654:
 6857               	.LM1010:
 6858 201c 80EB      		ldi r24,lo8(2480)
 6859 201e 99E0      		ldi r25,hi8(2480)
 6860 2020 0E94 0000 		call uart_getchar_timeout
 6861 2024 8C01      		movw r16,r24
 6862               	.LVL422:
 6863               	.LM1011:
 6864 2026 E1E0      		ldi r30,hi8(256)
 6865 2028 8030      		cpi r24,lo8(256)
 6866 202a 9E07      		cpc r25,r30
 6867 202c 01F4      		brne .+2
 6868 202e 00C0      		rjmp .L731
 6869               	.LVL423:
 6870               	.L643:
 6871               	.LBB655:
 6872               	.LBB656:
 6873               	.LM1012:
 6874 2030 8091 B109 		lds r24,2481
 6875               	.LVL424:
 6876 2034 85FF      		sbrs r24,5
 6877 2036 00C0      		rjmp .L643
 6878               	.LM1013:
 6879 2038 0093 B009 		sts 2480,r16
 6880               	.LBE656:
 6881               	.LBE655:
 6882               	.LM1014:
 6883 203c 80EB      		ldi r24,lo8(2480)
 6884 203e 99E0      		ldi r25,hi8(2480)
 6885 2040 0E94 0000 		call uart_getchar_timeout
 6886 2044 9C01      		movw r18,r24
 6887 2046 6C01      		movw r12,r24
 6888               	.LM1015:
 6889 2048 F1E0      		ldi r31,hi8(256)
 6890 204a 8030      		cpi r24,lo8(256)
 6891 204c 9F07      		cpc r25,r31
 6892 204e 01F4      		brne .+2
 6893 2050 00C0      		rjmp .L731
 6894               	.LVL425:
 6895               	.L642:
 6896               	.LBB657:
 6897               	.LBB658:
 6898               	.LM1016:
 6899 2052 8091 B109 		lds r24,2481
 6900 2056 85FF      		sbrs r24,5
 6901 2058 00C0      		rjmp .L642
 6902               	.LM1017:
 6903 205a 2093 B009 		sts 2480,r18
 6904               	.LBE658:
 6905               	.LBE657:
 6906               	.LM1018:
 6907 205e 902F      		mov r25,r16
 6908 2060 8827      		clr r24
 6909 2062 820F      		add r24,r18
 6910 2064 931F      		adc r25,r19
 6911 2066 8093 0000 		sts robotData+236,r24
 6912 206a 9093 0000 		sts (robotData+236)+1,r25
 6913               	.LM1019:
 6914 206e 892B      		or r24,r25
 6915 2070 01F0      		breq .L554
 6916               	.LVL426:
 6917               	.LM1020:
 6918 2072 21E0      		ldi r18,lo8(1)
 6919 2074 30E0      		ldi r19,hi8(1)
 6920               	.LVL427:
 6921 2076 2093 0000 		sts robotData+238,r18
 6922 207a 3093 0000 		sts (robotData+238)+1,r19
 6923 207e 00C0      		rjmp .L555
 6924               	.LVL428:
 6925               	.L554:
 6926               	.LM1021:
 6927 2080 1092 0000 		sts robotData+238,__zero_reg__
 6928 2084 1092 0000 		sts (robotData+238)+1,__zero_reg__
 6929               	.LVL429:
 6930               	.L555:
 6931               	.LM1022:
 6932 2088 8F2D      		mov r24,r15
 6933 208a 90E0      		ldi r25,lo8(0)
 6934 208c 0E94 0000 		call read_data_from_eeprom
 6935               	.LVL430:
 6936               	.L736:
 6937               	.LM1023:
 6938 2090 49E4      		ldi r20,lo8(841)
 6939 2092 53E0      		ldi r21,hi8(841)
 6940 2094 4093 0000 		sts robotData,r20
 6941 2098 5093 0000 		sts (robotData)+1,r21
 6942               	.LM1024:
 6943 209c 1092 0000 		sts robotData+2,__zero_reg__
 6944               	.LM1025:
 6945 20a0 54E0      		ldi r21,lo8(4)
 6946 20a2 5093 0000 		sts robotData+35,r21
 6947               	.L737:
 6948               	.LM1026:
 6949 20a6 0E94 0000 		call start_ir_timer
 6950 20aa 00C0      		rjmp .L456
 6951               	.LVL431:
 6952               	.L476:
 6953               	.LM1027:
 6954 20ac 80EB      		ldi r24,lo8(2480)
 6955 20ae 99E0      		ldi r25,hi8(2480)
 6956 20b0 0E94 0000 		call uart_getchar_timeout
 6957               	.LVL432:
 6958 20b4 982F      		mov r25,r24
 6959               	.LVL433:
 6960 20b6 9053      		subi r25,lo8(-(-48))
 6961               	.LM1028:
 6962 20b8 9530      		cpi r25,lo8(5)
 6963 20ba 00F0      		brlo .+2
 6964 20bc 00C0      		rjmp .L731
 6965               	.L610:
 6966               	.LBB659:
 6967               	.LBB660:
 6968               	.LM1029:
 6969 20be 8091 B109 		lds r24,2481
 6970 20c2 85FF      		sbrs r24,5
 6971 20c4 00C0      		rjmp .L610
 6972               	.LBE660:
 6973               	.LBE659:
 6974               	.LM1030:
 6975 20c6 905D      		subi r25,lo8(-(48))
 6976               	.LBB662:
 6977               	.LBB661:
 6978               	.LM1031:
 6979 20c8 9093 B009 		sts 2480,r25
 6980 20cc 9053      		subi r25,lo8(-(-48))
 6981               	.LBE661:
 6982               	.LBE662:
 6983               	.LM1032:
 6984 20ce 892F      		mov r24,r25
 6985 20d0 90E0      		ldi r25,lo8(0)
 6986               	.LVL434:
 6987 20d2 0E94 0000 		call print_data_from_eeprom
 6988 20d6 00C0      		rjmp .L456
 6989               	.LVL435:
 6990               	.L459:
 6991               	.LM1033:
 6992 20d8 80EB      		ldi r24,lo8(2480)
 6993 20da 99E0      		ldi r25,hi8(2480)
 6994 20dc 0E94 0000 		call uart_getchar_timeout
 6995               	.LVL436:
 6996               	.LM1034:
 6997 20e0 61E0      		ldi r22,hi8(256)
 6998 20e2 8030      		cpi r24,lo8(256)
 6999 20e4 9607      		cpc r25,r22
 7000 20e6 01F4      		brne .+2
 7001 20e8 00C0      		rjmp .L731
 7002               	.LVL437:
 7003               	.L558:
 7004               	.LM1035:
 7005 20ea 182F      		mov r17,r24
 7006               	.L559:
 7007               	.LBB663:
 7008               	.LBB664:
 7009               	.LM1036:
 7010 20ec 8091 B109 		lds r24,2481
 7011               	.LVL438:
 7012 20f0 85FF      		sbrs r24,5
 7013 20f2 00C0      		rjmp .L559
 7014               	.LM1037:
 7015 20f4 1093 B009 		sts 2480,r17
 7016               	.LBE664:
 7017               	.LBE663:
 7018               	.LM1038:
 7019 20f8 80EB      		ldi r24,lo8(2480)
 7020 20fa 99E0      		ldi r25,hi8(2480)
 7021 20fc 0E94 0000 		call uart_getchar_timeout
 7022 2100 6C01      		movw r12,r24
 7023               	.LM1039:
 7024 2102 80E0      		ldi r24,lo8(256)
 7025 2104 C816      		cp r12,r24
 7026 2106 81E0      		ldi r24,hi8(256)
 7027 2108 D806      		cpc r13,r24
 7028 210a 01F4      		brne .+2
 7029 210c 00C0      		rjmp .L731
 7030               	.L560:
 7031               	.LM1040:
 7032 210e 6C2D      		mov r22,r12
 7033               	.L561:
 7034               	.LBB665:
 7035               	.LBB666:
 7036               	.LM1041:
 7037 2110 8091 B109 		lds r24,2481
 7038 2114 85FF      		sbrs r24,5
 7039 2116 00C0      		rjmp .L561
 7040               	.LM1042:
 7041 2118 6093 B009 		sts 2480,r22
 7042               	.LBE666:
 7043               	.LBE665:
 7044               	.LM1043:
 7045 211c 6053      		subi r22,lo8(-(-48))
 7046 211e 812F      		mov r24,r17
 7047 2120 0E94 0000 		call set_output
 7048 2124 00C0      		rjmp .L456
 7049               	.LVL439:
 7050               	.L738:
 7051               	.LM1044:
 7052 2126 80EB      		ldi r24,lo8(2480)
 7053 2128 99E0      		ldi r25,hi8(2480)
 7054 212a 0E94 0000 		call uart_getchar_timeout
 7055               	.LVL440:
 7056 212e 9C01      		movw r18,r24
 7057               	.LM1045:
 7058 2130 91E0      		ldi r25,hi8(256)
 7059 2132 2030      		cpi r18,lo8(256)
 7060 2134 3907      		cpc r19,r25
 7061 2136 01F4      		brne .+2
 7062 2138 00C0      		rjmp .L731
 7063               	.LVL441:
 7064               	.L562:
 7065               	.LM1046:
 7066 213a 922F      		mov r25,r18
 7067               	.L563:
 7068               	.LBB667:
 7069               	.LBB668:
 7070               	.LM1047:
 7071 213c 8091 B109 		lds r24,2481
 7072 2140 85FF      		sbrs r24,5
 7073 2142 00C0      		rjmp .L563
 7074               	.LM1048:
 7075 2144 9093 B009 		sts 2480,r25
 7076               	.LBE668:
 7077               	.LBE667:
 7078               	.LM1049:
 7079 2148 892F      		mov r24,r25
 7080 214a 0E94 0000 		call read_input
 7081               	.LVL442:
 7082 214e C82E      		mov r12,r24
 7083               	.LVL443:
 7084 2150 DD24      		clr r13
 7085 2152 E0E3      		ldi r30,lo8(48)
 7086 2154 F0E0      		ldi r31,hi8(48)
 7087 2156 CE0E      		add r12,r30
 7088 2158 DF1E      		adc r13,r31
 7089               	.LVL444:
 7090               	.L564:
 7091               	.LBB669:
 7092               	.LBB670:
 7093               	.LM1050:
 7094 215a 8091 B109 		lds r24,2481
 7095 215e 85FF      		sbrs r24,5
 7096 2160 00C0      		rjmp .L564
 7097               	.LM1051:
 7098 2162 C092 B009 		sts 2480,r12
 7099 2166 00C0      		rjmp .L456
 7100               	.LVL445:
 7101               	.L467:
 7102               	.LBE670:
 7103               	.LBE669:
 7104               	.LM1052:
 7105 2168 80EB      		ldi r24,lo8(2480)
 7106 216a 99E0      		ldi r25,hi8(2480)
 7107 216c 0E94 0000 		call uart_getchar_timeout
 7108               	.LVL446:
 7109 2170 8C01      		movw r16,r24
 7110               	.LVL447:
 7111               	.LM1053:
 7112 2172 F1E0      		ldi r31,hi8(256)
 7113 2174 8030      		cpi r24,lo8(256)
 7114 2176 9F07      		cpc r25,r31
 7115 2178 01F4      		brne .+2
 7116 217a 00C0      		rjmp .L731
 7117               	.LVL448:
 7118               	.L636:
 7119               	.LBB671:
 7120               	.LBB672:
 7121               	.LM1054:
 7122 217c 8091 B109 		lds r24,2481
 7123               	.LVL449:
 7124 2180 85FF      		sbrs r24,5
 7125 2182 00C0      		rjmp .L636
 7126               	.LM1055:
 7127 2184 0093 B009 		sts 2480,r16
 7128               	.LBE672:
 7129               	.LBE671:
 7130               	.LM1056:
 7131 2188 80EB      		ldi r24,lo8(2480)
 7132 218a 99E0      		ldi r25,hi8(2480)
 7133 218c 0E94 0000 		call uart_getchar_timeout
 7134 2190 9C01      		movw r18,r24
 7135 2192 6C01      		movw r12,r24
 7136               	.LM1057:
 7137 2194 41E0      		ldi r20,hi8(256)
 7138 2196 8030      		cpi r24,lo8(256)
 7139 2198 9407      		cpc r25,r20
 7140 219a 01F4      		brne .+2
 7141 219c 00C0      		rjmp .L731
 7142               	.LVL450:
 7143               	.L635:
 7144               	.LBB673:
 7145               	.LBB674:
 7146               	.LM1058:
 7147 219e 8091 B109 		lds r24,2481
 7148 21a2 85FF      		sbrs r24,5
 7149 21a4 00C0      		rjmp .L635
 7150               	.LM1059:
 7151 21a6 2093 B009 		sts 2480,r18
 7152               	.LBE674:
 7153               	.LBE673:
 7154               	.LM1060:
 7155 21aa 902F      		mov r25,r16
 7156 21ac 8827      		clr r24
 7157 21ae 280F      		add r18,r24
 7158 21b0 391F      		adc r19,r25
 7159               	.LVL451:
 7160 21b2 2093 0000 		sts pwm_frequency,r18
 7161 21b6 3093 0000 		sts (pwm_frequency)+1,r19
 7162 21ba 00C0      		rjmp .L456
 7163               	.LVL452:
 7164               	.L744:
 7165               	.LBB675:
 7166               	.LBB552:
 7167               	.LM1061:
 7168 21bc 51E0      		ldi r21,lo8(1)
 7169 21be 5093 000A 		sts 2560,r21
 7170               	.LM1062:
 7171 21c2 23E0      		ldi r18,lo8(3)
 7172 21c4 F201      		movw r30,r4
 7173 21c6 2183      		std Z+1,r18
 7174               	.LM1063:
 7175 21c8 1382      		std Z+3,__zero_reg__
 7176               	.LM1064:
 7177 21ca 8091 0000 		lds r24,pwm_frequency
 7178 21ce 9091 0000 		lds r25,(pwm_frequency)+1
 7179 21d2 86AB      		std Z+54,r24
 7180 21d4 97AB      		std Z+55,r25
 7181               	.LBE552:
 7182               	.LBE675:
 7183               	.LM1065:
 7184 21d6 80EB      		ldi r24,lo8(2480)
 7185 21d8 99E0      		ldi r25,hi8(2480)
 7186 21da 0E94 0000 		call uart_getchar_timeout
 7187               	.LVL453:
 7188 21de 9C01      		movw r18,r24
 7189               	.LM1066:
 7190 21e0 41E0      		ldi r20,hi8(256)
 7191 21e2 8030      		cpi r24,lo8(256)
 7192 21e4 9407      		cpc r25,r20
 7193 21e6 01F4      		brne .+2
 7194 21e8 00C0      		rjmp .L731
 7195               	.LVL454:
 7196               	.L622:
 7197               	.LBB676:
 7198               	.LBB677:
 7199               	.LM1067:
 7200 21ea 8091 B109 		lds r24,2481
 7201               	.LVL455:
 7202 21ee 85FF      		sbrs r24,5
 7203 21f0 00C0      		rjmp .L622
 7204               	.LM1068:
 7205 21f2 2093 B009 		sts 2480,r18
 7206               	.LBE677:
 7207               	.LBE676:
 7208               	.LM1069:
 7209 21f6 2033      		cpi r18,48
 7210 21f8 3105      		cpc r19,__zero_reg__
 7211 21fa 01F4      		brne .L568
 7212               	.LVL456:
 7213               	.LM1070:
 7214 21fc 80EB      		ldi r24,lo8(2480)
 7215 21fe 99E0      		ldi r25,hi8(2480)
 7216 2200 0E94 0000 		call uart_getchar_timeout
 7217               	.LVL457:
 7218 2204 8C01      		movw r16,r24
 7219               	.LVL458:
 7220               	.LM1071:
 7221 2206 51E0      		ldi r21,hi8(256)
 7222 2208 8030      		cpi r24,lo8(256)
 7223 220a 9507      		cpc r25,r21
 7224 220c 01F4      		brne .+2
 7225 220e 00C0      		rjmp .L731
 7226               	.LVL459:
 7227               	.L619:
 7228               	.LBB678:
 7229               	.LBB679:
 7230               	.LM1072:
 7231 2210 8091 B109 		lds r24,2481
 7232               	.LVL460:
 7233 2214 85FF      		sbrs r24,5
 7234 2216 00C0      		rjmp .L619
 7235               	.LM1073:
 7236 2218 0093 B009 		sts 2480,r16
 7237               	.LBE679:
 7238               	.LBE678:
 7239               	.LM1074:
 7240 221c 80EB      		ldi r24,lo8(2480)
 7241 221e 99E0      		ldi r25,hi8(2480)
 7242 2220 0E94 0000 		call uart_getchar_timeout
 7243 2224 9C01      		movw r18,r24
 7244 2226 6C01      		movw r12,r24
 7245               	.LM1075:
 7246 2228 61E0      		ldi r22,hi8(256)
 7247 222a 8030      		cpi r24,lo8(256)
 7248 222c 9607      		cpc r25,r22
 7249 222e 01F4      		brne .+2
 7250 2230 00C0      		rjmp .L731
 7251               	.LVL461:
 7252               	.L618:
 7253               	.LBB680:
 7254               	.LBB681:
 7255               	.LM1076:
 7256 2232 8091 B109 		lds r24,2481
 7257 2236 85FF      		sbrs r24,5
 7258 2238 00C0      		rjmp .L618
 7259               	.LM1077:
 7260 223a 2093 B009 		sts 2480,r18
 7261               	.LBE681:
 7262               	.LBE680:
 7263               	.LM1078:
 7264 223e 902F      		mov r25,r16
 7265 2240 8827      		clr r24
 7266 2242 280F      		add r18,r24
 7267 2244 391F      		adc r19,r25
 7268               	.LVL462:
 7269               	.LBB682:
 7270               	.LBB683:
 7271               	.LM1079:
 7272 2246 8091 010A 		lds r24,2561
 7273 224a 8064      		ori r24,lo8(64)
 7274 224c F201      		movw r30,r4
 7275 224e 8183      		std Z+1,r24
 7276               	.LM1080:
 7277 2250 F4E0      		ldi r31,lo8(4)
 7278 2252 F093 8106 		sts 1665,r31
 7279               	.LM1081:
 7280 2256 F201      		movw r30,r4
 7281 2258 24A7      		std Z+44,r18
 7282 225a 35A7      		std Z+45,r19
 7283 225c 00C0      		rjmp .L456
 7284               	.LVL463:
 7285               	.L568:
 7286               	.LBE683:
 7287               	.LBE682:
 7288               	.LM1082:
 7289 225e 2133      		cpi r18,49
 7290 2260 3105      		cpc r19,__zero_reg__
 7291 2262 01F0      		breq .+2
 7292 2264 00C0      		rjmp .L456
 7293               	.LM1083:
 7294 2266 80EB      		ldi r24,lo8(2480)
 7295 2268 99E0      		ldi r25,hi8(2480)
 7296 226a 0E94 0000 		call uart_getchar_timeout
 7297               	.LVL464:
 7298 226e 8C01      		movw r16,r24
 7299               	.LVL465:
 7300               	.LM1084:
 7301 2270 F1E0      		ldi r31,hi8(256)
 7302 2272 8030      		cpi r24,lo8(256)
 7303 2274 9F07      		cpc r25,r31
 7304 2276 01F4      		brne .+2
 7305 2278 00C0      		rjmp .L731
 7306               	.LVL466:
 7307               	.L621:
 7308               	.LBB684:
 7309               	.LBB685:
 7310               	.LM1085:
 7311 227a 8091 B109 		lds r24,2481
 7312               	.LVL467:
 7313 227e 85FF      		sbrs r24,5
 7314 2280 00C0      		rjmp .L621
 7315               	.LM1086:
 7316 2282 0093 B009 		sts 2480,r16
 7317               	.LBE685:
 7318               	.LBE684:
 7319               	.LM1087:
 7320 2286 80EB      		ldi r24,lo8(2480)
 7321 2288 99E0      		ldi r25,hi8(2480)
 7322 228a 0E94 0000 		call uart_getchar_timeout
 7323 228e 9C01      		movw r18,r24
 7324 2290 6C01      		movw r12,r24
 7325               	.LM1088:
 7326 2292 41E0      		ldi r20,hi8(256)
 7327 2294 8030      		cpi r24,lo8(256)
 7328 2296 9407      		cpc r25,r20
 7329 2298 01F4      		brne .+2
 7330 229a 00C0      		rjmp .L731
 7331               	.LVL468:
 7332               	.L620:
 7333               	.LBB686:
 7334               	.LBB687:
 7335               	.LM1089:
 7336 229c 8091 B109 		lds r24,2481
 7337 22a0 85FF      		sbrs r24,5
 7338 22a2 00C0      		rjmp .L620
 7339               	.LM1090:
 7340 22a4 2093 B009 		sts 2480,r18
 7341               	.LBE687:
 7342               	.LBE686:
 7343               	.LM1091:
 7344 22a8 902F      		mov r25,r16
 7345 22aa 8827      		clr r24
 7346 22ac 280F      		add r18,r24
 7347 22ae 391F      		adc r19,r25
 7348               	.LVL469:
 7349               	.LBB688:
 7350               	.LBB689:
 7351               	.LM1092:
 7352 22b0 8091 010A 		lds r24,2561
 7353 22b4 8068      		ori r24,lo8(-128)
 7354 22b6 F201      		movw r30,r4
 7355 22b8 8183      		std Z+1,r24
 7356               	.LM1093:
 7357 22ba F8E0      		ldi r31,lo8(8)
 7358 22bc F093 8106 		sts 1665,r31
 7359               	.LM1094:
 7360 22c0 F201      		movw r30,r4
 7361 22c2 26A7      		std Z+46,r18
 7362 22c4 37A7      		std Z+47,r19
 7363 22c6 00C0      		rjmp .L456
 7364               	.LVL470:
 7365               	.L743:
 7366               	.LBE689:
 7367               	.LBE688:
 7368               	.LM1095:
 7369 22c8 80EB      		ldi r24,lo8(2480)
 7370 22ca 99E0      		ldi r25,hi8(2480)
 7371 22cc 0E94 0000 		call uart_getchar_timeout
 7372               	.LVL471:
 7373 22d0 9C01      		movw r18,r24
 7374               	.LM1096:
 7375 22d2 F1E0      		ldi r31,hi8(256)
 7376 22d4 8030      		cpi r24,lo8(256)
 7377 22d6 9F07      		cpc r25,r31
 7378 22d8 01F4      		brne .+2
 7379 22da 00C0      		rjmp .L731
 7380               	.LVL472:
 7381               	.L623:
 7382               	.LBB690:
 7383               	.LBB691:
 7384               	.LM1097:
 7385 22dc 8091 B109 		lds r24,2481
 7386               	.LVL473:
 7387 22e0 85FF      		sbrs r24,5
 7388 22e2 00C0      		rjmp .L623
 7389               	.LM1098:
 7390 22e4 2093 B009 		sts 2480,r18
 7391               	.LBE691:
 7392               	.LBE690:
 7393               	.LM1099:
 7394 22e8 2033      		cpi r18,48
 7395 22ea 3105      		cpc r19,__zero_reg__
 7396 22ec 01F4      		brne .L574
 7397               	.LVL474:
 7398               	.LM1100:
 7399 22ee 80EB      		ldi r24,lo8(2480)
 7400 22f0 99E0      		ldi r25,hi8(2480)
 7401 22f2 0E94 0000 		call uart_getchar_timeout
 7402               	.LVL475:
 7403               	.LM1101:
 7404 22f6 41E0      		ldi r20,hi8(256)
 7405 22f8 8030      		cpi r24,lo8(256)
 7406 22fa 9407      		cpc r25,r20
 7407 22fc 01F4      		brne .+2
 7408 22fe 00C0      		rjmp .L731
 7409               	.LVL476:
 7410               	.L575:
 7411               	.LM1102:
 7412 2300 982F      		mov r25,r24
 7413               	.L576:
 7414               	.LBB692:
 7415               	.LBB693:
 7416               	.LM1103:
 7417 2302 8091 B109 		lds r24,2481
 7418               	.LVL477:
 7419 2306 85FF      		sbrs r24,5
 7420 2308 00C0      		rjmp .L576
 7421               	.LM1104:
 7422 230a 9093 B009 		sts 2480,r25
 7423               	.LBE693:
 7424               	.LBE692:
 7425               	.LBB694:
 7426               	.LBB695:
 7427               	.LM1105:
 7428 230e 8091 2003 		lds r24,800
 7429 2312 8460      		ori r24,lo8(4)
 7430 2314 8093 2003 		sts 800,r24
 7431               	.L577:
 7432               	.LM1106:
 7433 2318 8091 2503 		lds r24,805
 7434 231c 80FF      		sbrs r24,0
 7435 231e 00C0      		rjmp .L577
 7436               	.LM1107:
 7437 2320 9093 3903 		sts 825,r25
 7438 2324 00C0      		rjmp .L456
 7439               	.LVL478:
 7440               	.L574:
 7441               	.LBE695:
 7442               	.LBE694:
 7443               	.LM1108:
 7444 2326 2133      		cpi r18,49
 7445 2328 3105      		cpc r19,__zero_reg__
 7446 232a 01F0      		breq .+2
 7447 232c 00C0      		rjmp .L456
 7448               	.LM1109:
 7449 232e 80EB      		ldi r24,lo8(2480)
 7450 2330 99E0      		ldi r25,hi8(2480)
 7451 2332 0E94 0000 		call uart_getchar_timeout
 7452               	.LVL479:
 7453               	.LM1110:
 7454 2336 51E0      		ldi r21,hi8(256)
 7455 2338 8030      		cpi r24,lo8(256)
 7456 233a 9507      		cpc r25,r21
 7457 233c 01F4      		brne .+2
 7458 233e 00C0      		rjmp .L731
 7459               	.LVL480:
 7460               	.L578:
 7461               	.LM1111:
 7462 2340 982F      		mov r25,r24
 7463               	.L579:
 7464               	.LBB696:
 7465               	.LBB697:
 7466               	.LM1112:
 7467 2342 8091 B109 		lds r24,2481
 7468               	.LVL481:
 7469 2346 85FF      		sbrs r24,5
 7470 2348 00C0      		rjmp .L579
 7471               	.LM1113:
 7472 234a 9093 B009 		sts 2480,r25
 7473               	.LBE697:
 7474               	.LBE696:
 7475               	.LBB698:
 7476               	.LBB699:
 7477               	.LM1114:
 7478 234e 8091 2003 		lds r24,800
 7479 2352 8860      		ori r24,lo8(8)
 7480 2354 8093 2003 		sts 800,r24
 7481               	.L580:
 7482               	.LM1115:
 7483 2358 8091 2503 		lds r24,805
 7484 235c 81FF      		sbrs r24,1
 7485 235e 00C0      		rjmp .L580
 7486               	.LM1116:
 7487 2360 9093 3B03 		sts 827,r25
 7488 2364 00C0      		rjmp .L456
 7489               	.LVL482:
 7490               	.L745:
 7491               	.LBE699:
 7492               	.LBE698:
 7493               	.LM1117:
 7494 2366 80EB      		ldi r24,lo8(2480)
 7495 2368 99E0      		ldi r25,hi8(2480)
 7496 236a 0E94 0000 		call uart_getchar_timeout
 7497               	.LVL483:
 7498 236e 8C01      		movw r16,r24
 7499               	.LVL484:
 7500               	.LM1118:
 7501 2370 61E0      		ldi r22,hi8(256)
 7502 2372 8030      		cpi r24,lo8(256)
 7503 2374 9607      		cpc r25,r22
 7504 2376 01F4      		brne .+2
 7505 2378 00C0      		rjmp .L731
 7506               	.LVL485:
 7507               	.L615:
 7508               	.LBB700:
 7509               	.LBB701:
 7510               	.LM1119:
 7511 237a 8091 B109 		lds r24,2481
 7512               	.LVL486:
 7513 237e 85FF      		sbrs r24,5
 7514 2380 00C0      		rjmp .L615
 7515               	.LM1120:
 7516 2382 0093 B009 		sts 2480,r16
 7517               	.LBE701:
 7518               	.LBE700:
 7519               	.LM1121:
 7520 2386 80EB      		ldi r24,lo8(2480)
 7521 2388 99E0      		ldi r25,hi8(2480)
 7522 238a 0E94 0000 		call uart_getchar_timeout
 7523 238e 9C01      		movw r18,r24
 7524 2390 6C01      		movw r12,r24
 7525               	.LM1122:
 7526 2392 81E0      		ldi r24,hi8(256)
 7527 2394 2030      		cpi r18,lo8(256)
 7528 2396 3807      		cpc r19,r24
 7529 2398 01F4      		brne .+2
 7530 239a 00C0      		rjmp .L731
 7531               	.LVL487:
 7532               	.L614:
 7533               	.LBB702:
 7534               	.LBB703:
 7535               	.LM1123:
 7536 239c 8091 B109 		lds r24,2481
 7537 23a0 85FF      		sbrs r24,5
 7538 23a2 00C0      		rjmp .L614
 7539               	.LM1124:
 7540 23a4 2093 B009 		sts 2480,r18
 7541               	.LBE703:
 7542               	.LBE702:
 7543               	.LM1125:
 7544 23a8 902F      		mov r25,r16
 7545 23aa 8827      		clr r24
 7546 23ac 820F      		add r24,r18
 7547 23ae 931F      		adc r25,r19
 7548 23b0 E1E3      		ldi r30,hi8(12601)
 7549 23b2 8933      		cpi r24,lo8(12601)
 7550 23b4 9E07      		cpc r25,r30
 7551 23b6 01F0      		breq .L586
 7552 23b8 F1E3      		ldi r31,hi8(12602)
 7553 23ba 8A33      		cpi r24,lo8(12602)
 7554 23bc 9F07      		cpc r25,r31
 7555 23be 04F4      		brge .L589
 7556 23c0 21E3      		ldi r18,hi8(12593)
 7557 23c2 8133      		cpi r24,lo8(12593)
 7558 23c4 9207      		cpc r25,r18
 7559               	.LVL488:
 7560 23c6 01F0      		breq .L584
 7561 23c8 8253      		subi r24,lo8(12594)
 7562 23ca 9143      		sbci r25,hi8(12594)
 7563 23cc 01F0      		breq .+2
 7564 23ce 00C0      		rjmp .L731
 7565 23d0 00C0      		rjmp .L746
 7566               	.LVL489:
 7567               	.L589:
 7568 23d2 45E3      		ldi r20,hi8(13623)
 7569 23d4 8733      		cpi r24,lo8(13623)
 7570 23d6 9407      		cpc r25,r20
 7571 23d8 01F0      		breq .L587
 7572 23da 8653      		subi r24,lo8(14646)
 7573 23dc 9943      		sbci r25,hi8(14646)
 7574 23de 01F0      		breq .+2
 7575 23e0 00C0      		rjmp .L731
 7576 23e2 4DE3      		ldi r20,lo8(829)
 7577 23e4 53E0      		ldi r21,hi8(829)
 7578               	.LVL490:
 7579 23e6 00C0      		rjmp .L729
 7580               	.LVL491:
 7581               	.L586:
 7582 23e8 49E3      		ldi r20,lo8(825)
 7583 23ea 53E0      		ldi r21,hi8(825)
 7584               	.LVL492:
 7585 23ec 00C0      		rjmp .L730
 7586               	.LVL493:
 7587               	.L587:
 7588               	.LM1126:
 7589 23ee 47E8      		ldi r20,lo8(135)
 7590 23f0 50E0      		ldi r21,hi8(135)
 7591               	.LVL494:
 7592 23f2 00C0      		rjmp .L729
 7593               	.LVL495:
 7594               	.L584:
 7595               	.LM1127:
 7596 23f4 43E8      		ldi r20,lo8(131)
 7597 23f6 50E0      		ldi r21,hi8(131)
 7598               	.LVL496:
 7599               	.L730:
 7600 23f8 2DEF      		ldi r18,lo8(-3)
 7601               	.LVL497:
 7602 23fa 00C0      		rjmp .L590
 7603               	.LVL498:
 7604               	.L746:
 7605               	.LM1128:
 7606 23fc 47E0      		ldi r20,lo8(6663)
 7607 23fe 5AE1      		ldi r21,hi8(6663)
 7608               	.LVL499:
 7609               	.L729:
 7610 2400 2EEF      		ldi r18,lo8(-2)
 7611               	.LVL500:
 7612               	.L590:
 7613               	.LBB704:
 7614               	.LBB705:
 7615               	.LM1129:
 7616 2402 8091 0000 		lds r24,AUX_data+258
 7617 2406 8093 0000 		sts AUX_data+259,r24
 7618               	.LM1130:
 7619 240a F301      		movw r30,r6
 7620 240c 4683      		std Z+6,r20
 7621 240e 2295      		swap r18
 7622 2410 207F      		andi r18,lo8(-16)
 7623 2412 852F      		mov r24,r21
 7624 2414 9927      		clr r25
 7625 2416 87FD      		sbrc r24,7
 7626 2418 9A95      		dec r25
 7627               	.LVL501:
 7628 241a 282B      		or r18,r24
 7629 241c 2783      		std Z+7,r18
 7630 241e 00C0      		rjmp .L456
 7631               	.LVL502:
 7632               	.L462:
 7633               	.LBE705:
 7634               	.LBE704:
 7635               	.LM1131:
 7636 2420 80EB      		ldi r24,lo8(2480)
 7637 2422 99E0      		ldi r25,hi8(2480)
 7638 2424 0E94 0000 		call uart_getchar_timeout
 7639               	.LVL503:
 7640 2428 7C01      		movw r14,r24
 7641               	.LVL504:
 7642               	.LM1132:
 7643 242a F1E0      		ldi r31,hi8(256)
 7644 242c 8030      		cpi r24,lo8(256)
 7645 242e 9F07      		cpc r25,r31
 7646 2430 01F4      		brne .+2
 7647 2432 00C0      		rjmp .L731
 7648               	.LVL505:
 7649               	.L641:
 7650               	.LBB706:
 7651               	.LBB707:
 7652               	.LM1133:
 7653 2434 8091 B109 		lds r24,2481
 7654               	.LVL506:
 7655 2438 85FF      		sbrs r24,5
 7656 243a 00C0      		rjmp .L641
 7657               	.LM1134:
 7658 243c E092 B009 		sts 2480,r14
 7659               	.LBE707:
 7660               	.LBE706:
 7661               	.LM1135:
 7662 2440 80EB      		ldi r24,lo8(2480)
 7663 2442 99E0      		ldi r25,hi8(2480)
 7664 2444 0E94 0000 		call uart_getchar_timeout
 7665 2448 8C01      		movw r16,r24
 7666               	.LVL507:
 7667 244a 6C01      		movw r12,r24
 7668               	.LM1136:
 7669 244c 21E0      		ldi r18,hi8(256)
 7670 244e 8030      		cpi r24,lo8(256)
 7671 2450 9207      		cpc r25,r18
 7672 2452 01F4      		brne .+2
 7673 2454 00C0      		rjmp .L731
 7674               	.L640:
 7675               	.LBB708:
 7676               	.LBB709:
 7677               	.LM1137:
 7678 2456 8091 B109 		lds r24,2481
 7679 245a 85FF      		sbrs r24,5
 7680 245c 00C0      		rjmp .L640
 7681               	.LM1138:
 7682 245e 0093 B009 		sts 2480,r16
 7683               	.LBE709:
 7684               	.LBE708:
 7685               	.LM1139:
 7686 2462 80EB      		ldi r24,lo8(2480)
 7687 2464 99E0      		ldi r25,hi8(2480)
 7688 2466 0E94 0000 		call uart_getchar_timeout
 7689 246a AC01      		movw r20,r24
 7690               	.LM1140:
 7691 246c 31E0      		ldi r19,hi8(256)
 7692 246e 8030      		cpi r24,lo8(256)
 7693 2470 9307      		cpc r25,r19
 7694 2472 01F4      		brne .L593
 7695               	.LVL508:
 7696               	.LM1141:
 7697 2474 0E94 0000 		call err
 7698               	.LVL509:
 7699 2478 C12C      		mov r12,__zero_reg__
 7700 247a 11E0      		ldi r17,hi8(256)
 7701 247c D12E      		mov r13,r17
 7702               	.LVL510:
 7703 247e 00C0      		rjmp .L456
 7704               	.LVL511:
 7705               	.L593:
 7706               	.LM1142:
 7707 2480 382F      		mov r19,r24
 7708               	.LVL512:
 7709               	.L594:
 7710               	.LBB710:
 7711               	.LBB711:
 7712               	.LM1143:
 7713 2482 8091 B109 		lds r24,2481
 7714 2486 85FF      		sbrs r24,5
 7715 2488 00C0      		rjmp .L594
 7716               	.LM1144:
 7717 248a 3093 B009 		sts 2480,r19
 7718               	.L595:
 7719               	.LBE711:
 7720               	.LBE710:
 7721               	.LBB712:
 7722               	.LBB713:
 7723               	.LM1145:
 7724 248e 8091 B109 		lds r24,2481
 7725 2492 85FF      		sbrs r24,5
 7726 2494 00C0      		rjmp .L595
 7727               	.LBE713:
 7728               	.LBE712:
 7729               	.LM1146:
 7730 2496 9E2D      		mov r25,r14
 7731 2498 8827      		clr r24
 7732               	.LVL513:
 7733 249a 800F      		add r24,r16
 7734 249c 911F      		adc r25,r17
 7735               	.LBB715:
 7736               	.LBB714:
 7737               	.LM1147:
 7738 249e 3093 B009 		sts 2480,r19
 7739               	.LBE714:
 7740               	.LBE715:
 7741               	.LBB716:
 7742               	.LBB717:
 7743               	.LM1148:
 7744 24a2 2091 0000 		lds r18,AUX_data+258
 7745 24a6 2093 0000 		sts AUX_data+259,r18
 7746               	.LM1149:
 7747 24aa F301      		movw r30,r6
 7748 24ac 8683      		std Z+6,r24
 7749 24ae 3295      		swap r19
 7750 24b0 307F      		andi r19,lo8(-16)
 7751 24b2 892F      		mov r24,r25
 7752 24b4 990F      		lsl r25
 7753 24b6 990B      		sbc r25,r25
 7754               	.LVL514:
 7755 24b8 382B      		or r19,r24
 7756 24ba 3783      		std Z+7,r19
 7757 24bc 6A01      		movw r12,r20
 7758 24be 00C0      		rjmp .L456
 7759               	.LVL515:
 7760               	.L473:
 7761               	.LBE717:
 7762               	.LBE716:
 7763               	.LM1150:
 7764 24c0 0E94 0000 		call serial_bridge
 7765               	.LVL516:
 7766 24c4 00C0      		rjmp .L456
 7767               	.LVL517:
 7768               	.L596:
 7769               	.LBB718:
 7770               	.LBB719:
 7771               	.LM1151:
 7772 24c6 E091 0000 		lds r30,AUX_data+259
 7773 24ca F0E0      		ldi r31,lo8(0)
 7774 24cc E050      		subi r30,lo8(-(AUX_data))
 7775 24ce F040      		sbci r31,hi8(-(AUX_data))
 7776 24d0 9281      		ldd r25,Z+2
 7777               	.LVL518:
 7778               	.LM1152:
 7779 24d2 8091 0000 		lds r24,AUX_data+259
 7780               	.LVL519:
 7781 24d6 8F5F      		subi r24,lo8(-(1))
 7782 24d8 8093 0000 		sts AUX_data+259,r24
 7783               	.LBE719:
 7784               	.LBE718:
 7785               	.LM1153:
 7786 24dc E1E0      		ldi r30,lo8(1)
 7787 24de F0E0      		ldi r31,hi8(1)
 7788 24e0 EC0F      		add r30,r28
 7789 24e2 FD1F      		adc r31,r29
 7790 24e4 E20F      		add r30,r18
 7791 24e6 F11D      		adc r31,__zero_reg__
 7792 24e8 9083      		st Z,r25
 7793               	.LM1154:
 7794 24ea 2F5F      		subi r18,lo8(-(1))
 7795               	.LVL520:
 7796               	.L491:
 7797               	.LBB720:
 7798               	.LBB721:
 7799               	.LM1155:
 7800 24ec 9091 0000 		lds r25,AUX_data+258
 7801               	.LVL521:
 7802               	.LM1156:
 7803 24f0 8091 0000 		lds r24,AUX_data+259
 7804               	.LVL522:
 7805               	.LBE721:
 7806               	.LBE720:
 7807               	.LM1157:
 7808 24f4 9817      		cp r25,r24
 7809 24f6 01F4      		brne .L596
 7810               	.L611:
 7811               	.LBB722:
 7812               	.LBB723:
 7813               	.LM1158:
 7814 24f8 8091 B109 		lds r24,2481
 7815               	.LVL523:
 7816 24fc 85FF      		sbrs r24,5
 7817 24fe 00C0      		rjmp .L611
 7818               	.LBE723:
 7819               	.LBE722:
 7820               	.LM1159:
 7821 2500 2F5F      		subi r18,lo8(-(1))
 7822               	.LBB725:
 7823               	.LBB724:
 7824               	.LM1160:
 7825 2502 2093 B009 		sts 2480,r18
 7826 2506 2150      		subi r18,lo8(-(-1))
 7827 2508 FE01      		movw r30,r28
 7828 250a 3196      		adiw r30,1
 7829               	.LBE724:
 7830               	.LBE725:
 7831               	.LBB726:
 7832               	.LM1161:
 7833 250c AF01      		movw r20,r30
 7834               	.LVL524:
 7835 250e 420F      		add r20,r18
 7836 2510 511D      		adc r21,__zero_reg__
 7837 2512 9A01      		movw r18,r20
 7838               	.LVL525:
 7839 2514 00C0      		rjmp .L598
 7840               	.L600:
 7841               	.LM1162:
 7842 2516 9081      		ld r25,Z
 7843               	.LVL526:
 7844               	.L599:
 7845               	.LBB727:
 7846               	.LBB728:
 7847               	.LM1163:
 7848 2518 8091 B109 		lds r24,2481
 7849 251c 85FF      		sbrs r24,5
 7850 251e 00C0      		rjmp .L599
 7851               	.LM1164:
 7852 2520 9093 B009 		sts 2480,r25
 7853 2524 3196      		adiw r30,1
 7854               	.LVL527:
 7855               	.L598:
 7856               	.LBE728:
 7857               	.LBE727:
 7858               	.LM1165:
 7859 2526 E217      		cp r30,r18
 7860 2528 F307      		cpc r31,r19
 7861 252a 01F4      		brne .L600
 7862 252c 00C0      		rjmp .L456
 7863               	.LVL528:
 7864               	.L481:
 7865               	.LBE726:
 7866               	.LM1166:
 7867 252e 80EB      		ldi r24,lo8(2480)
 7868 2530 99E0      		ldi r25,hi8(2480)
 7869 2532 0E94 0000 		call uart_getchar_timeout
 7870               	.LVL529:
 7871 2536 8C01      		movw r16,r24
 7872               	.LVL530:
 7873               	.L601:
 7874               	.LBB729:
 7875               	.LBB730:
 7876               	.LM1167:
 7877 2538 8091 B109 		lds r24,2481
 7878 253c 85FF      		sbrs r24,5
 7879 253e 00C0      		rjmp .L601
 7880               	.LM1168:
 7881 2540 0093 B009 		sts 2480,r16
 7882 2544 EE24      		clr r14
 7883 2546 FF24      		clr r15
 7884 2548 00C0      		rjmp .L602
 7885               	.LVL531:
 7886               	.L606:
 7887               	.LBE730:
 7888               	.LBE729:
 7889               	.LBB731:
 7890               	.LM1169:
 7891 254a 80EB      		ldi r24,lo8(2480)
 7892 254c 99E0      		ldi r25,hi8(2480)
 7893 254e 0E94 0000 		call uart_getchar_timeout
 7894 2552 6C01      		movw r12,r24
 7895               	.LM1170:
 7896 2554 51E0      		ldi r21,hi8(256)
 7897 2556 8030      		cpi r24,lo8(256)
 7898 2558 9507      		cpc r25,r21
 7899 255a 01F4      		brne .L603
 7900               	.LVL532:
 7901               	.L731:
 7902               	.LM1171:
 7903 255c 0E94 0000 		call err
 7904               	.LVL533:
 7905 2560 00C0      		rjmp .L456
 7906               	.LVL534:
 7907               	.L603:
 7908               	.LM1172:
 7909 2562 982F      		mov r25,r24
 7910               	.LVL535:
 7911               	.L604:
 7912               	.LBB732:
 7913               	.LBB733:
 7914               	.LM1173:
 7915 2564 8091 B109 		lds r24,2481
 7916 2568 85FF      		sbrs r24,5
 7917 256a 00C0      		rjmp .L604
 7918               	.LM1174:
 7919 256c 9093 B009 		sts 2480,r25
 7920               	.L605:
 7921               	.LBE733:
 7922               	.LBE732:
 7923               	.LBB734:
 7924               	.LBB735:
 7925               	.LM1175:
 7926 2570 8091 A108 		lds r24,2209
 7927 2574 85FF      		sbrs r24,5
 7928 2576 00C0      		rjmp .L605
 7929               	.LM1176:
 7930 2578 9093 A008 		sts 2208,r25
 7931               	.LBE735:
 7932               	.LBE734:
 7933               	.LM1177:
 7934 257c 0894      		sec
 7935 257e E11C      		adc r14,__zero_reg__
 7936 2580 F11C      		adc r15,__zero_reg__
 7937               	.L602:
 7938 2582 E016      		cp r14,r16
 7939 2584 F106      		cpc r15,r17
 7940 2586 00F0      		brlo .L606
 7941               	.LVL536:
 7942               	.L456:
 7943 2588 80E0      		ldi r24,lo8(0)
 7944 258a 90E0      		ldi r25,hi8(0)
 7945 258c A0E0      		ldi r26,hlo8(0)
 7946 258e B0E0      		ldi r27,hhi8(0)
 7947               	.LVL537:
 7948 2590 00C0      		rjmp .L497
 7949               	.LVL538:
 7950               	.L454:
 7951 2592 88A1      		ldd r24,Y+32
 7952 2594 99A1      		ldd r25,Y+33
 7953 2596 AAA1      		ldd r26,Y+34
 7954 2598 BBA1      		ldd r27,Y+35
 7955               	.LVL539:
 7956               	.L497:
 7957               	.LBE731:
 7958               	.LM1178:
 7959 259a 28A1      		ldd r18,Y+32
 7960 259c 39A1      		ldd r19,Y+33
 7961 259e 4AA1      		ldd r20,Y+34
 7962 25a0 5BA1      		ldd r21,Y+35
 7963               	.LVL540:
 7964 25a2 2158      		subi r18,lo8(33840001)
 7965 25a4 3B45      		sbci r19,hi8(33840001)
 7966 25a6 4440      		sbci r20,hlo8(33840001)
 7967 25a8 5240      		sbci r21,hhi8(33840001)
 7968 25aa 04F0      		brlt .+2
 7969 25ac 00C0      		rjmp .L727
 7970               	.LVL541:
 7971 25ae 00C0      		rjmp .L607
 7972               	.LFE91:
 7974               	.global	pwm_frequency
 7975               	.global	pwm_frequency
 7976               		.section .bss
 7979               	pwm_frequency:
 7980 0000 0000      		.skip 2,0
 7981               	.global	signal_count
 7982               	.global	signal_count
 7985               	signal_count:
 7986 0002 00        		.skip 1,0
 7987               	.global	ir_read_time_out
 7988               	.global	ir_read_time_out
 7991               	ir_read_time_out:
 7992 0003 00        		.skip 1,0
 7993               	.global	ir_read_flag
 7994               	.global	ir_read_flag
 7997               	ir_read_flag:
 7998 0004 00        		.skip 1,0
 7999               		.comm bt,14,1
 8000               		.comm aux,14,1
 8001               		.comm BT_data,260,1
 8002               		.comm AUX_data,260,1
 8003               		.comm robotData,240,1
 8004               		.comm startUpCounter,2,1
 8005               		.comm bitCounter,1,1
 8006               		.comm onOffTracker,2,1
 8007               		.comm captured_signal,191,1
 8008               		.comm twiMaster,17,1
 8009               		.comm _acc,4,1
 8706               	.Letext0:
DEFINED SYMBOLS
                            *ABS*:00000000 mainFirmware.c
C:\cygwin64\tmp/ccmqBoqj.s:2      *ABS*:0000003f __SREG__
C:\cygwin64\tmp/ccmqBoqj.s:3      *ABS*:0000003e __SP_H__
C:\cygwin64\tmp/ccmqBoqj.s:4      *ABS*:0000003d __SP_L__
C:\cygwin64\tmp/ccmqBoqj.s:5      *ABS*:00000034 __CCP__
C:\cygwin64\tmp/ccmqBoqj.s:6      *ABS*:00000000 __tmp_reg__
C:\cygwin64\tmp/ccmqBoqj.s:7      *ABS*:00000001 __zero_reg__
C:\cygwin64\tmp/ccmqBoqj.s:18     .text:00000000 init_clock
C:\cygwin64\tmp/ccmqBoqj.s:46     .text:00000022 init_led
C:\cygwin64\tmp/ccmqBoqj.s:95     .text:0000005a set_led
C:\cygwin64\tmp/ccmqBoqj.s:122    .text:0000006e init_bt_uart
                            *COM*:00000104 BT_data
C:\cygwin64\tmp/ccmqBoqj.s:185    .text:000000c0 init_aux_uart
                            *COM*:00000104 AUX_data
C:\cygwin64\tmp/ccmqBoqj.s:255    .text:0000011a set_aux_baud_rate
C:\cygwin64\tmp/ccmqBoqj.s:284    .text:00000138 uart_putchar
C:\cygwin64\tmp/ccmqBoqj.s:306    .text:00000144 uart_getchar_nb
C:\cygwin64\tmp/ccmqBoqj.s:344    .text:00000168 uart_getchar
C:\cygwin64\tmp/ccmqBoqj.s:388    .text:0000018c uart_getchar_timeout
C:\cygwin64\tmp/ccmqBoqj.s:493    .text:000001e0 aux_uart_getchar
C:\cygwin64\tmp/ccmqBoqj.s:524    .text:000001fa serial_bridge
C:\cygwin64\tmp/ccmqBoqj.s:624    .text:0000025c USART_InterruptDriver_Initialize
C:\cygwin64\tmp/ccmqBoqj.s:649    .text:0000026c USART_RXBufferData_Available
C:\cygwin64\tmp/ccmqBoqj.s:678    .text:00000280 USART_RXBuffer_GetByte
C:\cygwin64\tmp/ccmqBoqj.s:707    .text:00000298 USART_RXComplete
C:\cygwin64\tmp/ccmqBoqj.s:767    .text:000002d6 err
C:\cygwin64\tmp/ccmqBoqj.s:815    .text:00000302 __vector_91
C:\cygwin64\tmp/ccmqBoqj.s:877    .text:00000352 __vector_25
C:\cygwin64\tmp/ccmqBoqj.s:939    .text:000003a2 init_adc
C:\cygwin64\tmp/ccmqBoqj.s:1017   .text:000003fa read_analog
C:\cygwin64\tmp/ccmqBoqj.s:1058   .text:0000042c read_internal_temperature
C:\cygwin64\tmp/ccmqBoqj.s:1089   .text:00000450 init_ir
C:\cygwin64\tmp/ccmqBoqj.s:1125   .text:00000476 set_ir50
C:\cygwin64\tmp/ccmqBoqj.s:1158   .text:0000048c set_ir100
C:\cygwin64\tmp/ccmqBoqj.s:1189   .text:0000049e set_ir0
C:\cygwin64\tmp/ccmqBoqj.s:1218   .text:000004ac set_ir_carrier
C:\cygwin64\tmp/ccmqBoqj.s:1249   .text:000004ba start_ir_timer
                            *COM*:00000002 startUpCounter
                            *COM*:00000002 onOffTracker
                            *COM*:00000001 bitCounter
C:\cygwin64\tmp/ccmqBoqj.s:1297   .text:000004ee stop_ir_timer
C:\cygwin64\tmp/ccmqBoqj.s:1334   .text:00000502 __vector_20
                            *COM*:000000f0 robotData
C:\cygwin64\tmp/ccmqBoqj.s:1720   .text:00000776 BT_default_reset
C:\cygwin64\tmp/ccmqBoqj.s:1828   .text:000007c6 BT_reset
C:\cygwin64\tmp/ccmqBoqj.s:1879   .text:000007ea init_BT
C:\cygwin64\tmp/ccmqBoqj.s:1916   .text:00000818 TWI_MasterInit
C:\cygwin64\tmp/ccmqBoqj.s:1950   .text:00000838 TWI_MasterState
C:\cygwin64\tmp/ccmqBoqj.s:1971   .text:00000846 TWI_MasterReady
C:\cygwin64\tmp/ccmqBoqj.s:1989   .text:0000084e TWI_MasterWriteRead
C:\cygwin64\tmp/ccmqBoqj.s:2122   .text:000008f0 TWI_MasterRead
C:\cygwin64\tmp/ccmqBoqj.s:2146   .text:00000902 TWI_MasterWrite
C:\cygwin64\tmp/ccmqBoqj.s:2165   .text:0000090e TWI_MasterArbitrationLostBusErrorHandler
C:\cygwin64\tmp/ccmqBoqj.s:2209   .text:00000938 TWI_MasterWriteHandler
C:\cygwin64\tmp/ccmqBoqj.s:2314   .text:000009b0 TWI_MasterReadHandler
C:\cygwin64\tmp/ccmqBoqj.s:2412   .text:00000a22 TWI_MasterInterruptHandler
C:\cygwin64\tmp/ccmqBoqj.s:2480   .text:00000a68 TWI_MasterTransactionFinished
C:\cygwin64\tmp/ccmqBoqj.s:2498   .text:00000a70 getAccelData
                            *COM*:00000004 _acc
C:\cygwin64\tmp/ccmqBoqj.s:2515   .text:00000a82 newAccelData
                            *COM*:00000011 twiMaster
C:\cygwin64\tmp/ccmqBoqj.s:2546   .text:00000aa6 updateAccel
C:\cygwin64\tmp/ccmqBoqj.s:2600   .text:00000afe initAccel
C:\cygwin64\tmp/ccmqBoqj.s:2805   .text:00000c38 __vector_46
C:\cygwin64\tmp/ccmqBoqj.s:2854   .text:00000c84 init_dac
C:\cygwin64\tmp/ccmqBoqj.s:2914   .text:00000ccc set_dac0
C:\cygwin64\tmp/ccmqBoqj.s:2942   .text:00000ce8 set_dac1
C:\cygwin64\tmp/ccmqBoqj.s:2970   .text:00000d04 disable_dac0
C:\cygwin64\tmp/ccmqBoqj.s:2988   .text:00000d10 disable_dac1
C:\cygwin64\tmp/ccmqBoqj.s:3006   .text:00000d1c init_buzzer
C:\cygwin64\tmp/ccmqBoqj.s:3036   .text:00000d3a set_buzzer
C:\cygwin64\tmp/ccmqBoqj.s:3073   .text:00000d52 turn_off_buzzer
C:\cygwin64\tmp/ccmqBoqj.s:3097   .text:00000d68 set_pwm
C:\cygwin64\tmp/ccmqBoqj.s:7979   .bss:00000000 pwm_frequency
C:\cygwin64\tmp/ccmqBoqj.s:3124   .text:00000d84 turn_off_pwm0
C:\cygwin64\tmp/ccmqBoqj.s:3142   .text:00000d90 turn_off_pwm1
C:\cygwin64\tmp/ccmqBoqj.s:3160   .text:00000d9c set_pwm0
C:\cygwin64\tmp/ccmqBoqj.s:3193   .text:00000dc0 set_pwm1
C:\cygwin64\tmp/ccmqBoqj.s:3226   .text:00000de4 set_output
C:\cygwin64\tmp/ccmqBoqj.s:3409   .text:00000eb2 read_input
C:\cygwin64\tmp/ccmqBoqj.s:3654   .text:0000100a init_ir_read
C:\cygwin64\tmp/ccmqBoqj.s:7997   .bss:00000004 ir_read_flag
C:\cygwin64\tmp/ccmqBoqj.s:7985   .bss:00000002 signal_count
C:\cygwin64\tmp/ccmqBoqj.s:7991   .bss:00000003 ir_read_time_out
C:\cygwin64\tmp/ccmqBoqj.s:3720   .text:00001066 ir_fail
C:\cygwin64\tmp/ccmqBoqj.s:3770   .text:00001096 disable_ir_read
C:\cygwin64\tmp/ccmqBoqj.s:3796   .text:000010aa dump_data
                            *COM*:000000bf captured_signal
C:\cygwin64\tmp/ccmqBoqj.s:3865   .text:000010f4 __vector_47
C:\cygwin64\tmp/ccmqBoqj.s:3933   .text:00001164 __vector_49
C:\cygwin64\tmp/ccmqBoqj.s:4048   .text:00001234 read_data_from_serial
C:\cygwin64\tmp/ccmqBoqj.s:4154   .text:000012b0 EEPROM_ReadByte
C:\cygwin64\tmp/ccmqBoqj.s:4233   .text:0000130a print_data_from_eeprom
C:\cygwin64\tmp/ccmqBoqj.s:4391   .text:000013d2 read_data_from_eeprom
C:\cygwin64\tmp/ccmqBoqj.s:4558   .text:000014b8 EEPROM_WaitForNVM
C:\cygwin64\tmp/ccmqBoqj.s:4575   .text:000014c2 EEPROM_FlushBuffer
C:\cygwin64\tmp/ccmqBoqj.s:4624   .text:000014f8 EEPROM_WriteByte
C:\cygwin64\tmp/ccmqBoqj.s:4712   .text:00001562 write_data_to_eeprom
C:\cygwin64\tmp/ccmqBoqj.s:4860   .text:0000163c EEPROM_LoadByte
C:\cygwin64\tmp/ccmqBoqj.s:4897   .text:0000165a EEPROM_LoadPage
C:\cygwin64\tmp/ccmqBoqj.s:4944   .text:00001682 EEPROM_AtomicWritePage
C:\cygwin64\tmp/ccmqBoqj.s:5013   .text:000016cc EEPROM_ErasePage
C:\cygwin64\tmp/ccmqBoqj.s:5082   .text:00001716 EEPROM_SplitWritePage
C:\cygwin64\tmp/ccmqBoqj.s:5151   .text:00001760 EEPROM_EraseAll
C:\cygwin64\tmp/ccmqBoqj.s:5197   .text:0000178e main
                            *COM*:0000000e bt
                            *COM*:0000000e aux

UNDEFINED SYMBOLS
__divmodhi4
__do_clear_bss
