   1               		.file	"mainFirmware.c"
   2               	__SREG__ = 0x3f
   3               	__SP_H__ = 0x3e
   4               	__SP_L__ = 0x3d
   5               	__CCP__  = 0x34
   6               	__tmp_reg__ = 0
   7               	__zero_reg__ = 1
  15               	.Ltext0:
  16               	.global	init_clock
  18               	init_clock:
  19               	.LFB7:
  20               	.LM1:
  21               	/* prologue: function */
  22               	/* frame size = 0 */
  23               	.LM2:
  24 0000 8091 5000 		lds r24,80
  25 0004 8260      		ori r24,lo8(2)
  26 0006 8093 5000 		sts 80,r24
  27               	.L2:
  28               	.LM3:
  29 000a 8091 5100 		lds r24,81
  30 000e 81FF      		sbrs r24,1
  31 0010 00C0      		rjmp .L2
  32               	.LM4:
  33 0012 88ED      		ldi r24,lo8(-40)
  34 0014 84BF      		out 52-0,r24
  35               	.LM5:
  36 0016 8091 4000 		lds r24,64
  37 001a 8160      		ori r24,lo8(1)
  38 001c 8093 4000 		sts 64,r24
  39               	/* epilogue start */
  40               	.LM6:
  41 0020 0895      		ret
  42               	.LFE7:
  44               	.global	init_led
  46               	init_led:
  47               	.LFB8:
  48               	.LM7:
  49               	/* prologue: function */
  50               	/* frame size = 0 */
  51               	.LM8:
  52 0022 A0E0      		ldi r26,lo8(2304)
  53 0024 B9E0      		ldi r27,hi8(2304)
  54 0026 84E0      		ldi r24,lo8(4)
  55 0028 8C93      		st X,r24
  56               	.LM9:
  57 002a 83E7      		ldi r24,lo8(115)
  58 002c 1196      		adiw r26,1
  59 002e 8C93      		st X,r24
  60 0030 1197      		sbiw r26,1
  61               	.LM10:
  62 0032 8FEF      		ldi r24,lo8(-1)
  63 0034 9FEF      		ldi r25,hi8(-1)
  64 0036 D696      		adiw r26,54
  65 0038 8D93      		st X+,r24
  66 003a 9C93      		st X,r25
  67 003c D797      		sbiw r26,54+1
  68               	.LM11:
  69 003e E0E6      		ldi r30,lo8(1632)
  70 0040 F6E0      		ldi r31,hi8(1632)
  71 0042 8181      		ldd r24,Z+1
  72 0044 8760      		ori r24,lo8(7)
  73 0046 8183      		std Z+1,r24
  74               	.LBB618:
  75               	.LBB619:
  76               	.LM12:
  77 0048 8FEF      		ldi r24,lo8(-1)
  78 004a D996      		adiw r26,57
  79 004c 8C93      		st X,r24
  80 004e D997      		sbiw r26,57
  81               	.LM13:
  82 0050 DB96      		adiw r26,59
  83 0052 8C93      		st X,r24
  84               	.LM14:
  85 0054 8093 3D09 		sts 2365,r24
  86               	/* epilogue start */
  87               	.LBE619:
  88               	.LBE618:
  89               	.LM15:
  90 0058 0895      		ret
  91               	.LFE8:
  93               	.global	set_led
  95               	set_led:
  96               	.LFB9:
  97               	.LM16:
  98               	.LVL0:
  99               	/* prologue: function */
 100               	/* frame size = 0 */
 101               	.LM17:
 102 005a 8095      		com r24
 103               	.LVL1:
 104 005c E0E0      		ldi r30,lo8(2304)
 105 005e F9E0      		ldi r31,hi8(2304)
 106 0060 81AF      		std Z+57,r24
 107               	.LM18:
 108 0062 4095      		com r20
 109               	.LVL2:
 110 0064 43AF      		std Z+59,r20
 111               	.LM19:
 112 0066 6095      		com r22
 113               	.LVL3:
 114 0068 6093 3D09 		sts 2365,r22
 115               	/* epilogue start */
 116               	.LM20:
 117 006c 0895      		ret
 118               	.LFE9:
 120               	.global	init_bt_uart
 122               	init_bt_uart:
 123               	.LFB10:
 124               	.LM21:
 125               	/* prologue: function */
 126               	/* frame size = 0 */
 127               	.LM22:
 128 006e E0E6      		ldi r30,lo8(1632)
 129 0070 F6E0      		ldi r31,hi8(1632)
 130 0072 80E8      		ldi r24,lo8(-128)
 131 0074 8183      		std Z+1,r24
 132               	.LM23:
 133 0076 80E4      		ldi r24,lo8(64)
 134 0078 8283      		std Z+2,r24
 135               	.LM24:
 136 007a E0EB      		ldi r30,lo8(2480)
 137 007c F9E0      		ldi r31,hi8(2480)
 138 007e 83E0      		ldi r24,lo8(3)
 139 0080 8583      		std Z+5,r24
 140               	.LBB620:
 141               	.LBB621:
 142               	.LM25:
 143 0082 E093 0000 		sts BT_data,r30
 144 0086 F093 0000 		sts (BT_data)+1,r31
 145               	.LM26:
 146 008a 1092 0000 		sts BT_data+259,__zero_reg__
 147               	.LM27:
 148 008e 1092 0000 		sts BT_data+258,__zero_reg__
 149               	.LBE621:
 150               	.LBE620:
 151               	.LM28:
 152 0092 8381      		ldd r24,Z+3
 153 0094 8F7C      		andi r24,lo8(-49)
 154 0096 8062      		ori r24,lo8(32)
 155 0098 8383      		std Z+3,r24
 156               	.LM29:
 157 009a A0EA      		ldi r26,lo8(160)
 158 009c B0E0      		ldi r27,hi8(160)
 159 009e 1296      		adiw r26,2
 160 00a0 8C91      		ld r24,X
 161 00a2 1297      		sbiw r26,2
 162 00a4 8260      		ori r24,lo8(2)
 163 00a6 1296      		adiw r26,2
 164 00a8 8C93      		st X,r24
 165               	.LM30:
 166 00aa 83E8      		ldi r24,lo8(-125)
 167 00ac 8683      		std Z+6,r24
 168 00ae 80ED      		ldi r24,lo8(-48)
 169 00b0 8783      		std Z+7,r24
 170               	.LM31:
 171 00b2 8481      		ldd r24,Z+4
 172 00b4 8061      		ori r24,lo8(16)
 173 00b6 8483      		std Z+4,r24
 174               	.LM32:
 175 00b8 8481      		ldd r24,Z+4
 176 00ba 8860      		ori r24,lo8(8)
 177 00bc 8483      		std Z+4,r24
 178               	/* epilogue start */
 179               	.LM33:
 180 00be 0895      		ret
 181               	.LFE10:
 183               	.global	init_aux_uart
 185               	init_aux_uart:
 186               	.LFB11:
 187               	.LM34:
 188               	.LVL4:
 189               	/* prologue: function */
 190               	/* frame size = 0 */
 191               	.LM35:
 192 00c0 E0E4      		ldi r30,lo8(1600)
 193 00c2 F6E0      		ldi r31,hi8(1600)
 194 00c4 28E0      		ldi r18,lo8(8)
 195 00c6 2183      		std Z+1,r18
 196               	.LM36:
 197 00c8 24E0      		ldi r18,lo8(4)
 198 00ca 2283      		std Z+2,r18
 199               	.LM37:
 200 00cc E0EA      		ldi r30,lo8(2208)
 201 00ce F8E0      		ldi r31,hi8(2208)
 202 00d0 23E0      		ldi r18,lo8(3)
 203 00d2 2583      		std Z+5,r18
 204               	.LBB622:
 205               	.LBB623:
 206               	.LM38:
 207 00d4 E093 0000 		sts AUX_data,r30
 208 00d8 F093 0000 		sts (AUX_data)+1,r31
 209               	.LM39:
 210 00dc 1092 0000 		sts AUX_data+259,__zero_reg__
 211               	.LM40:
 212 00e0 1092 0000 		sts AUX_data+258,__zero_reg__
 213               	.LBE623:
 214               	.LBE622:
 215               	.LM41:
 216 00e4 2381      		ldd r18,Z+3
 217 00e6 2F7C      		andi r18,lo8(-49)
 218 00e8 2062      		ori r18,lo8(32)
 219 00ea 2383      		std Z+3,r18
 220               	.LM42:
 221 00ec A0EA      		ldi r26,lo8(160)
 222 00ee B0E0      		ldi r27,hi8(160)
 223 00f0 1296      		adiw r26,2
 224 00f2 2C91      		ld r18,X
 225 00f4 1297      		sbiw r26,2
 226 00f6 2260      		ori r18,lo8(2)
 227 00f8 1296      		adiw r26,2
 228 00fa 2C93      		st X,r18
 229               	.LM43:
 230 00fc 8683      		std Z+6,r24
 231 00fe 6295      		swap r22
 232               	.LVL5:
 233 0100 607F      		andi r22,lo8(-16)
 234 0102 892F      		mov r24,r25
 235 0104 990F      		lsl r25
 236 0106 990B      		sbc r25,r25
 237               	.LVL6:
 238 0108 682B      		or r22,r24
 239 010a 6783      		std Z+7,r22
 240               	.LM44:
 241 010c 8481      		ldd r24,Z+4
 242 010e 8061      		ori r24,lo8(16)
 243 0110 8483      		std Z+4,r24
 244               	.LM45:
 245 0112 8481      		ldd r24,Z+4
 246 0114 8860      		ori r24,lo8(8)
 247 0116 8483      		std Z+4,r24
 248               	/* epilogue start */
 249               	.LM46:
 250 0118 0895      		ret
 251               	.LFE11:
 253               	.global	set_aux_baud_rate
 255               	set_aux_baud_rate:
 256               	.LFB12:
 257               	.LM47:
 258               	.LVL7:
 259               	/* prologue: function */
 260               	/* frame size = 0 */
 261               	.LM48:
 262 011a E0EA      		ldi r30,lo8(2208)
 263 011c F8E0      		ldi r31,hi8(2208)
 264 011e 8683      		std Z+6,r24
 265 0120 6295      		swap r22
 266               	.LVL8:
 267 0122 607F      		andi r22,lo8(-16)
 268 0124 892F      		mov r24,r25
 269 0126 990F      		lsl r25
 270 0128 990B      		sbc r25,r25
 271               	.LVL9:
 272 012a 682B      		or r22,r24
 273 012c 6783      		std Z+7,r22
 274               	/* epilogue start */
 275               	.LM49:
 276 012e 0895      		ret
 277               	.LFE12:
 279               	.global	uart_putchar
 281               	uart_putchar:
 282               	.LFB13:
 283               	.LM50:
 284               	.LVL10:
 285               	/* prologue: function */
 286               	/* frame size = 0 */
 287 0130 FC01      		movw r30,r24
 288               	.LVL11:
 289               	.L16:
 290               	.LM51:
 291 0132 8181      		ldd r24,Z+1
 292 0134 85FF      		sbrs r24,5
 293 0136 00C0      		rjmp .L16
 294               	.LM52:
 295 0138 6083      		st Z,r22
 296               	/* epilogue start */
 297               	.LM53:
 298 013a 0895      		ret
 299               	.LFE13:
 301               	.global	uart_getchar_nb
 303               	uart_getchar_nb:
 304               	.LFB14:
 305               	.LM54:
 306               	.LVL12:
 307               	/* prologue: function */
 308               	/* frame size = 0 */
 309 013c FC01      		movw r30,r24
 310               	.LM55:
 311 013e 28EE      		ldi r18,lo8(1000)
 312 0140 33E0      		ldi r19,hi8(1000)
 313               	.LVL13:
 314               	.L21:
 315               	.LM56:
 316 0142 2150      		subi r18,lo8(-(-1))
 317 0144 3040      		sbci r19,hi8(-(-1))
 318               	.LM57:
 319 0146 8181      		ldd r24,Z+1
 320 0148 87FD      		sbrc r24,7
 321 014a 00C0      		rjmp .L20
 322 014c 2115      		cp r18,__zero_reg__
 323 014e 3105      		cpc r19,__zero_reg__
 324 0150 01F4      		brne .L21
 325 0152 00C0      		rjmp .L22
 326               	.L20:
 327               	.LM58:
 328 0154 232B      		or r18,r19
 329 0156 01F0      		breq .L22
 330               	.LM59:
 331 0158 8081      		ld r24,Z
 332 015a 0895      		ret
 333               	.L22:
 334 015c 80E0      		ldi r24,lo8(0)
 335               	.LM60:
 336 015e 0895      		ret
 337               	.LFE14:
 339               	.global	uart_getchar
 341               	uart_getchar:
 342               	.LFB15:
 343               	.LM61:
 344               	/* prologue: function */
 345               	/* frame size = 0 */
 346               	.LVL14:
 347               	.L27:
 348               	.LBB624:
 349               	.LBB625:
 350               	.LM62:
 351 0160 9091 0000 		lds r25,BT_data+258
 352               	.LVL15:
 353               	.LM63:
 354 0164 8091 0000 		lds r24,BT_data+259
 355               	.LVL16:
 356               	.LBE625:
 357               	.LBE624:
 358               	.LM64:
 359 0168 9817      		cp r25,r24
 360 016a 01F0      		breq .L27
 361               	.LBB626:
 362               	.LBB627:
 363               	.LM65:
 364 016c E091 0000 		lds r30,BT_data+259
 365 0170 F0E0      		ldi r31,lo8(0)
 366 0172 E050      		subi r30,lo8(-(BT_data))
 367 0174 F040      		sbci r31,hi8(-(BT_data))
 368 0176 8281      		ldd r24,Z+2
 369               	.LVL17:
 370               	.LM66:
 371 0178 9091 0000 		lds r25,BT_data+259
 372               	.LVL18:
 373 017c 9F5F      		subi r25,lo8(-(1))
 374 017e 9093 0000 		sts BT_data+259,r25
 375               	.LVL19:
 376               	/* epilogue start */
 377               	.LBE627:
 378               	.LBE626:
 379               	.LM67:
 380 0182 0895      		ret
 381               	.LFE15:
 383               	.global	uart_getchar_timeout
 385               	uart_getchar_timeout:
 386               	.LFB16:
 387               	.LM68:
 388               	.LVL20:
 389               	/* prologue: function */
 390               	/* frame size = 0 */
 391               	.LM69:
 392 0184 20E0      		ldi r18,lo8(0)
 393 0186 30E0      		ldi r19,hi8(0)
 394               	.LVL21:
 395               	.LBB628:
 396               	.LBB629:
 397               	.LBB630:
 398               	.LBB631:
 399               	.LM70:
 400 0188 40E4      		ldi r20,lo8(8000)
 401 018a 5FE1      		ldi r21,hi8(8000)
 402 018c 00C0      		rjmp .L31
 403               	.LVL22:
 404               	.L33:
 405               	.LBE631:
 406               	.LBE630:
 407               	.LBE629:
 408               	.LBE628:
 409               	.LM71:
 410 018e 2F5F      		subi r18,lo8(-(1))
 411 0190 3F4F      		sbci r19,hi8(-(1))
 412               	.LBB635:
 413               	.LBB634:
 414               	.LBB633:
 415               	.LBB632:
 416               	.LM72:
 417 0192 CA01      		movw r24,r20
 418               	.LVL23:
 419               	/* #APP */
 420               	 ;  105 "c:/winavr-20100110/lib/gcc/../../avr/include/util/delay_basic.h" 1
 421 0194 0197      		1: sbiw r24,1
 422 0196 01F4      		brne 1b
 423               	 ;  0 "" 2
 424               	.LVL24:
 425               	/* #NOAPP */
 426               	.L31:
 427               	.LBE632:
 428               	.LBE633:
 429               	.LBE634:
 430               	.LBE635:
 431               	.LBB636:
 432               	.LBB637:
 433               	.LM73:
 434 0198 9091 0000 		lds r25,BT_data+258
 435               	.LM74:
 436 019c 8091 0000 		lds r24,BT_data+259
 437               	.LVL25:
 438               	.LBE637:
 439               	.LBE636:
 440               	.LM75:
 441 01a0 9817      		cp r25,r24
 442 01a2 01F4      		brne .L32
 443 01a4 81E0      		ldi r24,hi8(500)
 444 01a6 243F      		cpi r18,lo8(500)
 445 01a8 3807      		cpc r19,r24
 446               	.LVL26:
 447 01aa 01F4      		brne .L33
 448 01ac 00C0      		rjmp .L34
 449               	.LVL27:
 450               	.L32:
 451               	.LM76:
 452 01ae 245F      		subi r18,lo8(500)
 453 01b0 3140      		sbci r19,hi8(500)
 454               	.LVL28:
 455 01b2 04F4      		brge .L34
 456               	.LBB638:
 457               	.LBB639:
 458               	.LM77:
 459 01b4 E091 0000 		lds r30,BT_data+259
 460 01b8 F0E0      		ldi r31,lo8(0)
 461 01ba E050      		subi r30,lo8(-(BT_data))
 462 01bc F040      		sbci r31,hi8(-(BT_data))
 463 01be 9281      		ldd r25,Z+2
 464               	.LVL29:
 465               	.LM78:
 466 01c0 8091 0000 		lds r24,BT_data+259
 467 01c4 8F5F      		subi r24,lo8(-(1))
 468 01c6 8093 0000 		sts BT_data+259,r24
 469               	.LBE639:
 470               	.LBE638:
 471               	.LM79:
 472 01ca 292F      		mov r18,r25
 473               	.LVL30:
 474 01cc 30E0      		ldi r19,lo8(0)
 475 01ce 00C0      		rjmp .L35
 476               	.LVL31:
 477               	.L34:
 478 01d0 20E0      		ldi r18,lo8(256)
 479 01d2 31E0      		ldi r19,hi8(256)
 480               	.LVL32:
 481               	.L35:
 482               	.LM80:
 483 01d4 C901      		movw r24,r18
 484               	/* epilogue start */
 485 01d6 0895      		ret
 486               	.LFE16:
 488               	.global	aux_uart_getchar
 490               	aux_uart_getchar:
 491               	.LFB17:
 492               	.LM81:
 493               	.LVL33:
 494               	/* prologue: function */
 495               	/* frame size = 0 */
 496               	.LBB640:
 497               	.LBB641:
 498               	.LM82:
 499 01d8 8091 0000 		lds r24,AUX_data+259
 500               	.LVL34:
 501 01dc E0E0      		ldi r30,lo8(AUX_data)
 502 01de F0E0      		ldi r31,hi8(AUX_data)
 503 01e0 E80F      		add r30,r24
 504 01e2 F11D      		adc r31,__zero_reg__
 505 01e4 8281      		ldd r24,Z+2
 506               	.LVL35:
 507               	.LM83:
 508 01e6 9091 0000 		lds r25,AUX_data+259
 509 01ea 9F5F      		subi r25,lo8(-(1))
 510 01ec 9093 0000 		sts AUX_data+259,r25
 511               	.LVL36:
 512               	/* epilogue start */
 513               	.LBE641:
 514               	.LBE640:
 515               	.LM84:
 516 01f0 0895      		ret
 517               	.LFE17:
 519               	.global	USART_InterruptDriver_Initialize
 521               	USART_InterruptDriver_Initialize:
 522               	.LFB18:
 523               	.LM85:
 524               	.LVL37:
 525               	/* prologue: function */
 526               	/* frame size = 0 */
 527 01f2 FC01      		movw r30,r24
 528               	.LM86:
 529 01f4 6083      		st Z,r22
 530 01f6 7183      		std Z+1,r23
 531               	.LM87:
 532 01f8 ED5F      		subi r30,lo8(-(259))
 533 01fa FE4F      		sbci r31,hi8(-(259))
 534               	.LVL38:
 535 01fc 1082      		st Z,__zero_reg__
 536               	.LM88:
 537 01fe 1292      		st -Z,__zero_reg__
 538               	.LVL39:
 539               	/* epilogue start */
 540               	.LM89:
 541 0200 0895      		ret
 542               	.LFE18:
 544               	.global	USART_RXBufferData_Available
 546               	USART_RXBufferData_Available:
 547               	.LFB19:
 548               	.LM90:
 549               	.LVL40:
 550               	/* prologue: function */
 551               	/* frame size = 0 */
 552 0202 FC01      		movw r30,r24
 553               	.LM91:
 554 0204 EE5F      		subi r30,lo8(-(258))
 555 0206 FE4F      		sbci r31,hi8(-(258))
 556               	.LVL41:
 557 0208 9191      		ld r25,Z+
 558               	.LVL42:
 559               	.LM92:
 560 020a 8081      		ld r24,Z
 561               	.LVL43:
 562 020c 20E0      		ldi r18,lo8(0)
 563 020e 9813      		cpse r25,r24
 564 0210 21E0      		ldi r18,lo8(1)
 565               	.L42:
 566               	.LM93:
 567 0212 822F      		mov r24,r18
 568               	.LVL44:
 569               	/* epilogue start */
 570 0214 0895      		ret
 571               	.LFE19:
 573               	.global	USART_RXBuffer_GetByte
 575               	USART_RXBuffer_GetByte:
 576               	.LFB20:
 577               	.LM94:
 578               	.LVL45:
 579               	/* prologue: function */
 580               	/* frame size = 0 */
 581 0216 FC01      		movw r30,r24
 582               	.LM95:
 583 0218 DC01      		movw r26,r24
 584 021a AD5F      		subi r26,lo8(-(259))
 585 021c BE4F      		sbci r27,hi8(-(259))
 586 021e 8C91      		ld r24,X
 587               	.LVL46:
 588 0220 E80F      		add r30,r24
 589 0222 F11D      		adc r31,__zero_reg__
 590 0224 8281      		ldd r24,Z+2
 591               	.LVL47:
 592               	.LM96:
 593 0226 9C91      		ld r25,X
 594 0228 9F5F      		subi r25,lo8(-(1))
 595 022a 9C93      		st X,r25
 596               	.LVL48:
 597               	/* epilogue start */
 598               	.LM97:
 599 022c 0895      		ret
 600               	.LFE20:
 602               	.global	USART_RXComplete
 604               	USART_RXComplete:
 605               	.LFB21:
 606               	.LM98:
 607               	.LVL49:
 608 022e CF93      		push r28
 609 0230 DF93      		push r29
 610               	/* prologue: function */
 611               	/* frame size = 0 */
 612 0232 DC01      		movw r26,r24
 613               	.LM99:
 614 0234 EC01      		movw r28,r24
 615 0236 CE5F      		subi r28,lo8(-(258))
 616 0238 DE4F      		sbci r29,hi8(-(258))
 617 023a 9881      		ld r25,Y
 618               	.LVL50:
 619 023c 9F5F      		subi r25,lo8(-(1))
 620               	.LM100:
 621 023e AD5F      		subi r26,lo8(-(259))
 622 0240 BE4F      		sbci r27,hi8(-(259))
 623               	.LVL51:
 624 0242 8C91      		ld r24,X
 625               	.LVL52:
 626 0244 A350      		subi r26,lo8(-(-259))
 627 0246 B140      		sbci r27,hi8(-(-259))
 628               	.LM101:
 629 0248 ED91      		ld r30,X+
 630 024a FC91      		ld r31,X
 631 024c 1197      		sbiw r26,1
 632 024e E081      		ld r30,Z
 633               	.LVL53:
 634               	.LM102:
 635 0250 9817      		cp r25,r24
 636 0252 01F4      		brne .L47
 637 0254 80E0      		ldi r24,lo8(0)
 638               	.LVL54:
 639 0256 00C0      		rjmp .L48
 640               	.LVL55:
 641               	.L47:
 642               	.LM103:
 643 0258 8881      		ld r24,Y
 644               	.LVL56:
 645 025a A80F      		add r26,r24
 646 025c B11D      		adc r27,__zero_reg__
 647 025e 1296      		adiw r26,2
 648 0260 EC93      		st X,r30
 649               	.LM104:
 650 0262 9883      		st Y,r25
 651 0264 81E0      		ldi r24,lo8(1)
 652               	.LVL57:
 653               	.L48:
 654               	.LVL58:
 655               	/* epilogue start */
 656               	.LM105:
 657 0266 DF91      		pop r29
 658 0268 CF91      		pop r28
 659 026a 0895      		ret
 660               	.LFE21:
 662               	.global	__vector_91
 664               	__vector_91:
 665               	.LFB22:
 666               	.LM106:
 667 026c 1F92      		push __zero_reg__
 668 026e 0F92      		push r0
 669 0270 0FB6      		in r0,__SREG__
 670 0272 0F92      		push r0
 671 0274 1124      		clr __zero_reg__
 672 0276 2F93      		push r18
 673 0278 8F93      		push r24
 674 027a 9F93      		push r25
 675 027c EF93      		push r30
 676 027e FF93      		push r31
 677               	/* prologue: Signal */
 678               	/* frame size = 0 */
 679               	.LBB642:
 680               	.LBB643:
 681               	.LM107:
 682 0280 9091 0000 		lds r25,BT_data+258
 683               	.LVL59:
 684 0284 9F5F      		subi r25,lo8(-(1))
 685               	.LM108:
 686 0286 8091 0000 		lds r24,BT_data+259
 687               	.LVL60:
 688               	.LM109:
 689 028a E091 0000 		lds r30,BT_data
 690 028e F091 0000 		lds r31,(BT_data)+1
 691 0292 2081      		ld r18,Z
 692               	.LVL61:
 693               	.LM110:
 694 0294 9817      		cp r25,r24
 695 0296 01F0      		breq .L52
 696               	.LM111:
 697 0298 E091 0000 		lds r30,BT_data+258
 698 029c F0E0      		ldi r31,lo8(0)
 699 029e E050      		subi r30,lo8(-(BT_data))
 700 02a0 F040      		sbci r31,hi8(-(BT_data))
 701 02a2 2283      		std Z+2,r18
 702               	.LM112:
 703 02a4 9093 0000 		sts BT_data+258,r25
 704               	.L52:
 705               	/* epilogue start */
 706               	.LBE643:
 707               	.LBE642:
 708               	.LM113:
 709 02a8 FF91      		pop r31
 710 02aa EF91      		pop r30
 711 02ac 9F91      		pop r25
 712               	.LVL62:
 713 02ae 8F91      		pop r24
 714               	.LVL63:
 715 02b0 2F91      		pop r18
 716               	.LVL64:
 717 02b2 0F90      		pop r0
 718 02b4 0FBE      		out __SREG__,r0
 719 02b6 0F90      		pop r0
 720 02b8 1F90      		pop __zero_reg__
 721 02ba 1895      		reti
 722               	.LFE22:
 724               	.global	__vector_25
 726               	__vector_25:
 727               	.LFB23:
 728               	.LM114:
 729 02bc 1F92      		push __zero_reg__
 730 02be 0F92      		push r0
 731 02c0 0FB6      		in r0,__SREG__
 732 02c2 0F92      		push r0
 733 02c4 1124      		clr __zero_reg__
 734 02c6 2F93      		push r18
 735 02c8 8F93      		push r24
 736 02ca 9F93      		push r25
 737 02cc EF93      		push r30
 738 02ce FF93      		push r31
 739               	/* prologue: Signal */
 740               	/* frame size = 0 */
 741               	.LBB644:
 742               	.LBB645:
 743               	.LM115:
 744 02d0 9091 0000 		lds r25,AUX_data+258
 745               	.LVL65:
 746 02d4 9F5F      		subi r25,lo8(-(1))
 747               	.LM116:
 748 02d6 8091 0000 		lds r24,AUX_data+259
 749               	.LVL66:
 750               	.LM117:
 751 02da E091 0000 		lds r30,AUX_data
 752 02de F091 0000 		lds r31,(AUX_data)+1
 753 02e2 2081      		ld r18,Z
 754               	.LVL67:
 755               	.LM118:
 756 02e4 9817      		cp r25,r24
 757 02e6 01F0      		breq .L55
 758               	.LM119:
 759 02e8 E091 0000 		lds r30,AUX_data+258
 760 02ec F0E0      		ldi r31,lo8(0)
 761 02ee E050      		subi r30,lo8(-(AUX_data))
 762 02f0 F040      		sbci r31,hi8(-(AUX_data))
 763 02f2 2283      		std Z+2,r18
 764               	.LM120:
 765 02f4 9093 0000 		sts AUX_data+258,r25
 766               	.L55:
 767               	/* epilogue start */
 768               	.LBE645:
 769               	.LBE644:
 770               	.LM121:
 771 02f8 FF91      		pop r31
 772 02fa EF91      		pop r30
 773 02fc 9F91      		pop r25
 774               	.LVL68:
 775 02fe 8F91      		pop r24
 776               	.LVL69:
 777 0300 2F91      		pop r18
 778               	.LVL70:
 779 0302 0F90      		pop r0
 780 0304 0FBE      		out __SREG__,r0
 781 0306 0F90      		pop r0
 782 0308 1F90      		pop __zero_reg__
 783 030a 1895      		reti
 784               	.LFE23:
 786               	.global	init_adc
 788               	init_adc:
 789               	.LFB24:
 790               	.LM122:
 791 030c CF93      		push r28
 792 030e DF93      		push r29
 793               	/* prologue: function */
 794               	/* frame size = 0 */
 795               	.LM123:
 796 0310 E0E0      		ldi r30,lo8(512)
 797 0312 F2E0      		ldi r31,hi8(512)
 798 0314 8181      		ldd r24,Z+1
 799 0316 897E      		andi r24,lo8(-23)
 800 0318 8460      		ori r24,lo8(4)
 801 031a 8183      		std Z+1,r24
 802               	.LM124:
 803 031c 8481      		ldd r24,Z+4
 804 031e 8760      		ori r24,lo8(7)
 805 0320 8483      		std Z+4,r24
 806               	.LM125:
 807 0322 8281      		ldd r24,Z+2
 808 0324 8063      		ori r24,lo8(48)
 809 0326 8283      		std Z+2,r24
 810               	.LM126:
 811 0328 28E2      		ldi r18,lo8(552)
 812 032a 32E0      		ldi r19,hi8(552)
 813 032c D901      		movw r26,r18
 814 032e 8C91      		ld r24,X
 815 0330 807E      		andi r24,lo8(-32)
 816 0332 8C93      		st X,r24
 817               	.LM127:
 818 0334 A0E3      		ldi r26,lo8(560)
 819 0336 B2E0      		ldi r27,hi8(560)
 820 0338 8C91      		ld r24,X
 821 033a 807E      		andi r24,lo8(-32)
 822 033c 8160      		ori r24,lo8(1)
 823 033e 8C93      		st X,r24
 824               	.LM128:
 825 0340 E901      		movw r28,r18
 826 0342 1982      		std Y+1,__zero_reg__
 827               	.LM129:
 828 0344 88E3      		ldi r24,lo8(56)
 829 0346 1196      		adiw r26,1
 830 0348 8C93      		st X,r24
 831               	.LM130:
 832 034a 8281      		ldd r24,Z+2
 833 034c 8160      		ori r24,lo8(1)
 834 034e 8283      		std Z+2,r24
 835               	.LM131:
 836 0350 8081      		ld r24,Z
 837 0352 8160      		ori r24,lo8(1)
 838 0354 8083      		st Z,r24
 839               	.LBB646:
 840               	.LBB647:
 841               	.LBB648:
 842               	.LBB649:
 843               	.LM132:
 844 0356 80E4      		ldi r24,lo8(8000)
 845 0358 9FE1      		ldi r25,hi8(8000)
 846               	.LVL71:
 847               	/* #APP */
 848               	 ;  105 "c:/winavr-20100110/lib/gcc/../../avr/include/util/delay_basic.h" 1
 849 035a 0197      		1: sbiw r24,1
 850 035c 01F4      		brne 1b
 851               	 ;  0 "" 2
 852               	/* epilogue start */
 853               	/* #NOAPP */
 854               	.LBE649:
 855               	.LBE648:
 856               	.LBE647:
 857               	.LBE646:
 858               	.LM133:
 859 035e DF91      		pop r29
 860 0360 CF91      		pop r28
 861 0362 0895      		ret
 862               	.LFE24:
 864               	.global	read_analog
 866               	read_analog:
 867               	.LFB25:
 868               	.LM134:
 869               	.LVL72:
 870               	/* prologue: function */
 871               	/* frame size = 0 */
 872               	.LM135:
 873 0364 E0E3      		ldi r30,lo8(560)
 874 0366 F2E0      		ldi r31,hi8(560)
 875 0368 8183      		std Z+1,r24
 876               	.LM136:
 877 036a 8091 3002 		lds r24,560
 878               	.LVL73:
 879 036e 8068      		ori r24,lo8(-128)
 880 0370 E0E0      		ldi r30,lo8(512)
 881 0372 F2E0      		ldi r31,hi8(512)
 882 0374 80AB      		std Z+48,r24
 883               	.L60:
 884               	.LM137:
 885 0376 8091 3302 		lds r24,563
 886 037a 80FD      		sbrc r24,0
 887 037c 00C0      		rjmp .L59
 888 037e 8091 0602 		lds r24,518
 889 0382 82FF      		sbrs r24,2
 890 0384 00C0      		rjmp .L60
 891               	.L59:
 892               	.LM138:
 893 0386 81E0      		ldi r24,lo8(1)
 894 0388 E0E0      		ldi r30,lo8(512)
 895 038a F2E0      		ldi r31,hi8(512)
 896 038c 83AB      		std Z+51,r24
 897               	.LM139:
 898 038e 8091 3402 		lds r24,564
 899               	.LM140:
 900 0392 90E0      		ldi r25,lo8(0)
 901               	/* epilogue start */
 902 0394 0895      		ret
 903               	.LFE25:
 905               	.global	read_internal_temperature
 907               	read_internal_temperature:
 908               	.LFB26:
 909               	.LM141:
 910               	/* prologue: function */
 911               	/* frame size = 0 */
 912               	.LM142:
 913 0396 8091 2802 		lds r24,552
 914 039a 8068      		ori r24,lo8(-128)
 915 039c E0E0      		ldi r30,lo8(512)
 916 039e F2E0      		ldi r31,hi8(512)
 917 03a0 80A7      		std Z+40,r24
 918               	.L64:
 919               	.LM143:
 920 03a2 8091 2B02 		lds r24,555
 921 03a6 80FF      		sbrs r24,0
 922 03a8 00C0      		rjmp .L64
 923               	.LM144:
 924 03aa 81E0      		ldi r24,lo8(1)
 925 03ac E0E0      		ldi r30,lo8(512)
 926 03ae F2E0      		ldi r31,hi8(512)
 927 03b0 83A7      		std Z+43,r24
 928               	.LM145:
 929 03b2 8091 2C02 		lds r24,556
 930               	.LM146:
 931 03b6 90E0      		ldi r25,lo8(0)
 932               	/* epilogue start */
 933 03b8 0895      		ret
 934               	.LFE26:
 936               	.global	init_ir
 938               	init_ir:
 939               	.LFB27:
 940               	.LM147:
 941               	/* prologue: function */
 942               	/* frame size = 0 */
 943               	.LM148:
 944 03ba E0E0      		ldi r30,lo8(2048)
 945 03bc F8E0      		ldi r31,hi8(2048)
 946 03be 21E0      		ldi r18,lo8(1)
 947 03c0 2083      		st Z,r18
 948               	.LM149:
 949 03c2 83E1      		ldi r24,lo8(19)
 950 03c4 8183      		std Z+1,r24
 951               	.LM150:
 952 03c6 89E4      		ldi r24,lo8(841)
 953 03c8 93E0      		ldi r25,hi8(841)
 954 03ca 86AB      		std Z+54,r24
 955 03cc 97AB      		std Z+55,r25
 956               	.LM151:
 957 03ce E0E4      		ldi r30,lo8(1600)
 958 03d0 F6E0      		ldi r31,hi8(1600)
 959 03d2 2183      		std Z+1,r18
 960               	.LM152:
 961 03d4 E0E4      		ldi r30,lo8(2112)
 962 03d6 F8E0      		ldi r31,hi8(2112)
 963 03d8 85E0      		ldi r24,lo8(5)
 964 03da 8083      		st Z,r24
 965               	.LM153:
 966 03dc 1682      		std Z+6,__zero_reg__
 967               	/* epilogue start */
 968               	.LM154:
 969 03de 0895      		ret
 970               	.LFE27:
 972               	.global	set_ir50
 974               	set_ir50:
 975               	.LFB28:
 976               	.LM155:
 977               	/* prologue: function */
 978               	/* frame size = 0 */
 979               	.LM156:
 980               	/* #APP */
 981               	 ;  27 "ir.c" 1
 982 03e0 F894      		cli
 983               	 ;  0 "" 2
 984               	.LM157:
 985               	/* #NOAPP */
 986 03e2 E0E0      		ldi r30,lo8(2048)
 987 03e4 F8E0      		ldi r31,hi8(2048)
 988 03e6 86A1      		ldd r24,Z+38
 989 03e8 97A1      		ldd r25,Z+39
 990 03ea 9695      		lsr r25
 991 03ec 8795      		ror r24
 992 03ee 80A7      		std Z+40,r24
 993 03f0 91A7      		std Z+41,r25
 994               	.LM158:
 995               	/* #APP */
 996               	 ;  29 "ir.c" 1
 997 03f2 7894      		sei
 998               	 ;  0 "" 2
 999               	/* epilogue start */
 1000               	.LM159:
 1001               	/* #NOAPP */
 1002 03f4 0895      		ret
 1003               	.LFE28:
 1005               	.global	set_ir100
 1007               	set_ir100:
 1008               	.LFB29:
 1009               	.LM160:
 1010               	/* prologue: function */
 1011               	/* frame size = 0 */
 1012               	.LM161:
 1013               	/* #APP */
 1014               	 ;  35 "ir.c" 1
 1015 03f6 F894      		cli
 1016               	 ;  0 "" 2
 1017               	.LM162:
 1018               	/* #NOAPP */
 1019 03f8 E0E0      		ldi r30,lo8(2048)
 1020 03fa F8E0      		ldi r31,hi8(2048)
 1021 03fc 86A1      		ldd r24,Z+38
 1022 03fe 97A1      		ldd r25,Z+39
 1023 0400 80A7      		std Z+40,r24
 1024 0402 91A7      		std Z+41,r25
 1025               	.LM163:
 1026               	/* #APP */
 1027               	 ;  37 "ir.c" 1
 1028 0404 7894      		sei
 1029               	 ;  0 "" 2
 1030               	/* epilogue start */
 1031               	.LM164:
 1032               	/* #NOAPP */
 1033 0406 0895      		ret
 1034               	.LFE29:
 1036               	.global	set_ir0
 1038               	set_ir0:
 1039               	.LFB30:
 1040               	.LM165:
 1041               	/* prologue: function */
 1042               	/* frame size = 0 */
 1043               	.LM166:
 1044               	/* #APP */
 1045               	 ;  42 "ir.c" 1
 1046 0408 F894      		cli
 1047               	 ;  0 "" 2
 1048               	.LM167:
 1049               	/* #NOAPP */
 1050 040a E0E0      		ldi r30,lo8(2048)
 1051 040c F8E0      		ldi r31,hi8(2048)
 1052 040e 10A6      		std Z+40,__zero_reg__
 1053 0410 11A6      		std Z+41,__zero_reg__
 1054               	.LM168:
 1055               	/* #APP */
 1056               	 ;  44 "ir.c" 1
 1057 0412 7894      		sei
 1058               	 ;  0 "" 2
 1059               	/* epilogue start */
 1060               	.LM169:
 1061               	/* #NOAPP */
 1062 0414 0895      		ret
 1063               	.LFE30:
 1065               	.global	set_ir_carrier
 1067               	set_ir_carrier:
 1068               	.LFB31:
 1069               	.LM170:
 1070               	.LVL74:
 1071               	/* prologue: function */
 1072               	/* frame size = 0 */
 1073               	.LM171:
 1074               	/* #APP */
 1075               	 ;  50 "ir.c" 1
 1076 0416 F894      		cli
 1077               	 ;  0 "" 2
 1078               	.LM172:
 1079               	/* #NOAPP */
 1080 0418 E0E0      		ldi r30,lo8(2048)
 1081 041a F8E0      		ldi r31,hi8(2048)
 1082 041c 86AB      		std Z+54,r24
 1083 041e 97AB      		std Z+55,r25
 1084               	.LVL75:
 1085               	.LM173:
 1086               	/* #APP */
 1087               	 ;  52 "ir.c" 1
 1088 0420 7894      		sei
 1089               	 ;  0 "" 2
 1090               	/* epilogue start */
 1091               	.LM174:
 1092               	/* #NOAPP */
 1093 0422 0895      		ret
 1094               	.LFE31:
 1096               	.global	start_ir_timer
 1098               	start_ir_timer:
 1099               	.LFB32:
 1100               	.LM175:
 1101               	/* prologue: function */
 1102               	/* frame size = 0 */
 1103               	.LM176:
 1104 0424 1092 0000 		sts startUpCounter,__zero_reg__
 1105 0428 1092 0000 		sts (startUpCounter)+1,__zero_reg__
 1106               	.LM177:
 1107 042c 1092 0000 		sts onOffTracker,__zero_reg__
 1108 0430 1092 0000 		sts (onOffTracker)+1,__zero_reg__
 1109               	.LM178:
 1110 0434 1092 0000 		sts bitCounter,__zero_reg__
 1111               	.LM179:
 1112               	/* #APP */
 1113               	 ;  62 "ir.c" 1
 1114 0438 F894      		cli
 1115               	 ;  0 "" 2
 1116               	.LM180:
 1117               	/* #NOAPP */
 1118 043a E0E4      		ldi r30,lo8(2112)
 1119 043c F8E0      		ldi r31,hi8(2112)
 1120 043e 10A2      		std Z+32,__zero_reg__
 1121 0440 11A2      		std Z+33,__zero_reg__
 1122               	.LM181:
 1123               	/* #APP */
 1124               	 ;  64 "ir.c" 1
 1125 0442 7894      		sei
 1126               	 ;  0 "" 2
 1127               	.LM182:
 1128               	/* #NOAPP */
 1129 0444 83E0      		ldi r24,lo8(3)
 1130 0446 E0E4      		ldi r30,lo8(2112)
 1131 0448 F8E0      		ldi r31,hi8(2112)
 1132 044a 8683      		std Z+6,r24
 1133               	.LM183:
 1134 044c E0EA      		ldi r30,lo8(160)
 1135 044e F0E0      		ldi r31,hi8(160)
 1136 0450 8281      		ldd r24,Z+2
 1137 0452 8460      		ori r24,lo8(4)
 1138 0454 8283      		std Z+2,r24
 1139               	/* epilogue start */
 1140               	.LM184:
 1141 0456 0895      		ret
 1142               	.LFE32:
 1144               	.global	stop_ir_timer
 1146               	stop_ir_timer:
 1147               	.LFB33:
 1148               	.LM185:
 1149               	/* prologue: function */
 1150               	/* frame size = 0 */
 1151               	.LM186:
 1152 0458 E0E4      		ldi r30,lo8(2112)
 1153 045a F8E0      		ldi r31,hi8(2112)
 1154 045c 1682      		std Z+6,__zero_reg__
 1155               	.LBB650:
 1156               	.LBB651:
 1157               	.LM187:
 1158               	/* #APP */
 1159               	 ;  42 "ir.c" 1
 1160 045e F894      		cli
 1161               	 ;  0 "" 2
 1162               	.LM188:
 1163               	/* #NOAPP */
 1164 0460 E0E0      		ldi r30,lo8(2048)
 1165 0462 F8E0      		ldi r31,hi8(2048)
 1166 0464 10A6      		std Z+40,__zero_reg__
 1167 0466 11A6      		std Z+41,__zero_reg__
 1168               	.LM189:
 1169               	/* #APP */
 1170               	 ;  44 "ir.c" 1
 1171 0468 7894      		sei
 1172               	 ;  0 "" 2
 1173               	/* epilogue start */
 1174               	/* #NOAPP */
 1175               	.LBE651:
 1176               	.LBE650:
 1177               	.LM190:
 1178 046a 0895      		ret
 1179               	.LFE33:
 1181               	.global	__vector_20
 1183               	__vector_20:
 1184               	.LFB34:
 1185               	.LM191:
 1186 046c 1F92      		push __zero_reg__
 1187 046e 0F92      		push r0
 1188 0470 0FB6      		in r0,__SREG__
 1189 0472 0F92      		push r0
 1190 0474 1124      		clr __zero_reg__
 1191 0476 2F93      		push r18
 1192 0478 3F93      		push r19
 1193 047a 4F93      		push r20
 1194 047c 5F93      		push r21
 1195 047e 6F93      		push r22
 1196 0480 7F93      		push r23
 1197 0482 8F93      		push r24
 1198 0484 9F93      		push r25
 1199 0486 AF93      		push r26
 1200 0488 BF93      		push r27
 1201 048a EF93      		push r30
 1202 048c FF93      		push r31
 1203               	/* prologue: Signal */
 1204               	/* frame size = 0 */
 1205               	.LM192:
 1206 048e 8091 0000 		lds r24,onOffTracker
 1207 0492 9091 0000 		lds r25,(onOffTracker)+1
 1208 0496 0197      		sbiw r24,1
 1209 0498 01F4      		brne .L82
 1210               	.LBB652:
 1211               	.LBB653:
 1212               	.LM193:
 1213               	/* #APP */
 1214               	 ;  42 "ir.c" 1
 1215 049a F894      		cli
 1216               	 ;  0 "" 2
 1217               	.LM194:
 1218               	/* #NOAPP */
 1219 049c E0E0      		ldi r30,lo8(2048)
 1220 049e F8E0      		ldi r31,hi8(2048)
 1221 04a0 10A6      		std Z+40,__zero_reg__
 1222 04a2 11A6      		std Z+41,__zero_reg__
 1223               	.LM195:
 1224               	/* #APP */
 1225               	 ;  44 "ir.c" 1
 1226 04a4 7894      		sei
 1227               	 ;  0 "" 2
 1228               	/* #NOAPP */
 1229               	.LBE653:
 1230               	.LBE652:
 1231               	.LM196:
 1232 04a6 1092 0000 		sts onOffTracker,__zero_reg__
 1233 04aa 1092 0000 		sts (onOffTracker)+1,__zero_reg__
 1234 04ae 00C0      		rjmp .L83
 1235               	.L82:
 1236               	.LM197:
 1237 04b0 0E94 0000 		call set_ir50
 1238               	.LM198:
 1239 04b4 81E0      		ldi r24,lo8(1)
 1240 04b6 90E0      		ldi r25,hi8(1)
 1241 04b8 8093 0000 		sts onOffTracker,r24
 1242 04bc 9093 0000 		sts (onOffTracker)+1,r25
 1243               	.L83:
 1244               	.LM199:
 1245 04c0 4091 0000 		lds r20,bitCounter
 1246 04c4 8091 0000 		lds r24,robotData+36
 1247 04c8 4817      		cp r20,r24
 1248 04ca 00F0      		brlo .L84
 1249 04cc 8091 0000 		lds r24,onOffTracker
 1250 04d0 9091 0000 		lds r25,(onOffTracker)+1
 1251 04d4 892B      		or r24,r25
 1252 04d6 01F0      		breq .L85
 1253 04d8 8091 0000 		lds r24,robotData+35
 1254 04dc 8330      		cpi r24,lo8(3)
 1255 04de 01F4      		brne .L84
 1256               	.L85:
 1257               	.LM200:
 1258 04e0 8091 0000 		lds r24,robotData+35
 1259 04e4 8330      		cpi r24,lo8(3)
 1260 04e6 01F4      		brne .L86
 1261               	.LBB654:
 1262               	.LBB655:
 1263               	.LM201:
 1264               	/* #APP */
 1265               	 ;  42 "ir.c" 1
 1266 04e8 F894      		cli
 1267               	 ;  0 "" 2
 1268               	.LM202:
 1269               	/* #NOAPP */
 1270 04ea E0E0      		ldi r30,lo8(2048)
 1271 04ec F8E0      		ldi r31,hi8(2048)
 1272 04ee 10A6      		std Z+40,__zero_reg__
 1273 04f0 11A6      		std Z+41,__zero_reg__
 1274               	.LM203:
 1275               	/* #APP */
 1276               	 ;  44 "ir.c" 1
 1277 04f2 7894      		sei
 1278               	 ;  0 "" 2
 1279               	/* #NOAPP */
 1280               	.L86:
 1281               	.LBE655:
 1282               	.LBE654:
 1283               	.LM204:
 1284 04f4 8091 0000 		lds r24,robotData+238
 1285 04f8 9091 0000 		lds r25,(robotData+238)+1
 1286 04fc 892B      		or r24,r25
 1287 04fe 01F4      		brne .L87
 1288               	.LBB656:
 1289               	.LBB657:
 1290               	.LM205:
 1291 0500 E0E4      		ldi r30,lo8(2112)
 1292 0502 F8E0      		ldi r31,hi8(2112)
 1293 0504 1682      		std Z+6,__zero_reg__
 1294               	.LBB658:
 1295               	.LBB659:
 1296               	.LM206:
 1297               	/* #APP */
 1298               	 ;  42 "ir.c" 1
 1299 0506 F894      		cli
 1300               	 ;  0 "" 2
 1301               	.LM207:
 1302               	/* #NOAPP */
 1303 0508 E0E0      		ldi r30,lo8(2048)
 1304 050a F8E0      		ldi r31,hi8(2048)
 1305 050c 10A6      		std Z+40,__zero_reg__
 1306 050e 11A6      		std Z+41,__zero_reg__
 1307               	.LM208:
 1308               	/* #APP */
 1309               	 ;  44 "ir.c" 1
 1310 0510 7894      		sei
 1311               	 ;  0 "" 2
 1312               	/* #NOAPP */
 1313 0512 00C0      		rjmp .L105
 1314               	.L87:
 1315               	.LBE659:
 1316               	.LBE658:
 1317               	.LBE657:
 1318               	.LBE656:
 1319               	.LM209:
 1320 0514 1092 0000 		sts startUpCounter,__zero_reg__
 1321 0518 1092 0000 		sts (startUpCounter)+1,__zero_reg__
 1322               	.LM210:
 1323 051c 1092 0000 		sts onOffTracker,__zero_reg__
 1324 0520 1092 0000 		sts (onOffTracker)+1,__zero_reg__
 1325               	.LM211:
 1326 0524 1092 0000 		sts bitCounter,__zero_reg__
 1327               	.LM212:
 1328 0528 8091 0000 		lds r24,robotData+236
 1329 052c 9091 0000 		lds r25,(robotData+236)+1
 1330 0530 00C0      		rjmp .L109
 1331               	.L84:
 1332               	.LM213:
 1333 0532 2091 0000 		lds r18,startUpCounter
 1334 0536 3091 0000 		lds r19,(startUpCounter)+1
 1335 053a 8091 0000 		lds r24,robotData+2
 1336 053e 90E0      		ldi r25,lo8(0)
 1337 0540 2817      		cp r18,r24
 1338 0542 3907      		cpc r19,r25
 1339 0544 04F4      		brge .L89
 1340               	.LM214:
 1341 0546 F901      		movw r30,r18
 1342 0548 EE0F      		lsl r30
 1343 054a FF1F      		rol r31
 1344 054c E050      		subi r30,lo8(-(robotData))
 1345 054e F040      		sbci r31,hi8(-(robotData))
 1346 0550 8381      		ldd r24,Z+3
 1347 0552 9481      		ldd r25,Z+4
 1348 0554 E0E4      		ldi r30,lo8(2112)
 1349 0556 F8E0      		ldi r31,hi8(2112)
 1350 0558 86A3      		std Z+38,r24
 1351 055a 97A3      		std Z+39,r25
 1352               	.LM215:
 1353 055c 2F5F      		subi r18,lo8(-(1))
 1354 055e 3F4F      		sbci r19,hi8(-(1))
 1355 0560 2093 0000 		sts startUpCounter,r18
 1356 0564 3093 0000 		sts (startUpCounter)+1,r19
 1357 0568 00C0      		rjmp .L105
 1358               	.L89:
 1359               	.LM216:
 1360 056a 8091 0000 		lds r24,robotData+35
 1361 056e 8823      		tst r24
 1362 0570 01F0      		breq .L114
 1363               	.L90:
 1364               	.LM217:
 1365 0572 8130      		cpi r24,lo8(1)
 1366 0574 01F4      		brne .L93
 1367               	.LM218:
 1368 0576 8091 0000 		lds r24,onOffTracker
 1369 057a 9091 0000 		lds r25,(onOffTracker)+1
 1370 057e 0197      		sbiw r24,1
 1371 0580 01F4      		brne .L94
 1372               	.L114:
 1373               	.LM219:
 1374 0582 E42F      		mov r30,r20
 1375 0584 E695      		lsr r30
 1376 0586 E695      		lsr r30
 1377 0588 E695      		lsr r30
 1378 058a F0E0      		ldi r31,lo8(0)
 1379 058c E050      		subi r30,lo8(-(robotData))
 1380 058e F040      		sbci r31,hi8(-(robotData))
 1381 0590 24A5      		ldd r18,Z+44
 1382 0592 30E0      		ldi r19,lo8(0)
 1383 0594 842F      		mov r24,r20
 1384 0596 90E0      		ldi r25,lo8(0)
 1385 0598 8095      		com r24
 1386 059a 9095      		com r25
 1387 059c 8770      		andi r24,lo8(7)
 1388 059e 9070      		andi r25,hi8(7)
 1389 05a0 00C0      		rjmp 2f
 1390 05a2 3595      	1:	asr r19
 1391 05a4 2795      		ror r18
 1392 05a6 8A95      	2:	dec r24
 1393 05a8 02F4      		brpl 1b
 1394 05aa 20FF      		sbrs r18,0
 1395 05ac 00C0      		rjmp .L112
 1396 05ae 00C0      		rjmp .L102
 1397               	.L94:
 1398               	.LM220:
 1399 05b0 8091 0000 		lds r24,robotData+42
 1400 05b4 9091 0000 		lds r25,(robotData+42)+1
 1401               	.L109:
 1402 05b8 E0E4      		ldi r30,lo8(2112)
 1403 05ba F8E0      		ldi r31,hi8(2112)
 1404 05bc 86A3      		std Z+38,r24
 1405 05be 97A3      		std Z+39,r25
 1406 05c0 00C0      		rjmp .L105
 1407               	.L93:
 1408               	.LM221:
 1409 05c2 8230      		cpi r24,lo8(2)
 1410 05c4 01F4      		brne .L97
 1411               	.LM222:
 1412 05c6 8091 0000 		lds r24,onOffTracker
 1413 05ca 9091 0000 		lds r25,(onOffTracker)+1
 1414 05ce 892B      		or r24,r25
 1415 05d0 01F4      		brne .L98
 1416               	.LM223:
 1417 05d2 E42F      		mov r30,r20
 1418 05d4 E695      		lsr r30
 1419 05d6 E695      		lsr r30
 1420 05d8 E695      		lsr r30
 1421 05da F0E0      		ldi r31,lo8(0)
 1422 05dc E050      		subi r30,lo8(-(robotData))
 1423 05de F040      		sbci r31,hi8(-(robotData))
 1424 05e0 24A5      		ldd r18,Z+44
 1425 05e2 30E0      		ldi r19,lo8(0)
 1426 05e4 842F      		mov r24,r20
 1427 05e6 90E0      		ldi r25,lo8(0)
 1428 05e8 8095      		com r24
 1429 05ea 9095      		com r25
 1430 05ec 8770      		andi r24,lo8(7)
 1431 05ee 9070      		andi r25,hi8(7)
 1432 05f0 00C0      		rjmp 2f
 1433 05f2 3595      	1:	asr r19
 1434 05f4 2795      		ror r18
 1435 05f6 8A95      	2:	dec r24
 1436 05f8 02F4      		brpl 1b
 1437 05fa 20FF      		sbrs r18,0
 1438 05fc 00C0      		rjmp .L104
 1439 05fe 00C0      		rjmp .L111
 1440               	.L98:
 1441               	.LM224:
 1442 0600 8091 0000 		lds r24,robotData+42
 1443 0604 9091 0000 		lds r25,(robotData+42)+1
 1444 0608 00C0      		rjmp .L108
 1445               	.L97:
 1446               	.LM225:
 1447 060a 8330      		cpi r24,lo8(3)
 1448 060c 01F0      		breq .+2
 1449 060e 00C0      		rjmp .L100
 1450               	.LM226:
 1451 0610 8091 0000 		lds r24,onOffTracker
 1452 0614 9091 0000 		lds r25,(onOffTracker)+1
 1453 0618 E42F      		mov r30,r20
 1454 061a E695      		lsr r30
 1455 061c E695      		lsr r30
 1456 061e E695      		lsr r30
 1457 0620 242F      		mov r18,r20
 1458 0622 30E0      		ldi r19,lo8(0)
 1459 0624 892B      		or r24,r25
 1460 0626 01F4      		brne .L101
 1461               	.LM227:
 1462 0628 F0E0      		ldi r31,lo8(0)
 1463 062a E050      		subi r30,lo8(-(robotData))
 1464 062c F040      		sbci r31,hi8(-(robotData))
 1465 062e 84A5      		ldd r24,Z+44
 1466 0630 90E0      		ldi r25,lo8(0)
 1467 0632 2095      		com r18
 1468 0634 3095      		com r19
 1469 0636 2770      		andi r18,lo8(7)
 1470 0638 3070      		andi r19,hi8(7)
 1471 063a 00C0      		rjmp 2f
 1472 063c 9595      	1:	asr r25
 1473 063e 8795      		ror r24
 1474 0640 2A95      	2:	dec r18
 1475 0642 02F4      		brpl 1b
 1476 0644 80FF      		sbrs r24,0
 1477 0646 00C0      		rjmp .L102
 1478               	.L112:
 1479               	.LM228:
 1480 0648 8091 0000 		lds r24,robotData+40
 1481 064c 9091 0000 		lds r25,(robotData+40)+1
 1482 0650 00C0      		rjmp .L108
 1483               	.L102:
 1484               	.LM229:
 1485 0652 8091 0000 		lds r24,robotData+38
 1486 0656 9091 0000 		lds r25,(robotData+38)+1
 1487               	.L108:
 1488 065a E0E4      		ldi r30,lo8(2112)
 1489 065c F8E0      		ldi r31,hi8(2112)
 1490 065e 86A3      		std Z+38,r24
 1491 0660 97A3      		std Z+39,r25
 1492               	.LM230:
 1493 0662 4F5F      		subi r20,lo8(-(1))
 1494 0664 00C0      		rjmp .L110
 1495               	.L101:
 1496               	.LM231:
 1497 0666 F0E0      		ldi r31,lo8(0)
 1498 0668 E050      		subi r30,lo8(-(robotData))
 1499 066a F040      		sbci r31,hi8(-(robotData))
 1500 066c 84A5      		ldd r24,Z+44
 1501 066e 90E0      		ldi r25,lo8(0)
 1502 0670 2095      		com r18
 1503 0672 3095      		com r19
 1504 0674 2770      		andi r18,lo8(7)
 1505 0676 3070      		andi r19,hi8(7)
 1506 0678 00C0      		rjmp 2f
 1507 067a 9595      	1:	asr r25
 1508 067c 8795      		ror r24
 1509 067e 2A95      	2:	dec r18
 1510 0680 02F4      		brpl 1b
 1511 0682 80FF      		sbrs r24,0
 1512 0684 00C0      		rjmp .L104
 1513               	.L111:
 1514               	.LM232:
 1515 0686 8091 0000 		lds r24,robotData+38
 1516 068a 9091 0000 		lds r25,(robotData+38)+1
 1517 068e 00C0      		rjmp .L109
 1518               	.L104:
 1519               	.LM233:
 1520 0690 8091 0000 		lds r24,robotData+40
 1521 0694 9091 0000 		lds r25,(robotData+40)+1
 1522 0698 00C0      		rjmp .L109
 1523               	.L100:
 1524               	.LM234:
 1525 069a 8430      		cpi r24,lo8(4)
 1526 069c 01F4      		brne .L105
 1527               	.LM235:
 1528 069e E42F      		mov r30,r20
 1529 06a0 F0E0      		ldi r31,lo8(0)
 1530 06a2 E050      		subi r30,lo8(-(robotData))
 1531 06a4 F040      		sbci r31,hi8(-(robotData))
 1532 06a6 25A5      		ldd r18,Z+45
 1533 06a8 94A5      		ldd r25,Z+44
 1534 06aa 80E0      		ldi r24,lo8(0)
 1535 06ac 820F      		add r24,r18
 1536 06ae 911D      		adc r25,__zero_reg__
 1537 06b0 E0E4      		ldi r30,lo8(2112)
 1538 06b2 F8E0      		ldi r31,hi8(2112)
 1539 06b4 86A3      		std Z+38,r24
 1540 06b6 97A3      		std Z+39,r25
 1541               	.LM236:
 1542 06b8 4E5F      		subi r20,lo8(-(2))
 1543               	.L110:
 1544 06ba 4093 0000 		sts bitCounter,r20
 1545               	.L105:
 1546               	/* epilogue start */
 1547               	.LM237:
 1548 06be FF91      		pop r31
 1549 06c0 EF91      		pop r30
 1550 06c2 BF91      		pop r27
 1551 06c4 AF91      		pop r26
 1552 06c6 9F91      		pop r25
 1553 06c8 8F91      		pop r24
 1554 06ca 7F91      		pop r23
 1555 06cc 6F91      		pop r22
 1556 06ce 5F91      		pop r21
 1557 06d0 4F91      		pop r20
 1558 06d2 3F91      		pop r19
 1559 06d4 2F91      		pop r18
 1560 06d6 0F90      		pop r0
 1561 06d8 0FBE      		out __SREG__,r0
 1562 06da 0F90      		pop r0
 1563 06dc 1F90      		pop __zero_reg__
 1564 06de 1895      		reti
 1565               	.LFE34:
 1567               	.global	BT_default_reset
 1569               	BT_default_reset:
 1570               	.LFB36:
 1571               	.LM238:
 1572               	/* prologue: function */
 1573               	/* frame size = 0 */
 1574               	.LM239:
 1575 06e0 80E2      		ldi r24,lo8(32)
 1576 06e2 E0E6      		ldi r30,lo8(1632)
 1577 06e4 F6E0      		ldi r31,hi8(1632)
 1578 06e6 8583      		std Z+5,r24
 1579 06e8 84E6      		ldi r24,lo8(100)
 1580 06ea 90E0      		ldi r25,hi8(100)
 1581               	.LVL76:
 1582               	.LBB660:
 1583               	.LBB661:
 1584               	.LBB662:
 1585               	.LBB663:
 1586               	.LM240:
 1587 06ec 20E2      		ldi r18,lo8(800)
 1588 06ee 33E0      		ldi r19,hi8(800)
 1589               	.L116:
 1590 06f0 F901      		movw r30,r18
 1591               	.LVL77:
 1592               	/* #APP */
 1593               	 ;  105 "c:/winavr-20100110/lib/gcc/../../avr/include/util/delay_basic.h" 1
 1594 06f2 3197      		1: sbiw r30,1
 1595 06f4 01F4      		brne 1b
 1596               	 ;  0 "" 2
 1597               	/* #NOAPP */
 1598               	.LBE663:
 1599               	.LBE662:
 1600               	.LM241:
 1601 06f6 0197      		sbiw r24,1
 1602               	.LM242:
 1603 06f8 01F4      		brne .L116
 1604 06fa 20E0      		ldi r18,lo8(0)
 1605 06fc 30E0      		ldi r19,hi8(0)
 1606               	.LVL78:
 1607               	.LBE661:
 1608               	.LBE660:
 1609               	.LBB664:
 1610               	.LM243:
 1611 06fe A0E6      		ldi r26,lo8(1632)
 1612 0700 B6E0      		ldi r27,hi8(1632)
 1613 0702 60E2      		ldi r22,lo8(32)
 1614               	.LBB665:
 1615               	.LBB666:
 1616               	.LBB667:
 1617               	.LBB668:
 1618               	.LM244:
 1619 0704 40E2      		ldi r20,lo8(800)
 1620 0706 53E0      		ldi r21,hi8(800)
 1621               	.LVL79:
 1622               	.L118:
 1623               	.LBE668:
 1624               	.LBE667:
 1625               	.LBE666:
 1626               	.LBE665:
 1627               	.LM245:
 1628 0708 1796      		adiw r26,7
 1629 070a 6C93      		st X,r22
 1630 070c 1797      		sbiw r26,7
 1631 070e 84E6      		ldi r24,lo8(100)
 1632 0710 90E0      		ldi r25,hi8(100)
 1633               	.LVL80:
 1634               	.L117:
 1635               	.LBB672:
 1636               	.LBB671:
 1637               	.LBB670:
 1638               	.LBB669:
 1639               	.LM246:
 1640 0712 FA01      		movw r30,r20
 1641               	.LVL81:
 1642               	/* #APP */
 1643               	 ;  105 "c:/winavr-20100110/lib/gcc/../../avr/include/util/delay_basic.h" 1
 1644 0714 3197      		1: sbiw r30,1
 1645 0716 01F4      		brne 1b
 1646               	 ;  0 "" 2
 1647               	/* #NOAPP */
 1648               	.LBE669:
 1649               	.LBE670:
 1650               	.LM247:
 1651 0718 0197      		sbiw r24,1
 1652               	.LM248:
 1653 071a 01F4      		brne .L117
 1654               	.LBE671:
 1655               	.LBE672:
 1656               	.LM249:
 1657 071c 2F5F      		subi r18,lo8(-(1))
 1658 071e 3F4F      		sbci r19,hi8(-(1))
 1659 0720 2630      		cpi r18,6
 1660 0722 3105      		cpc r19,__zero_reg__
 1661 0724 01F4      		brne .L118
 1662               	.LBE664:
 1663               	.LM250:
 1664 0726 80E2      		ldi r24,lo8(32)
 1665               	.LVL82:
 1666 0728 E0E6      		ldi r30,lo8(1632)
 1667 072a F6E0      		ldi r31,hi8(1632)
 1668               	.LVL83:
 1669 072c 8683      		std Z+6,r24
 1670               	/* epilogue start */
 1671               	.LM251:
 1672 072e 0895      		ret
 1673               	.LFE36:
 1675               	.global	BT_reset
 1677               	BT_reset:
 1678               	.LFB37:
 1679               	.LM252:
 1680               	/* prologue: function */
 1681               	/* frame size = 0 */
 1682               	.LM253:
 1683 0730 82E0      		ldi r24,lo8(2)
 1684 0732 E0E4      		ldi r30,lo8(1600)
 1685 0734 F6E0      		ldi r31,hi8(1600)
 1686 0736 8683      		std Z+6,r24
 1687 0738 84E6      		ldi r24,lo8(100)
 1688 073a 90E0      		ldi r25,hi8(100)
 1689               	.LVL84:
 1690               	.LBB673:
 1691               	.LBB674:
 1692               	.LBB675:
 1693               	.LBB676:
 1694               	.LM254:
 1695 073c 20E2      		ldi r18,lo8(800)
 1696 073e 33E0      		ldi r19,hi8(800)
 1697               	.L124:
 1698 0740 F901      		movw r30,r18
 1699               	.LVL85:
 1700               	/* #APP */
 1701               	 ;  105 "c:/winavr-20100110/lib/gcc/../../avr/include/util/delay_basic.h" 1
 1702 0742 3197      		1: sbiw r30,1
 1703 0744 01F4      		brne 1b
 1704               	 ;  0 "" 2
 1705               	/* #NOAPP */
 1706               	.LBE676:
 1707               	.LBE675:
 1708               	.LM255:
 1709 0746 0197      		sbiw r24,1
 1710               	.LM256:
 1711 0748 01F4      		brne .L124
 1712               	.LBE674:
 1713               	.LBE673:
 1714               	.LM257:
 1715 074a 82E0      		ldi r24,lo8(2)
 1716               	.LVL86:
 1717 074c E0E4      		ldi r30,lo8(1600)
 1718 074e F6E0      		ldi r31,hi8(1600)
 1719               	.LVL87:
 1720 0750 8583      		std Z+5,r24
 1721               	/* epilogue start */
 1722               	.LM258:
 1723 0752 0895      		ret
 1724               	.LFE37:
 1726               	.global	init_BT
 1728               	init_BT:
 1729               	.LFB35:
 1730               	.LM259:
 1731 0754 FF92      		push r15
 1732 0756 0F93      		push r16
 1733 0758 1F93      		push r17
 1734               	/* prologue: function */
 1735               	/* frame size = 0 */
 1736               	.LM260:
 1737 075a 82E0      		ldi r24,lo8(2)
 1738 075c E0E4      		ldi r30,lo8(1600)
 1739 075e F6E0      		ldi r31,hi8(1600)
 1740 0760 8183      		std Z+1,r24
 1741               	.LM261:
 1742 0762 00E6      		ldi r16,lo8(1632)
 1743 0764 16E0      		ldi r17,hi8(1632)
 1744 0766 60E2      		ldi r22,lo8(32)
 1745 0768 F62E      		mov r15,r22
 1746 076a F801      		movw r30,r16
 1747 076c F182      		std Z+1,r15
 1748               	.LM262:
 1749 076e 0E94 0000 		call BT_reset
 1750               	.LM263:
 1751 0772 F801      		movw r30,r16
 1752 0774 F682      		std Z+6,r15
 1753               	.LM264:
 1754 0776 0E94 0000 		call init_bt_uart
 1755               	/* epilogue start */
 1756               	.LM265:
 1757 077a 1F91      		pop r17
 1758 077c 0F91      		pop r16
 1759 077e FF90      		pop r15
 1760 0780 0895      		ret
 1761               	.LFE35:
 1763               	.global	TWI_MasterInit
 1765               	TWI_MasterInit:
 1766               	.LFB38:
 1767               	.LM266:
 1768               	.LVL88:
 1769               	/* prologue: function */
 1770               	/* frame size = 0 */
 1771 0782 DC01      		movw r26,r24
 1772 0784 FB01      		movw r30,r22
 1773               	.LM267:
 1774 0786 6D93      		st X+,r22
 1775 0788 7C93      		st X,r23
 1776 078a 1197      		sbiw r26,1
 1777               	.LM268:
 1778 078c 4863      		ori r20,lo8(56)
 1779               	.LVL89:
 1780 078e 4183      		std Z+1,r20
 1781               	.LM269:
 1782 0790 ED91      		ld r30,X+
 1783 0792 FC91      		ld r31,X
 1784 0794 1197      		sbiw r26,1
 1785 0796 2583      		std Z+5,r18
 1786               	.LM270:
 1787 0798 ED91      		ld r30,X+
 1788 079a FC91      		ld r31,X
 1789 079c 81E0      		ldi r24,lo8(1)
 1790               	.LVL90:
 1791 079e 8483      		std Z+4,r24
 1792               	/* epilogue start */
 1793               	.LM271:
 1794 07a0 0895      		ret
 1795               	.LFE38:
 1797               	.global	TWI_MasterState
 1799               	TWI_MasterState:
 1800               	.LFB39:
 1801               	.LM272:
 1802               	.LVL91:
 1803               	/* prologue: function */
 1804               	/* frame size = 0 */
 1805 07a2 FC01      		movw r30,r24
 1806               	.LM273:
 1807 07a4 0190      		ld __tmp_reg__,Z+
 1808 07a6 F081      		ld r31,Z
 1809 07a8 E02D      		mov r30,__tmp_reg__
 1810 07aa 8481      		ldd r24,Z+4
 1811               	.LVL92:
 1812               	.LM274:
 1813 07ac 8370      		andi r24,lo8(3)
 1814               	/* epilogue start */
 1815 07ae 0895      		ret
 1816               	.LFE39:
 1818               	.global	TWI_MasterReady
 1820               	TWI_MasterReady:
 1821               	.LFB40:
 1822               	.LM275:
 1823               	.LVL93:
 1824               	/* prologue: function */
 1825               	/* frame size = 0 */
 1826 07b0 FC01      		movw r30,r24
 1827               	.LM276:
 1828 07b2 8785      		ldd r24,Z+15
 1829               	.LVL94:
 1830               	.LM277:
 1831 07b4 80E0      		ldi r24,lo8(0)
 1832               	/* epilogue start */
 1833 07b6 0895      		ret
 1834               	.LFE40:
 1836               	.global	TWI_MasterWriteRead
 1838               	TWI_MasterWriteRead:
 1839               	.LFB43:
 1840               	.LM278:
 1841               	.LVL95:
 1842 07b8 0F93      		push r16
 1843               	.LVL96:
 1844 07ba CF93      		push r28
 1845 07bc DF93      		push r29
 1846               	/* prologue: function */
 1847               	/* frame size = 0 */
 1848 07be DC01      		movw r26,r24
 1849 07c0 722F      		mov r23,r18
 1850               	.LM279:
 1851 07c2 2530      		cpi r18,lo8(5)
 1852 07c4 00F0      		brlo .+2
 1853 07c6 00C0      		rjmp .L136
 1854               	.LVL97:
 1855               	.LM280:
 1856 07c8 0530      		cpi r16,lo8(5)
 1857               	.LVL98:
 1858 07ca 00F0      		brlo .+2
 1859 07cc 00C0      		rjmp .L136
 1860               	.LM281:
 1861 07ce 1F96      		adiw r26,15
 1862 07d0 8C91      		ld r24,X
 1863 07d2 1F97      		sbiw r26,15
 1864 07d4 8823      		tst r24
 1865 07d6 01F4      		brne .L136
 1866               	.LM282:
 1867 07d8 81E0      		ldi r24,lo8(1)
 1868 07da 1F96      		adiw r26,15
 1869 07dc 8C93      		st X,r24
 1870 07de 1F97      		sbiw r26,15
 1871               	.LM283:
 1872 07e0 5096      		adiw r26,16
 1873 07e2 1C92      		st X,__zero_reg__
 1874 07e4 5097      		sbiw r26,16
 1875               	.LM284:
 1876 07e6 660F      		lsl r22
 1877               	.LVL99:
 1878 07e8 1296      		adiw r26,2
 1879 07ea 6C93      		st X,r22
 1880 07ec 1297      		sbiw r26,2
 1881 07ee EA01      		movw r28,r20
 1882               	.LVL100:
 1883 07f0 20E0      		ldi r18,lo8(0)
 1884 07f2 30E0      		ldi r19,hi8(0)
 1885               	.LVL101:
 1886 07f4 00C0      		rjmp .L137
 1887               	.L138:
 1888               	.LBB677:
 1889               	.LM285:
 1890 07f6 8991      		ld r24,Y+
 1891 07f8 FD01      		movw r30,r26
 1892 07fa E20F      		add r30,r18
 1893 07fc F31F      		adc r31,r19
 1894 07fe 8383      		std Z+3,r24
 1895 0800 2F5F      		subi r18,lo8(-(1))
 1896 0802 3F4F      		sbci r19,hi8(-(1))
 1897               	.L137:
 1898               	.LM286:
 1899 0804 2717      		cp r18,r23
 1900 0806 00F0      		brlo .L138
 1901               	.LBE677:
 1902               	.LM287:
 1903 0808 1B96      		adiw r26,11
 1904 080a 7C93      		st X,r23
 1905 080c 1B97      		sbiw r26,11
 1906               	.LM288:
 1907 080e 1C96      		adiw r26,12
 1908 0810 0C93      		st X,r16
 1909 0812 1C97      		sbiw r26,12
 1910               	.LM289:
 1911 0814 1D96      		adiw r26,13
 1912 0816 1C92      		st X,__zero_reg__
 1913 0818 1D97      		sbiw r26,13
 1914               	.LM290:
 1915 081a 1E96      		adiw r26,14
 1916 081c 1C92      		st X,__zero_reg__
 1917 081e 1E97      		sbiw r26,14
 1918               	.LM291:
 1919 0820 1B96      		adiw r26,11
 1920 0822 8C91      		ld r24,X
 1921 0824 1B97      		sbiw r26,11
 1922 0826 8823      		tst r24
 1923 0828 01F0      		breq .L139
 1924               	.LBB678:
 1925               	.LM292:
 1926 082a 1296      		adiw r26,2
 1927 082c 8C91      		ld r24,X
 1928 082e 1297      		sbiw r26,2
 1929 0830 8E7F      		andi r24,lo8(-2)
 1930 0832 00C0      		rjmp .L145
 1931               	.L139:
 1932               	.LBE678:
 1933               	.LM293:
 1934 0834 1C96      		adiw r26,12
 1935 0836 8C91      		ld r24,X
 1936 0838 1C97      		sbiw r26,12
 1937 083a 8823      		tst r24
 1938 083c 01F0      		breq .L144
 1939               	.L141:
 1940               	.LBB679:
 1941               	.LM294:
 1942 083e 1296      		adiw r26,2
 1943 0840 8C91      		ld r24,X
 1944 0842 1297      		sbiw r26,2
 1945 0844 8160      		ori r24,lo8(1)
 1946               	.L145:
 1947               	.LM295:
 1948 0846 ED91      		ld r30,X+
 1949 0848 FC91      		ld r31,X
 1950 084a 8683      		std Z+6,r24
 1951               	.L144:
 1952 084c 81E0      		ldi r24,lo8(1)
 1953 084e 00C0      		rjmp .L140
 1954               	.LVL102:
 1955               	.L136:
 1956 0850 80E0      		ldi r24,lo8(0)
 1957               	.LVL103:
 1958               	.L140:
 1959               	/* epilogue start */
 1960               	.LBE679:
 1961               	.LM296:
 1962 0852 DF91      		pop r29
 1963 0854 CF91      		pop r28
 1964 0856 0F91      		pop r16
 1965               	.LVL104:
 1966 0858 0895      		ret
 1967               	.LFE43:
 1969               	.global	TWI_MasterRead
 1971               	TWI_MasterRead:
 1972               	.LFB42:
 1973               	.LM297:
 1974               	.LVL105:
 1975 085a 0F93      		push r16
 1976               	/* prologue: function */
 1977               	/* frame size = 0 */
 1978 085c 042F      		mov r16,r20
 1979               	.LM298:
 1980 085e 40E0      		ldi r20,lo8(0)
 1981 0860 50E0      		ldi r21,hi8(0)
 1982               	.LVL106:
 1983 0862 20E0      		ldi r18,lo8(0)
 1984 0864 0E94 0000 		call TWI_MasterWriteRead
 1985               	.LVL107:
 1986               	/* epilogue start */
 1987               	.LM299:
 1988 0868 0F91      		pop r16
 1989               	.LVL108:
 1990 086a 0895      		ret
 1991               	.LFE42:
 1993               	.global	TWI_MasterWrite
 1995               	TWI_MasterWrite:
 1996               	.LFB41:
 1997               	.LM300:
 1998               	.LVL109:
 1999 086c 0F93      		push r16
 2000               	/* prologue: function */
 2001               	/* frame size = 0 */
 2002               	.LM301:
 2003 086e 00E0      		ldi r16,lo8(0)
 2004 0870 0E94 0000 		call TWI_MasterWriteRead
 2005               	.LVL110:
 2006               	/* epilogue start */
 2007               	.LM302:
 2008 0874 0F91      		pop r16
 2009 0876 0895      		ret
 2010               	.LFE41:
 2012               	.global	TWI_MasterArbitrationLostBusErrorHandler
 2014               	TWI_MasterArbitrationLostBusErrorHandler:
 2015               	.LFB45:
 2016               	.LM303:
 2017               	.LVL111:
 2018               	/* prologue: function */
 2019               	/* frame size = 0 */
 2020 0878 DC01      		movw r26,r24
 2021               	.LM304:
 2022 087a ED91      		ld r30,X+
 2023 087c FC91      		ld r31,X
 2024 087e 1197      		sbiw r26,1
 2025 0880 9481      		ldd r25,Z+4
 2026               	.LVL112:
 2027               	.LM305:
 2028 0882 92FF      		sbrs r25,2
 2029 0884 00C0      		rjmp .L151
 2030               	.LVL113:
 2031               	.LM306:
 2032 0886 84E0      		ldi r24,lo8(4)
 2033 0888 00C0      		rjmp .L154
 2034               	.LVL114:
 2035               	.L151:
 2036               	.LM307:
 2037 088a 83E0      		ldi r24,lo8(3)
 2038               	.L154:
 2039 088c 5096      		adiw r26,16
 2040 088e 8C93      		st X,r24
 2041 0890 5097      		sbiw r26,16
 2042               	.LM308:
 2043 0892 ED91      		ld r30,X+
 2044 0894 FC91      		ld r31,X
 2045 0896 1197      		sbiw r26,1
 2046 0898 9860      		ori r25,lo8(8)
 2047 089a 9483      		std Z+4,r25
 2048               	.LM309:
 2049 089c 1F96      		adiw r26,15
 2050 089e 1C92      		st X,__zero_reg__
 2051               	/* epilogue start */
 2052               	.LM310:
 2053 08a0 0895      		ret
 2054               	.LFE45:
 2056               	.global	TWI_MasterWriteHandler
 2058               	TWI_MasterWriteHandler:
 2059               	.LFB46:
 2060               	.LM311:
 2061               	.LVL115:
 2062 08a2 CF93      		push r28
 2063 08a4 DF93      		push r29
 2064               	/* prologue: function */
 2065               	/* frame size = 0 */
 2066 08a6 DC01      		movw r26,r24
 2067               	.LM312:
 2068 08a8 1B96      		adiw r26,11
 2069 08aa 9C91      		ld r25,X
 2070 08ac 1B97      		sbiw r26,11
 2071               	.LVL116:
 2072               	.LM313:
 2073 08ae 1C96      		adiw r26,12
 2074 08b0 2C91      		ld r18,X
 2075 08b2 1C97      		sbiw r26,12
 2076               	.LVL117:
 2077               	.LM314:
 2078 08b4 CD91      		ld r28,X+
 2079 08b6 DC91      		ld r29,X
 2080 08b8 1197      		sbiw r26,1
 2081 08ba 8C81      		ldd r24,Y+4
 2082               	.LVL118:
 2083 08bc 84FF      		sbrs r24,4
 2084 08be 00C0      		rjmp .L156
 2085               	.LM315:
 2086 08c0 83E0      		ldi r24,lo8(3)
 2087 08c2 8B83      		std Y+3,r24
 2088               	.LM316:
 2089 08c4 85E0      		ldi r24,lo8(5)
 2090 08c6 00C0      		rjmp .L161
 2091               	.L156:
 2092               	.LM317:
 2093 08c8 1D96      		adiw r26,13
 2094 08ca 8C91      		ld r24,X
 2095 08cc 1D97      		sbiw r26,13
 2096 08ce 8917      		cp r24,r25
 2097 08d0 00F4      		brsh .L158
 2098               	.LBB680:
 2099               	.LM318:
 2100 08d2 1D96      		adiw r26,13
 2101 08d4 8C91      		ld r24,X
 2102 08d6 1D97      		sbiw r26,13
 2103 08d8 FD01      		movw r30,r26
 2104 08da E80F      		add r30,r24
 2105 08dc F11D      		adc r31,__zero_reg__
 2106 08de 8381      		ldd r24,Z+3
 2107               	.LVL119:
 2108               	.LM319:
 2109 08e0 8F83      		std Y+7,r24
 2110               	.LM320:
 2111 08e2 1D96      		adiw r26,13
 2112 08e4 8C91      		ld r24,X
 2113 08e6 1D97      		sbiw r26,13
 2114               	.LVL120:
 2115 08e8 8F5F      		subi r24,lo8(-(1))
 2116 08ea 1D96      		adiw r26,13
 2117 08ec 8C93      		st X,r24
 2118 08ee 00C0      		rjmp .L160
 2119               	.L158:
 2120               	.LBE680:
 2121               	.LM321:
 2122 08f0 1E96      		adiw r26,14
 2123 08f2 8C91      		ld r24,X
 2124 08f4 1E97      		sbiw r26,14
 2125 08f6 8217      		cp r24,r18
 2126 08f8 00F4      		brsh .L159
 2127               	.LBB681:
 2128               	.LM322:
 2129 08fa 1296      		adiw r26,2
 2130 08fc 8C91      		ld r24,X
 2131 08fe 8160      		ori r24,lo8(1)
 2132               	.LM323:
 2133 0900 8E83      		std Y+6,r24
 2134 0902 00C0      		rjmp .L160
 2135               	.L159:
 2136               	.LBE681:
 2137               	.LM324:
 2138 0904 83E0      		ldi r24,lo8(3)
 2139 0906 8B83      		std Y+3,r24
 2140               	.LBB682:
 2141               	.LBB683:
 2142               	.LM325:
 2143 0908 81E0      		ldi r24,lo8(1)
 2144               	.L161:
 2145 090a 5096      		adiw r26,16
 2146 090c 8C93      		st X,r24
 2147 090e 5097      		sbiw r26,16
 2148               	.LM326:
 2149 0910 1F96      		adiw r26,15
 2150 0912 1C92      		st X,__zero_reg__
 2151               	.L160:
 2152               	/* epilogue start */
 2153               	.LBE683:
 2154               	.LBE682:
 2155               	.LM327:
 2156 0914 DF91      		pop r29
 2157 0916 CF91      		pop r28
 2158 0918 0895      		ret
 2159               	.LFE46:
 2161               	.global	TWI_MasterReadHandler
 2163               	TWI_MasterReadHandler:
 2164               	.LFB47:
 2165               	.LM328:
 2166               	.LVL121:
 2167               	/* prologue: function */
 2168               	/* frame size = 0 */
 2169 091a DC01      		movw r26,r24
 2170               	.LM329:
 2171 091c 1E96      		adiw r26,14
 2172 091e 8C91      		ld r24,X
 2173 0920 1E97      		sbiw r26,14
 2174               	.LVL122:
 2175 0922 ED91      		ld r30,X+
 2176 0924 FC91      		ld r31,X
 2177 0926 1197      		sbiw r26,1
 2178 0928 8430      		cpi r24,lo8(4)
 2179 092a 00F4      		brsh .L163
 2180               	.LBB684:
 2181               	.LM330:
 2182 092c 9781      		ldd r25,Z+7
 2183               	.LVL123:
 2184               	.LM331:
 2185 092e 1E96      		adiw r26,14
 2186 0930 8C91      		ld r24,X
 2187 0932 1E97      		sbiw r26,14
 2188 0934 FD01      		movw r30,r26
 2189 0936 E80F      		add r30,r24
 2190 0938 F11D      		adc r31,__zero_reg__
 2191 093a 9783      		std Z+7,r25
 2192               	.LM332:
 2193 093c 1E96      		adiw r26,14
 2194 093e 8C91      		ld r24,X
 2195 0940 1E97      		sbiw r26,14
 2196 0942 8F5F      		subi r24,lo8(-(1))
 2197 0944 1E96      		adiw r26,14
 2198 0946 8C93      		st X,r24
 2199 0948 1E97      		sbiw r26,14
 2200 094a 00C0      		rjmp .L164
 2201               	.LVL124:
 2202               	.L163:
 2203               	.LBE684:
 2204               	.LM333:
 2205 094c 83E0      		ldi r24,lo8(3)
 2206 094e 8383      		std Z+3,r24
 2207               	.LBB685:
 2208               	.LBB686:
 2209               	.LM334:
 2210 0950 82E0      		ldi r24,lo8(2)
 2211 0952 5096      		adiw r26,16
 2212 0954 8C93      		st X,r24
 2213 0956 5097      		sbiw r26,16
 2214               	.LM335:
 2215 0958 1F96      		adiw r26,15
 2216 095a 1C92      		st X,__zero_reg__
 2217 095c 1F97      		sbiw r26,15
 2218               	.LVL125:
 2219               	.L164:
 2220               	.LBE686:
 2221               	.LBE685:
 2222               	.LM336:
 2223 095e 1C96      		adiw r26,12
 2224 0960 9C91      		ld r25,X
 2225 0962 1C97      		sbiw r26,12
 2226               	.LVL126:
 2227               	.LM337:
 2228 0964 1E96      		adiw r26,14
 2229 0966 8C91      		ld r24,X
 2230 0968 1E97      		sbiw r26,14
 2231 096a ED91      		ld r30,X+
 2232 096c FC91      		ld r31,X
 2233 096e 1197      		sbiw r26,1
 2234 0970 8917      		cp r24,r25
 2235 0972 00F4      		brsh .L165
 2236               	.LM338:
 2237 0974 82E0      		ldi r24,lo8(2)
 2238 0976 8383      		std Z+3,r24
 2239 0978 0895      		ret
 2240               	.L165:
 2241               	.LM339:
 2242 097a 87E0      		ldi r24,lo8(7)
 2243 097c 8383      		std Z+3,r24
 2244               	.LBB687:
 2245               	.LBB688:
 2246               	.LM340:
 2247 097e 81E0      		ldi r24,lo8(1)
 2248 0980 5096      		adiw r26,16
 2249 0982 8C93      		st X,r24
 2250 0984 5097      		sbiw r26,16
 2251               	.LM341:
 2252 0986 1F96      		adiw r26,15
 2253 0988 1C92      		st X,__zero_reg__
 2254 098a 0895      		ret
 2255               	.LBE688:
 2256               	.LBE687:
 2257               	.LFE47:
 2259               	.global	TWI_MasterInterruptHandler
 2261               	TWI_MasterInterruptHandler:
 2262               	.LFB44:
 2263               	.LM342:
 2264               	.LVL127:
 2265               	/* prologue: function */
 2266               	/* frame size = 0 */
 2267 098c DC01      		movw r26,r24
 2268               	.LM343:
 2269 098e ED91      		ld r30,X+
 2270 0990 FC91      		ld r31,X
 2271 0992 1197      		sbiw r26,1
 2272 0994 4481      		ldd r20,Z+4
 2273               	.LVL128:
 2274               	.LM344:
 2275 0996 242F      		mov r18,r20
 2276 0998 30E0      		ldi r19,lo8(0)
 2277 099a C901      		movw r24,r18
 2278               	.LVL129:
 2279 099c 8C70      		andi r24,lo8(12)
 2280 099e 9070      		andi r25,hi8(12)
 2281 09a0 892B      		or r24,r25
 2282 09a2 01F0      		breq .L169
 2283               	.LM345:
 2284 09a4 CD01      		movw r24,r26
 2285 09a6 0E94 0000 		call TWI_MasterArbitrationLostBusErrorHandler
 2286               	.LVL130:
 2287 09aa 0895      		ret
 2288               	.LVL131:
 2289               	.L169:
 2290               	.LM346:
 2291 09ac 46FF      		sbrs r20,6
 2292 09ae 00C0      		rjmp .L171
 2293               	.LVL132:
 2294               	.LM347:
 2295 09b0 CD01      		movw r24,r26
 2296 09b2 0E94 0000 		call TWI_MasterWriteHandler
 2297               	.LVL133:
 2298 09b6 0895      		ret
 2299               	.LVL134:
 2300               	.L171:
 2301               	.LM348:
 2302 09b8 47FF      		sbrs r20,7
 2303 09ba 00C0      		rjmp .L172
 2304               	.LVL135:
 2305               	.LM349:
 2306 09bc CD01      		movw r24,r26
 2307 09be 0E94 0000 		call TWI_MasterReadHandler
 2308               	.LVL136:
 2309 09c2 0895      		ret
 2310               	.LVL137:
 2311               	.L172:
 2312               	.LBB689:
 2313               	.LBB690:
 2314               	.LM350:
 2315 09c4 86E0      		ldi r24,lo8(6)
 2316 09c6 5096      		adiw r26,16
 2317 09c8 8C93      		st X,r24
 2318 09ca 5097      		sbiw r26,16
 2319               	.LM351:
 2320 09cc 1F96      		adiw r26,15
 2321 09ce 1C92      		st X,__zero_reg__
 2322 09d0 0895      		ret
 2323               	.LBE690:
 2324               	.LBE689:
 2325               	.LFE44:
 2327               	.global	TWI_MasterTransactionFinished
 2329               	TWI_MasterTransactionFinished:
 2330               	.LFB48:
 2331               	.LM352:
 2332               	.LVL138:
 2333               	/* prologue: function */
 2334               	/* frame size = 0 */
 2335 09d2 FC01      		movw r30,r24
 2336               	.LM353:
 2337 09d4 608B      		std Z+16,r22
 2338               	.LM354:
 2339 09d6 1786      		std Z+15,__zero_reg__
 2340               	/* epilogue start */
 2341               	.LM355:
 2342 09d8 0895      		ret
 2343               	.LFE48:
 2345               	.global	getAccelData
 2347               	getAccelData:
 2348               	.LFB49:
 2349               	.LM356:
 2350               	/* prologue: function */
 2351               	/* frame size = 0 */
 2352               	.LM357:
 2353 09da 6091 0000 		lds r22,_acc
 2354 09de 7091 0000 		lds r23,_acc+1
 2355               	.LM358:
 2356 09e2 8091 0000 		lds r24,_acc+2
 2357 09e6 9091 0000 		lds r25,_acc+3
 2358               	/* epilogue start */
 2359 09ea 0895      		ret
 2360               	.LFE49:
 2362               	.global	newAccelData
 2364               	newAccelData:
 2365               	.LFB50:
 2366               	.LM359:
 2367               	/* prologue: function */
 2368               	/* frame size = 0 */
 2369               	.LM360:
 2370 09ec 8091 0000 		lds r24,twiMaster+16
 2371 09f0 8130      		cpi r24,lo8(1)
 2372 09f2 01F0      		breq .L179
 2373 09f4 20E0      		ldi r18,lo8(0)
 2374 09f6 30E0      		ldi r19,hi8(0)
 2375 09f8 00C0      		rjmp .L180
 2376               	.L179:
 2377 09fa 8091 0000 		lds r24,twiMaster+15
 2378 09fe 90E0      		ldi r25,lo8(0)
 2379 0a00 8111      		cpse r24,__zero_reg__
 2380 0a02 91E0      		ldi r25,lo8(1)
 2381               	.L181:
 2382 0a04 81E0      		ldi r24,lo8(1)
 2383 0a06 9827      		eor r25,r24
 2384 0a08 292F      		mov r18,r25
 2385 0a0a 30E0      		ldi r19,lo8(0)
 2386               	.L180:
 2387               	.LM361:
 2388 0a0c C901      		movw r24,r18
 2389               	/* epilogue start */
 2390 0a0e 0895      		ret
 2391               	.LFE50:
 2393               	.global	updateAccel
 2395               	updateAccel:
 2396               	.LFB51:
 2397               	.LM362:
 2398 0a10 0F93      		push r16
 2399 0a12 DF93      		push r29
 2400 0a14 CF93      		push r28
 2401 0a16 0F92      		push __tmp_reg__
 2402 0a18 CDB7      		in r28,__SP_L__
 2403 0a1a DEB7      		in r29,__SP_H__
 2404               	/* prologue: function */
 2405               	/* frame size = 1 */
 2406               	.LM363:
 2407 0a1c 1982      		std Y+1,__zero_reg__
 2408               	.LVL139:
 2409               	.LM364:
 2410 0a1e 80E0      		ldi r24,lo8(twiMaster)
 2411 0a20 90E0      		ldi r25,hi8(twiMaster)
 2412 0a22 6CE4      		ldi r22,lo8(76)
 2413 0a24 AE01      		movw r20,r28
 2414 0a26 4F5F      		subi r20,lo8(-(1))
 2415 0a28 5F4F      		sbci r21,hi8(-(1))
 2416 0a2a 21E0      		ldi r18,lo8(1)
 2417 0a2c 04E0      		ldi r16,lo8(4)
 2418 0a2e 0E94 0000 		call TWI_MasterWriteRead
 2419               	.L184:
 2420               	.LM365:
 2421 0a32 8091 0000 		lds r24,twiMaster+15
 2422 0a36 8823      		tst r24
 2423 0a38 01F4      		brne .L184
 2424               	.LM366:
 2425 0a3a 8091 0000 		lds r24,twiMaster+7
 2426 0a3e 8093 0000 		sts _acc,r24
 2427               	.LM367:
 2428 0a42 8091 0000 		lds r24,twiMaster+8
 2429 0a46 8093 0000 		sts _acc+1,r24
 2430               	.LM368:
 2431 0a4a 8091 0000 		lds r24,twiMaster+9
 2432 0a4e 8093 0000 		sts _acc+2,r24
 2433               	.LM369:
 2434 0a52 8091 0000 		lds r24,twiMaster+10
 2435 0a56 8093 0000 		sts _acc+3,r24
 2436               	.LM370:
 2437 0a5a 1092 0000 		sts twiMaster+16,__zero_reg__
 2438               	/* epilogue start */
 2439               	.LM371:
 2440 0a5e 0F90      		pop __tmp_reg__
 2441 0a60 CF91      		pop r28
 2442 0a62 DF91      		pop r29
 2443 0a64 0F91      		pop r16
 2444 0a66 0895      		ret
 2445               	.LFE51:
 2447               	.global	initAccel
 2449               	initAccel:
 2450               	.LFB52:
 2451               	.LM372:
 2452 0a68 0F93      		push r16
 2453 0a6a DF93      		push r29
 2454 0a6c CF93      		push r28
 2455 0a6e 00D0      		rcall .
 2456 0a70 CDB7      		in r28,__SP_L__
 2457 0a72 DEB7      		in r29,__SP_H__
 2458               	/* prologue: function */
 2459               	/* frame size = 2 */
 2460               	.LM373:
 2461               	/* #APP */
 2462               	 ;  54 "accelerometer.c" 1
 2463 0a74 F894      		cli
 2464               	 ;  0 "" 2
 2465               	/* #NOAPP */
 2466               	.LBB691:
 2467               	.LBB692:
 2468               	.LM374:
 2469 0a76 E0EA      		ldi r30,lo8(1184)
 2470 0a78 F4E0      		ldi r31,hi8(1184)
 2471 0a7a E093 0000 		sts twiMaster,r30
 2472 0a7e F093 0000 		sts (twiMaster)+1,r31
 2473               	.LM375:
 2474 0a82 88E7      		ldi r24,lo8(120)
 2475 0a84 8183      		std Z+1,r24
 2476               	.LM376:
 2477 0a86 8BE9      		ldi r24,lo8(-101)
 2478 0a88 8583      		std Z+5,r24
 2479               	.LM377:
 2480 0a8a 81E0      		ldi r24,lo8(1)
 2481 0a8c 8483      		std Z+4,r24
 2482               	.LBE692:
 2483               	.LBE691:
 2484               	.LM378:
 2485 0a8e 8091 A200 		lds r24,162
 2486 0a92 8160      		ori r24,lo8(1)
 2487 0a94 E0EA      		ldi r30,lo8(160)
 2488 0a96 F0E0      		ldi r31,hi8(160)
 2489 0a98 8283      		std Z+2,r24
 2490               	.LM379:
 2491               	/* #APP */
 2492               	 ;  64 "accelerometer.c" 1
 2493 0a9a 7894      		sei
 2494               	 ;  0 "" 2
 2495               	.LM380:
 2496               	/* #NOAPP */
 2497 0a9c 87E0      		ldi r24,lo8(7)
 2498 0a9e 8983      		std Y+1,r24
 2499               	.LM381:
 2500 0aa0 80E5      		ldi r24,lo8(80)
 2501 0aa2 8A83      		std Y+2,r24
 2502               	.LM382:
 2503 0aa4 80E0      		ldi r24,lo8(twiMaster)
 2504 0aa6 90E0      		ldi r25,hi8(twiMaster)
 2505 0aa8 6CE4      		ldi r22,lo8(76)
 2506 0aaa AE01      		movw r20,r28
 2507 0aac 4F5F      		subi r20,lo8(-(1))
 2508 0aae 5F4F      		sbci r21,hi8(-(1))
 2509 0ab0 22E0      		ldi r18,lo8(2)
 2510 0ab2 00E0      		ldi r16,lo8(0)
 2511 0ab4 0E94 0000 		call TWI_MasterWriteRead
 2512               	.L188:
 2513               	.LM383:
 2514 0ab8 8091 0000 		lds r24,twiMaster+15
 2515 0abc 8823      		tst r24
 2516 0abe 01F4      		brne .L188
 2517               	.LM384:
 2518 0ac0 85E0      		ldi r24,lo8(5)
 2519 0ac2 8983      		std Y+1,r24
 2520               	.LM385:
 2521 0ac4 1A82      		std Y+2,__zero_reg__
 2522               	.LM386:
 2523 0ac6 80E0      		ldi r24,lo8(twiMaster)
 2524 0ac8 90E0      		ldi r25,hi8(twiMaster)
 2525 0aca 6CE4      		ldi r22,lo8(76)
 2526 0acc AE01      		movw r20,r28
 2527 0ace 4F5F      		subi r20,lo8(-(1))
 2528 0ad0 5F4F      		sbci r21,hi8(-(1))
 2529 0ad2 22E0      		ldi r18,lo8(2)
 2530 0ad4 00E0      		ldi r16,lo8(0)
 2531 0ad6 0E94 0000 		call TWI_MasterWriteRead
 2532               	.L189:
 2533               	.LM387:
 2534 0ada 8091 0000 		lds r24,twiMaster+15
 2535 0ade 8823      		tst r24
 2536 0ae0 01F4      		brne .L189
 2537               	.LM388:
 2538 0ae2 86E0      		ldi r24,lo8(6)
 2539 0ae4 8983      		std Y+1,r24
 2540               	.LM389:
 2541 0ae6 84EE      		ldi r24,lo8(-28)
 2542 0ae8 8A83      		std Y+2,r24
 2543               	.LM390:
 2544 0aea 80E0      		ldi r24,lo8(twiMaster)
 2545 0aec 90E0      		ldi r25,hi8(twiMaster)
 2546 0aee 6CE4      		ldi r22,lo8(76)
 2547 0af0 AE01      		movw r20,r28
 2548 0af2 4F5F      		subi r20,lo8(-(1))
 2549 0af4 5F4F      		sbci r21,hi8(-(1))
 2550 0af6 22E0      		ldi r18,lo8(2)
 2551 0af8 00E0      		ldi r16,lo8(0)
 2552 0afa 0E94 0000 		call TWI_MasterWriteRead
 2553               	.L190:
 2554               	.LM391:
 2555 0afe 8091 0000 		lds r24,twiMaster+15
 2556 0b02 8823      		tst r24
 2557 0b04 01F4      		brne .L190
 2558               	.LM392:
 2559 0b06 88E0      		ldi r24,lo8(8)
 2560 0b08 8983      		std Y+1,r24
 2561               	.LM393:
 2562 0b0a 80EE      		ldi r24,lo8(-32)
 2563 0b0c 8A83      		std Y+2,r24
 2564               	.LM394:
 2565 0b0e 80E0      		ldi r24,lo8(twiMaster)
 2566 0b10 90E0      		ldi r25,hi8(twiMaster)
 2567 0b12 6CE4      		ldi r22,lo8(76)
 2568 0b14 AE01      		movw r20,r28
 2569 0b16 4F5F      		subi r20,lo8(-(1))
 2570 0b18 5F4F      		sbci r21,hi8(-(1))
 2571 0b1a 22E0      		ldi r18,lo8(2)
 2572 0b1c 00E0      		ldi r16,lo8(0)
 2573 0b1e 0E94 0000 		call TWI_MasterWriteRead
 2574               	.L191:
 2575               	.LM395:
 2576 0b22 8091 0000 		lds r24,twiMaster+15
 2577 0b26 8823      		tst r24
 2578 0b28 01F4      		brne .L191
 2579               	.LM396:
 2580 0b2a 89E0      		ldi r24,lo8(9)
 2581 0b2c 8983      		std Y+1,r24
 2582               	.LM397:
 2583 0b2e 88E0      		ldi r24,lo8(8)
 2584 0b30 8A83      		std Y+2,r24
 2585               	.LM398:
 2586 0b32 80E0      		ldi r24,lo8(twiMaster)
 2587 0b34 90E0      		ldi r25,hi8(twiMaster)
 2588 0b36 6CE4      		ldi r22,lo8(76)
 2589 0b38 AE01      		movw r20,r28
 2590 0b3a 4F5F      		subi r20,lo8(-(1))
 2591 0b3c 5F4F      		sbci r21,hi8(-(1))
 2592 0b3e 22E0      		ldi r18,lo8(2)
 2593 0b40 00E0      		ldi r16,lo8(0)
 2594 0b42 0E94 0000 		call TWI_MasterWriteRead
 2595               	.L192:
 2596               	.LM399:
 2597 0b46 8091 0000 		lds r24,twiMaster+15
 2598 0b4a 8823      		tst r24
 2599 0b4c 01F4      		brne .L192
 2600               	.LM400:
 2601 0b4e 8AE0      		ldi r24,lo8(10)
 2602 0b50 8983      		std Y+1,r24
 2603               	.LM401:
 2604 0b52 80E1      		ldi r24,lo8(16)
 2605 0b54 8A83      		std Y+2,r24
 2606               	.LM402:
 2607 0b56 80E0      		ldi r24,lo8(twiMaster)
 2608 0b58 90E0      		ldi r25,hi8(twiMaster)
 2609 0b5a 6CE4      		ldi r22,lo8(76)
 2610 0b5c AE01      		movw r20,r28
 2611 0b5e 4F5F      		subi r20,lo8(-(1))
 2612 0b60 5F4F      		sbci r21,hi8(-(1))
 2613 0b62 22E0      		ldi r18,lo8(2)
 2614 0b64 00E0      		ldi r16,lo8(0)
 2615 0b66 0E94 0000 		call TWI_MasterWriteRead
 2616               	.L193:
 2617               	.LM403:
 2618 0b6a 8091 0000 		lds r24,twiMaster+15
 2619 0b6e 8823      		tst r24
 2620 0b70 01F4      		brne .L193
 2621               	.LM404:
 2622 0b72 87E0      		ldi r24,lo8(7)
 2623 0b74 8983      		std Y+1,r24
 2624               	.LM405:
 2625 0b76 81E5      		ldi r24,lo8(81)
 2626 0b78 8A83      		std Y+2,r24
 2627               	.LM406:
 2628 0b7a 80E0      		ldi r24,lo8(twiMaster)
 2629 0b7c 90E0      		ldi r25,hi8(twiMaster)
 2630 0b7e 6CE4      		ldi r22,lo8(76)
 2631 0b80 AE01      		movw r20,r28
 2632 0b82 4F5F      		subi r20,lo8(-(1))
 2633 0b84 5F4F      		sbci r21,hi8(-(1))
 2634 0b86 22E0      		ldi r18,lo8(2)
 2635 0b88 00E0      		ldi r16,lo8(0)
 2636 0b8a 0E94 0000 		call TWI_MasterWriteRead
 2637               	.L194:
 2638               	.LM407:
 2639 0b8e 8091 0000 		lds r24,twiMaster+15
 2640 0b92 8823      		tst r24
 2641 0b94 01F4      		brne .L194
 2642               	/* epilogue start */
 2643               	.LM408:
 2644 0b96 0F90      		pop __tmp_reg__
 2645 0b98 0F90      		pop __tmp_reg__
 2646 0b9a CF91      		pop r28
 2647 0b9c DF91      		pop r29
 2648 0b9e 0F91      		pop r16
 2649 0ba0 0895      		ret
 2650               	.LFE52:
 2652               	.global	__vector_46
 2654               	__vector_46:
 2655               	.LFB53:
 2656               	.LM409:
 2657 0ba2 1F92      		push __zero_reg__
 2658 0ba4 0F92      		push r0
 2659 0ba6 0FB6      		in r0,__SREG__
 2660 0ba8 0F92      		push r0
 2661 0baa 1124      		clr __zero_reg__
 2662 0bac 2F93      		push r18
 2663 0bae 3F93      		push r19
 2664 0bb0 4F93      		push r20
 2665 0bb2 5F93      		push r21
 2666 0bb4 6F93      		push r22
 2667 0bb6 7F93      		push r23
 2668 0bb8 8F93      		push r24
 2669 0bba 9F93      		push r25
 2670 0bbc AF93      		push r26
 2671 0bbe BF93      		push r27
 2672 0bc0 EF93      		push r30
 2673 0bc2 FF93      		push r31
 2674               	/* prologue: Signal */
 2675               	/* frame size = 0 */
 2676               	.LM410:
 2677 0bc4 80E0      		ldi r24,lo8(twiMaster)
 2678 0bc6 90E0      		ldi r25,hi8(twiMaster)
 2679 0bc8 0E94 0000 		call TWI_MasterInterruptHandler
 2680               	/* epilogue start */
 2681               	.LM411:
 2682 0bcc FF91      		pop r31
 2683 0bce EF91      		pop r30
 2684 0bd0 BF91      		pop r27
 2685 0bd2 AF91      		pop r26
 2686 0bd4 9F91      		pop r25
 2687 0bd6 8F91      		pop r24
 2688 0bd8 7F91      		pop r23
 2689 0bda 6F91      		pop r22
 2690 0bdc 5F91      		pop r21
 2691 0bde 4F91      		pop r20
 2692 0be0 3F91      		pop r19
 2693 0be2 2F91      		pop r18
 2694 0be4 0F90      		pop r0
 2695 0be6 0FBE      		out __SREG__,r0
 2696 0be8 0F90      		pop r0
 2697 0bea 1F90      		pop __zero_reg__
 2698 0bec 1895      		reti
 2699               	.LFE53:
 2701               	.global	init_dac
 2703               	init_dac:
 2704               	.LFB54:
 2705               	.LM412:
 2706               	/* prologue: function */
 2707               	/* frame size = 0 */
 2708               	.LM413:
 2709 0bee E0E2      		ldi r30,lo8(800)
 2710 0bf0 F3E0      		ldi r31,hi8(800)
 2711 0bf2 80E4      		ldi r24,lo8(64)
 2712 0bf4 8183      		std Z+1,r24
 2713               	.LM414:
 2714 0bf6 89E0      		ldi r24,lo8(9)
 2715 0bf8 8283      		std Z+2,r24
 2716               	.LM415:
 2717 0bfa 82E5      		ldi r24,lo8(82)
 2718 0bfc 8483      		std Z+4,r24
 2719               	.LM416:
 2720 0bfe 81E0      		ldi r24,lo8(1)
 2721 0c00 8093 2003 		sts 800,r24
 2722               	.LBB693:
 2723               	.LBB694:
 2724               	.LM417:
 2725 0c04 8091 2003 		lds r24,800
 2726 0c08 8460      		ori r24,lo8(4)
 2727 0c0a 8093 2003 		sts 800,r24
 2728               	.L206:
 2729               	.LM418:
 2730 0c0e 8091 2503 		lds r24,805
 2731 0c12 80FF      		sbrs r24,0
 2732 0c14 00C0      		rjmp .L206
 2733               	.LM419:
 2734 0c16 E0E2      		ldi r30,lo8(800)
 2735 0c18 F3E0      		ldi r31,hi8(800)
 2736 0c1a 118E      		std Z+25,__zero_reg__
 2737               	.LBE694:
 2738               	.LBE693:
 2739               	.LBB695:
 2740               	.LBB696:
 2741               	.LM420:
 2742 0c1c 8091 2003 		lds r24,800
 2743 0c20 8860      		ori r24,lo8(8)
 2744 0c22 8093 2003 		sts 800,r24
 2745               	.L207:
 2746               	.LM421:
 2747 0c26 8091 2503 		lds r24,805
 2748 0c2a 81FF      		sbrs r24,1
 2749 0c2c 00C0      		rjmp .L207
 2750               	.LM422:
 2751 0c2e E0E2      		ldi r30,lo8(800)
 2752 0c30 F3E0      		ldi r31,hi8(800)
 2753 0c32 138E      		std Z+27,__zero_reg__
 2754               	/* epilogue start */
 2755               	.LBE696:
 2756               	.LBE695:
 2757               	.LM423:
 2758 0c34 0895      		ret
 2759               	.LFE54:
 2761               	.global	set_dac0
 2763               	set_dac0:
 2764               	.LFB55:
 2765               	.LM424:
 2766               	.LVL140:
 2767               	/* prologue: function */
 2768               	/* frame size = 0 */
 2769 0c36 982F      		mov r25,r24
 2770               	.LM425:
 2771 0c38 8091 2003 		lds r24,800
 2772               	.LVL141:
 2773 0c3c 8460      		ori r24,lo8(4)
 2774 0c3e 8093 2003 		sts 800,r24
 2775               	.L212:
 2776               	.LM426:
 2777 0c42 8091 2503 		lds r24,805
 2778 0c46 80FF      		sbrs r24,0
 2779 0c48 00C0      		rjmp .L212
 2780               	.LM427:
 2781 0c4a E0E2      		ldi r30,lo8(800)
 2782 0c4c F3E0      		ldi r31,hi8(800)
 2783 0c4e 918F      		std Z+25,r25
 2784               	/* epilogue start */
 2785               	.LM428:
 2786 0c50 0895      		ret
 2787               	.LFE55:
 2789               	.global	set_dac1
 2791               	set_dac1:
 2792               	.LFB56:
 2793               	.LM429:
 2794               	.LVL142:
 2795               	/* prologue: function */
 2796               	/* frame size = 0 */
 2797 0c52 982F      		mov r25,r24
 2798               	.LM430:
 2799 0c54 8091 2003 		lds r24,800
 2800               	.LVL143:
 2801 0c58 8860      		ori r24,lo8(8)
 2802 0c5a 8093 2003 		sts 800,r24
 2803               	.L216:
 2804               	.LM431:
 2805 0c5e 8091 2503 		lds r24,805
 2806 0c62 81FF      		sbrs r24,1
 2807 0c64 00C0      		rjmp .L216
 2808               	.LM432:
 2809 0c66 E0E2      		ldi r30,lo8(800)
 2810 0c68 F3E0      		ldi r31,hi8(800)
 2811 0c6a 938F      		std Z+27,r25
 2812               	/* epilogue start */
 2813               	.LM433:
 2814 0c6c 0895      		ret
 2815               	.LFE56:
 2817               	.global	disable_dac0
 2819               	disable_dac0:
 2820               	.LFB57:
 2821               	.LM434:
 2822               	/* prologue: function */
 2823               	/* frame size = 0 */
 2824               	.LM435:
 2825 0c6e E0E2      		ldi r30,lo8(800)
 2826 0c70 F3E0      		ldi r31,hi8(800)
 2827 0c72 8081      		ld r24,Z
 2828 0c74 8B7F      		andi r24,lo8(-5)
 2829 0c76 8083      		st Z,r24
 2830               	/* epilogue start */
 2831               	.LM436:
 2832 0c78 0895      		ret
 2833               	.LFE57:
 2835               	.global	disable_dac1
 2837               	disable_dac1:
 2838               	.LFB58:
 2839               	.LM437:
 2840               	/* prologue: function */
 2841               	/* frame size = 0 */
 2842               	.LM438:
 2843 0c7a E0E2      		ldi r30,lo8(800)
 2844 0c7c F3E0      		ldi r31,hi8(800)
 2845 0c7e 8081      		ld r24,Z
 2846 0c80 877F      		andi r24,lo8(-9)
 2847 0c82 8083      		st Z,r24
 2848               	/* epilogue start */
 2849               	.LM439:
 2850 0c84 0895      		ret
 2851               	.LFE58:
 2853               	.global	init_buzzer
 2855               	init_buzzer:
 2856               	.LFB59:
 2857               	.LM440:
 2858               	/* prologue: function */
 2859               	/* frame size = 0 */
 2860               	.LM441:
 2861 0c86 E0E4      		ldi r30,lo8(2368)
 2862 0c88 F9E0      		ldi r31,hi8(2368)
 2863 0c8a 86E0      		ldi r24,lo8(6)
 2864 0c8c 8083      		st Z,r24
 2865               	.LM442:
 2866 0c8e 81E0      		ldi r24,lo8(1)
 2867 0c90 8183      		std Z+1,r24
 2868               	.LM443:
 2869 0c92 E0E6      		ldi r30,lo8(1632)
 2870 0c94 F6E0      		ldi r31,hi8(1632)
 2871 0c96 8181      		ldd r24,Z+1
 2872 0c98 8061      		ori r24,lo8(16)
 2873 0c9a 8183      		std Z+1,r24
 2874               	.LM444:
 2875 0c9c 8681      		ldd r24,Z+6
 2876 0c9e 8061      		ori r24,lo8(16)
 2877 0ca0 8683      		std Z+6,r24
 2878               	/* epilogue start */
 2879               	.LM445:
 2880 0ca2 0895      		ret
 2881               	.LFE59:
 2883               	.global	set_buzzer
 2885               	set_buzzer:
 2886               	.LFB60:
 2887               	.LM446:
 2888               	.LVL144:
 2889               	/* prologue: function */
 2890               	/* frame size = 0 */
 2891               	.LM447:
 2892 0ca4 E0E4      		ldi r30,lo8(2368)
 2893 0ca6 F9E0      		ldi r31,hi8(2368)
 2894 0ca8 2181      		ldd r18,Z+1
 2895 0caa 2061      		ori r18,lo8(16)
 2896 0cac 2183      		std Z+1,r18
 2897               	.LM448:
 2898               	/* #APP */
 2899               	 ;  20 "buzzer.c" 1
 2900 0cae F894      		cli
 2901               	 ;  0 "" 2
 2902               	.LM449:
 2903               	/* #NOAPP */
 2904 0cb0 E0E4      		ldi r30,lo8(2368)
 2905 0cb2 F9E0      		ldi r31,hi8(2368)
 2906 0cb4 80A7      		std Z+40,r24
 2907 0cb6 91A7      		std Z+41,r25
 2908               	.LVL145:
 2909               	.LM450:
 2910               	/* #APP */
 2911               	 ;  22 "buzzer.c" 1
 2912 0cb8 7894      		sei
 2913               	 ;  0 "" 2
 2914               	/* epilogue start */
 2915               	.LM451:
 2916               	/* #NOAPP */
 2917 0cba 0895      		ret
 2918               	.LFE60:
 2920               	.global	turn_off_buzzer
 2922               	turn_off_buzzer:
 2923               	.LFB61:
 2924               	.LM452:
 2925               	/* prologue: function */
 2926               	/* frame size = 0 */
 2927               	.LM453:
 2928 0cbc E0E4      		ldi r30,lo8(2368)
 2929 0cbe F9E0      		ldi r31,hi8(2368)
 2930 0cc0 8181      		ldd r24,Z+1
 2931 0cc2 8F7E      		andi r24,lo8(-17)
 2932 0cc4 8183      		std Z+1,r24
 2933               	.LM454:
 2934 0cc6 E0E6      		ldi r30,lo8(1632)
 2935 0cc8 F6E0      		ldi r31,hi8(1632)
 2936 0cca 8681      		ldd r24,Z+6
 2937 0ccc 8061      		ori r24,lo8(16)
 2938 0cce 8683      		std Z+6,r24
 2939               	/* epilogue start */
 2940               	.LM455:
 2941 0cd0 0895      		ret
 2942               	.LFE61:
 2944               	.global	set_pwm
 2946               	set_pwm:
 2947               	.LFB62:
 2948               	.LM456:
 2949               	/* prologue: function */
 2950               	/* frame size = 0 */
 2951               	.LM457:
 2952 0cd2 E0E0      		ldi r30,lo8(2560)
 2953 0cd4 FAE0      		ldi r31,hi8(2560)
 2954 0cd6 81E0      		ldi r24,lo8(1)
 2955 0cd8 8083      		st Z,r24
 2956               	.LM458:
 2957 0cda 83E0      		ldi r24,lo8(3)
 2958 0cdc 8183      		std Z+1,r24
 2959               	.LM459:
 2960 0cde 1382      		std Z+3,__zero_reg__
 2961               	.LM460:
 2962 0ce0 8091 0000 		lds r24,pwm_frequency
 2963 0ce4 9091 0000 		lds r25,(pwm_frequency)+1
 2964 0ce8 86AB      		std Z+54,r24
 2965 0cea 97AB      		std Z+55,r25
 2966               	/* epilogue start */
 2967               	.LM461:
 2968 0cec 0895      		ret
 2969               	.LFE62:
 2971               	.global	turn_off_pwm0
 2973               	turn_off_pwm0:
 2974               	.LFB63:
 2975               	.LM462:
 2976               	/* prologue: function */
 2977               	/* frame size = 0 */
 2978               	.LM463:
 2979 0cee E0E0      		ldi r30,lo8(2560)
 2980 0cf0 FAE0      		ldi r31,hi8(2560)
 2981 0cf2 8181      		ldd r24,Z+1
 2982 0cf4 8F7B      		andi r24,lo8(-65)
 2983 0cf6 8183      		std Z+1,r24
 2984               	/* epilogue start */
 2985               	.LM464:
 2986 0cf8 0895      		ret
 2987               	.LFE63:
 2989               	.global	turn_off_pwm1
 2991               	turn_off_pwm1:
 2992               	.LFB64:
 2993               	.LM465:
 2994               	/* prologue: function */
 2995               	/* frame size = 0 */
 2996               	.LM466:
 2997 0cfa E0E0      		ldi r30,lo8(2560)
 2998 0cfc FAE0      		ldi r31,hi8(2560)
 2999 0cfe 8181      		ldd r24,Z+1
 3000 0d00 8F77      		andi r24,lo8(127)
 3001 0d02 8183      		std Z+1,r24
 3002               	/* epilogue start */
 3003               	.LM467:
 3004 0d04 0895      		ret
 3005               	.LFE64:
 3007               	.global	set_pwm0
 3009               	set_pwm0:
 3010               	.LFB65:
 3011               	.LM468:
 3012               	.LVL146:
 3013               	/* prologue: function */
 3014               	/* frame size = 0 */
 3015               	.LM469:
 3016 0d06 A0E0      		ldi r26,lo8(2560)
 3017 0d08 BAE0      		ldi r27,hi8(2560)
 3018 0d0a 1196      		adiw r26,1
 3019 0d0c 2C91      		ld r18,X
 3020 0d0e 1197      		sbiw r26,1
 3021 0d10 2064      		ori r18,lo8(64)
 3022 0d12 1196      		adiw r26,1
 3023 0d14 2C93      		st X,r18
 3024 0d16 1197      		sbiw r26,1
 3025               	.LM470:
 3026 0d18 24E0      		ldi r18,lo8(4)
 3027 0d1a E0E8      		ldi r30,lo8(1664)
 3028 0d1c F6E0      		ldi r31,hi8(1664)
 3029 0d1e 2183      		std Z+1,r18
 3030               	.LM471:
 3031 0d20 9C96      		adiw r26,44
 3032 0d22 8D93      		st X+,r24
 3033 0d24 9C93      		st X,r25
 3034 0d26 9D97      		sbiw r26,44+1
 3035               	/* epilogue start */
 3036               	.LM472:
 3037 0d28 0895      		ret
 3038               	.LFE65:
 3040               	.global	set_pwm1
 3042               	set_pwm1:
 3043               	.LFB66:
 3044               	.LM473:
 3045               	.LVL147:
 3046               	/* prologue: function */
 3047               	/* frame size = 0 */
 3048               	.LM474:
 3049 0d2a A0E0      		ldi r26,lo8(2560)
 3050 0d2c BAE0      		ldi r27,hi8(2560)
 3051 0d2e 1196      		adiw r26,1
 3052 0d30 2C91      		ld r18,X
 3053 0d32 1197      		sbiw r26,1
 3054 0d34 2068      		ori r18,lo8(-128)
 3055 0d36 1196      		adiw r26,1
 3056 0d38 2C93      		st X,r18
 3057 0d3a 1197      		sbiw r26,1
 3058               	.LM475:
 3059 0d3c 28E0      		ldi r18,lo8(8)
 3060 0d3e E0E8      		ldi r30,lo8(1664)
 3061 0d40 F6E0      		ldi r31,hi8(1664)
 3062 0d42 2183      		std Z+1,r18
 3063               	.LM476:
 3064 0d44 9E96      		adiw r26,46
 3065 0d46 8D93      		st X+,r24
 3066 0d48 9C93      		st X,r25
 3067 0d4a 9F97      		sbiw r26,46+1
 3068               	/* epilogue start */
 3069               	.LM477:
 3070 0d4c 0895      		ret
 3071               	.LFE66:
 3073               	.global	set_output
 3075               	set_output:
 3076               	.LFB67:
 3077               	.LM478:
 3078               	.LVL148:
 3079               	/* prologue: function */
 3080               	/* frame size = 0 */
 3081               	.LM479:
 3082 0d4e 8433      		cpi r24,lo8(52)
 3083 0d50 01F0      		breq .L245
 3084 0d52 8533      		cpi r24,lo8(53)
 3085 0d54 00F4      		brsh .L251
 3086 0d56 8133      		cpi r24,lo8(49)
 3087 0d58 01F0      		breq .L242
 3088 0d5a 8233      		cpi r24,lo8(50)
 3089 0d5c 00F4      		brsh .L252
 3090 0d5e 8033      		cpi r24,lo8(48)
 3091 0d60 01F0      		breq .+2
 3092 0d62 00C0      		rjmp .L264
 3093 0d64 00C0      		rjmp .L277
 3094               	.L252:
 3095 0d66 8233      		cpi r24,lo8(50)
 3096 0d68 01F0      		breq .L243
 3097 0d6a 8333      		cpi r24,lo8(51)
 3098 0d6c 01F0      		breq .+2
 3099 0d6e 00C0      		rjmp .L264
 3100 0d70 00C0      		rjmp .L278
 3101               	.L251:
 3102 0d72 8733      		cpi r24,lo8(55)
 3103 0d74 01F0      		breq .L248
 3104 0d76 8833      		cpi r24,lo8(56)
 3105 0d78 00F4      		brsh .L253
 3106 0d7a 8533      		cpi r24,lo8(53)
 3107 0d7c 01F0      		breq .L246
 3108 0d7e 8633      		cpi r24,lo8(54)
 3109 0d80 01F0      		breq .+2
 3110 0d82 00C0      		rjmp .L264
 3111 0d84 00C0      		rjmp .L279
 3112               	.L253:
 3113 0d86 8833      		cpi r24,lo8(56)
 3114 0d88 01F0      		breq .L249
 3115 0d8a 8933      		cpi r24,lo8(57)
 3116 0d8c 01F0      		breq .+2
 3117 0d8e 00C0      		rjmp .L264
 3118 0d90 00C0      		rjmp .L280
 3119               	.L277:
 3120               	.LM480:
 3121 0d92 E0E0      		ldi r30,lo8(1536)
 3122 0d94 F6E0      		ldi r31,hi8(1536)
 3123 0d96 81E0      		ldi r24,lo8(1)
 3124               	.LVL149:
 3125 0d98 00C0      		rjmp .L267
 3126               	.LVL150:
 3127               	.L242:
 3128               	.LM481:
 3129 0d9a E0E0      		ldi r30,lo8(1536)
 3130 0d9c F6E0      		ldi r31,hi8(1536)
 3131 0d9e 82E0      		ldi r24,lo8(2)
 3132               	.LVL151:
 3133 0da0 00C0      		rjmp .L267
 3134               	.LVL152:
 3135               	.L243:
 3136               	.LM482:
 3137 0da2 E0E0      		ldi r30,lo8(1536)
 3138 0da4 F6E0      		ldi r31,hi8(1536)
 3139 0da6 00C0      		rjmp .L275
 3140               	.L278:
 3141               	.LM483:
 3142 0da8 E0E0      		ldi r30,lo8(1536)
 3143 0daa F6E0      		ldi r31,hi8(1536)
 3144 0dac 00C0      		rjmp .L276
 3145               	.L245:
 3146               	.LM484:
 3147 0dae E0E0      		ldi r30,lo8(1536)
 3148 0db0 F6E0      		ldi r31,hi8(1536)
 3149 0db2 80E1      		ldi r24,lo8(16)
 3150               	.LVL153:
 3151 0db4 00C0      		rjmp .L267
 3152               	.LVL154:
 3153               	.L246:
 3154               	.LM485:
 3155 0db6 E0E0      		ldi r30,lo8(1536)
 3156 0db8 F6E0      		ldi r31,hi8(1536)
 3157 0dba 80E2      		ldi r24,lo8(32)
 3158               	.LVL155:
 3159 0dbc 00C0      		rjmp .L267
 3160               	.LVL156:
 3161               	.L279:
 3162               	.LBB697:
 3163               	.LBB698:
 3164               	.LM486:
 3165 0dbe 8091 2003 		lds r24,800
 3166               	.LVL157:
 3167 0dc2 8B7F      		andi r24,lo8(-5)
 3168 0dc4 8093 2003 		sts 800,r24
 3169               	.LBE698:
 3170               	.LBE697:
 3171               	.LM487:
 3172 0dc8 E0E2      		ldi r30,lo8(1568)
 3173 0dca F6E0      		ldi r31,hi8(1568)
 3174 0dcc 00C0      		rjmp .L275
 3175               	.LVL158:
 3176               	.L248:
 3177               	.LBB699:
 3178               	.LBB700:
 3179               	.LM488:
 3180 0dce 8091 2003 		lds r24,800
 3181               	.LVL159:
 3182 0dd2 877F      		andi r24,lo8(-9)
 3183 0dd4 8093 2003 		sts 800,r24
 3184               	.LBE700:
 3185               	.LBE699:
 3186               	.LM489:
 3187 0dd8 E0E2      		ldi r30,lo8(1568)
 3188 0dda F6E0      		ldi r31,hi8(1568)
 3189               	.LVL160:
 3190               	.L276:
 3191 0ddc 88E0      		ldi r24,lo8(8)
 3192               	.LVL161:
 3193 0dde 00C0      		rjmp .L267
 3194               	.LVL162:
 3195               	.L249:
 3196               	.LBB701:
 3197               	.LBB702:
 3198               	.LM490:
 3199 0de0 8091 010A 		lds r24,2561
 3200               	.LVL163:
 3201 0de4 8F7B      		andi r24,lo8(-65)
 3202 0de6 E0E0      		ldi r30,lo8(2560)
 3203 0de8 FAE0      		ldi r31,hi8(2560)
 3204 0dea 8183      		std Z+1,r24
 3205               	.LBE702:
 3206               	.LBE701:
 3207               	.LM491:
 3208 0dec E0E8      		ldi r30,lo8(1664)
 3209 0dee F6E0      		ldi r31,hi8(1664)
 3210               	.LVL164:
 3211               	.L275:
 3212 0df0 84E0      		ldi r24,lo8(4)
 3213               	.LVL165:
 3214               	.L267:
 3215 0df2 8183      		std Z+1,r24
 3216               	.LM492:
 3217 0df4 6623      		tst r22
 3218 0df6 01F4      		brne .L265
 3219               	.L262:
 3220               	.LM493:
 3221 0df8 8683      		std Z+6,r24
 3222 0dfa 0895      		ret
 3223               	.LVL166:
 3224               	.L280:
 3225               	.LBB703:
 3226               	.LBB704:
 3227               	.LM494:
 3228 0dfc 8091 010A 		lds r24,2561
 3229               	.LVL167:
 3230 0e00 8F77      		andi r24,lo8(127)
 3231 0e02 E0E0      		ldi r30,lo8(2560)
 3232 0e04 FAE0      		ldi r31,hi8(2560)
 3233 0e06 8183      		std Z+1,r24
 3234               	.LBE704:
 3235               	.LBE703:
 3236               	.LM495:
 3237 0e08 E0E8      		ldi r30,lo8(1664)
 3238 0e0a F6E0      		ldi r31,hi8(1664)
 3239 0e0c 88E0      		ldi r24,lo8(8)
 3240 0e0e 8183      		std Z+1,r24
 3241               	.LM496:
 3242 0e10 6623      		tst r22
 3243 0e12 01F0      		breq .L263
 3244               	.L265:
 3245               	.LM497:
 3246 0e14 8583      		std Z+5,r24
 3247 0e16 0895      		ret
 3248               	.L263:
 3249               	.LM498:
 3250 0e18 8683      		std Z+6,r24
 3251               	.LVL168:
 3252               	.L264:
 3253 0e1a 0895      		ret
 3254               	.LFE67:
 3256               	.global	read_input
 3258               	read_input:
 3259               	.LFB68:
 3260               	.LM499:
 3261               	.LVL169:
 3262               	/* prologue: function */
 3263               	/* frame size = 0 */
 3264               	.LM500:
 3265 0e1c 8433      		cpi r24,lo8(52)
 3266 0e1e 01F4      		brne .+2
 3267 0e20 00C0      		rjmp .L287
 3268 0e22 8533      		cpi r24,lo8(53)
 3269 0e24 00F4      		brsh .L293
 3270 0e26 8133      		cpi r24,lo8(49)
 3271 0e28 01F0      		breq .L284
 3272 0e2a 8233      		cpi r24,lo8(50)
 3273 0e2c 00F4      		brsh .L294
 3274 0e2e 8033      		cpi r24,lo8(48)
 3275 0e30 01F4      		brne .L282
 3276 0e32 00C0      		rjmp .L300
 3277               	.L294:
 3278 0e34 8233      		cpi r24,lo8(50)
 3279 0e36 01F0      		breq .L285
 3280 0e38 8333      		cpi r24,lo8(51)
 3281 0e3a 01F4      		brne .L282
 3282 0e3c 00C0      		rjmp .L301
 3283               	.L293:
 3284 0e3e 8733      		cpi r24,lo8(55)
 3285 0e40 01F4      		brne .+2
 3286 0e42 00C0      		rjmp .L290
 3287 0e44 8833      		cpi r24,lo8(56)
 3288 0e46 00F4      		brsh .L295
 3289 0e48 8533      		cpi r24,lo8(53)
 3290 0e4a 01F0      		breq .L288
 3291 0e4c 8633      		cpi r24,lo8(54)
 3292 0e4e 01F4      		brne .L282
 3293 0e50 00C0      		rjmp .L302
 3294               	.L295:
 3295 0e52 8833      		cpi r24,lo8(56)
 3296 0e54 01F4      		brne .+2
 3297 0e56 00C0      		rjmp .L291
 3298 0e58 8933      		cpi r24,lo8(57)
 3299 0e5a 01F4      		brne .+2
 3300 0e5c 00C0      		rjmp .L292
 3301               	.L282:
 3302 0e5e 80ED      		ldi r24,lo8(-48)
 3303               	.LVL170:
 3304 0e60 0895      		ret
 3305               	.LVL171:
 3306               	.L300:
 3307               	.LM501:
 3308 0e62 81E0      		ldi r24,lo8(1)
 3309               	.LVL172:
 3310 0e64 E0E0      		ldi r30,lo8(1536)
 3311 0e66 F6E0      		ldi r31,hi8(1536)
 3312 0e68 8283      		std Z+2,r24
 3313               	.LM502:
 3314 0e6a 8091 0806 		lds r24,1544
 3315 0e6e 8170      		andi r24,lo8(1)
 3316 0e70 0895      		ret
 3317               	.LVL173:
 3318               	.L284:
 3319               	.LM503:
 3320 0e72 82E0      		ldi r24,lo8(2)
 3321               	.LVL174:
 3322 0e74 E0E0      		ldi r30,lo8(1536)
 3323 0e76 F6E0      		ldi r31,hi8(1536)
 3324 0e78 8283      		std Z+2,r24
 3325               	.LM504:
 3326 0e7a 8091 0806 		lds r24,1544
 3327 0e7e 90E0      		ldi r25,lo8(0)
 3328 0e80 8270      		andi r24,lo8(2)
 3329 0e82 9070      		andi r25,hi8(2)
 3330 0e84 9595      		asr r25
 3331 0e86 8795      		ror r24
 3332 0e88 0895      		ret
 3333               	.LVL175:
 3334               	.L285:
 3335               	.LM505:
 3336 0e8a 84E0      		ldi r24,lo8(4)
 3337               	.LVL176:
 3338 0e8c E0E0      		ldi r30,lo8(1536)
 3339 0e8e F6E0      		ldi r31,hi8(1536)
 3340 0e90 8283      		std Z+2,r24
 3341               	.LM506:
 3342 0e92 8091 0806 		lds r24,1544
 3343 0e96 00C0      		rjmp .L298
 3344               	.LVL177:
 3345               	.L301:
 3346               	.LM507:
 3347 0e98 88E0      		ldi r24,lo8(8)
 3348               	.LVL178:
 3349 0e9a E0E0      		ldi r30,lo8(1536)
 3350 0e9c F6E0      		ldi r31,hi8(1536)
 3351 0e9e 8283      		std Z+2,r24
 3352               	.LM508:
 3353 0ea0 8091 0806 		lds r24,1544
 3354 0ea4 00C0      		rjmp .L299
 3355               	.LVL179:
 3356               	.L287:
 3357               	.LM509:
 3358 0ea6 80E1      		ldi r24,lo8(16)
 3359               	.LVL180:
 3360 0ea8 E0E0      		ldi r30,lo8(1536)
 3361 0eaa F6E0      		ldi r31,hi8(1536)
 3362 0eac 8283      		std Z+2,r24
 3363               	.LM510:
 3364 0eae 8091 0806 		lds r24,1544
 3365 0eb2 90E0      		ldi r25,lo8(0)
 3366 0eb4 8071      		andi r24,lo8(16)
 3367 0eb6 9070      		andi r25,hi8(16)
 3368 0eb8 B4E0      		ldi r27,4
 3369 0eba 9595      	1:	asr r25
 3370 0ebc 8795      		ror r24
 3371 0ebe BA95      		dec r27
 3372 0ec0 01F4      		brne 1b
 3373 0ec2 0895      		ret
 3374               	.LVL181:
 3375               	.L288:
 3376               	.LM511:
 3377 0ec4 80E2      		ldi r24,lo8(32)
 3378               	.LVL182:
 3379 0ec6 E0E0      		ldi r30,lo8(1536)
 3380 0ec8 F6E0      		ldi r31,hi8(1536)
 3381 0eca 8283      		std Z+2,r24
 3382               	.LM512:
 3383 0ecc 8091 0806 		lds r24,1544
 3384 0ed0 90E0      		ldi r25,lo8(0)
 3385 0ed2 8072      		andi r24,lo8(32)
 3386 0ed4 9070      		andi r25,hi8(32)
 3387 0ed6 A5E0      		ldi r26,5
 3388 0ed8 9595      	1:	asr r25
 3389 0eda 8795      		ror r24
 3390 0edc AA95      		dec r26
 3391 0ede 01F4      		brne 1b
 3392 0ee0 0895      		ret
 3393               	.LVL183:
 3394               	.L302:
 3395               	.LBB705:
 3396               	.LBB706:
 3397               	.LM513:
 3398 0ee2 8091 2003 		lds r24,800
 3399               	.LVL184:
 3400 0ee6 8B7F      		andi r24,lo8(-5)
 3401 0ee8 8093 2003 		sts 800,r24
 3402               	.LBE706:
 3403               	.LBE705:
 3404               	.LM514:
 3405 0eec 84E0      		ldi r24,lo8(4)
 3406 0eee E0E2      		ldi r30,lo8(1568)
 3407 0ef0 F6E0      		ldi r31,hi8(1568)
 3408 0ef2 8283      		std Z+2,r24
 3409               	.LM515:
 3410 0ef4 8091 2806 		lds r24,1576
 3411 0ef8 00C0      		rjmp .L298
 3412               	.LVL185:
 3413               	.L290:
 3414               	.LBB707:
 3415               	.LBB708:
 3416               	.LM516:
 3417 0efa 8091 2003 		lds r24,800
 3418               	.LVL186:
 3419 0efe 877F      		andi r24,lo8(-9)
 3420 0f00 8093 2003 		sts 800,r24
 3421               	.LBE708:
 3422               	.LBE707:
 3423               	.LM517:
 3424 0f04 88E0      		ldi r24,lo8(8)
 3425 0f06 E0E2      		ldi r30,lo8(1568)
 3426 0f08 F6E0      		ldi r31,hi8(1568)
 3427 0f0a 8283      		std Z+2,r24
 3428               	.LM518:
 3429 0f0c 8091 2806 		lds r24,1576
 3430               	.L299:
 3431 0f10 90E0      		ldi r25,lo8(0)
 3432 0f12 8870      		andi r24,lo8(8)
 3433 0f14 9070      		andi r25,hi8(8)
 3434 0f16 F3E0      		ldi r31,3
 3435 0f18 9595      	1:	asr r25
 3436 0f1a 8795      		ror r24
 3437 0f1c FA95      		dec r31
 3438 0f1e 01F4      		brne 1b
 3439 0f20 0895      		ret
 3440               	.LVL187:
 3441               	.L291:
 3442               	.LBB709:
 3443               	.LBB710:
 3444               	.LM519:
 3445 0f22 8091 010A 		lds r24,2561
 3446               	.LVL188:
 3447 0f26 8F7B      		andi r24,lo8(-65)
 3448 0f28 E0E0      		ldi r30,lo8(2560)
 3449 0f2a FAE0      		ldi r31,hi8(2560)
 3450 0f2c 8183      		std Z+1,r24
 3451               	.LBE710:
 3452               	.LBE709:
 3453               	.LM520:
 3454 0f2e 84E0      		ldi r24,lo8(4)
 3455 0f30 E0E8      		ldi r30,lo8(1664)
 3456 0f32 F6E0      		ldi r31,hi8(1664)
 3457 0f34 8283      		std Z+2,r24
 3458               	.LM521:
 3459 0f36 8091 8806 		lds r24,1672
 3460               	.L298:
 3461 0f3a 90E0      		ldi r25,lo8(0)
 3462 0f3c 8470      		andi r24,lo8(4)
 3463 0f3e 9070      		andi r25,hi8(4)
 3464 0f40 9595      		asr r25
 3465 0f42 8795      		ror r24
 3466 0f44 9595      		asr r25
 3467 0f46 8795      		ror r24
 3468 0f48 0895      		ret
 3469               	.LVL189:
 3470               	.L292:
 3471               	.LBB711:
 3472               	.LBB712:
 3473               	.LM522:
 3474 0f4a 8091 010A 		lds r24,2561
 3475               	.LVL190:
 3476 0f4e 8F77      		andi r24,lo8(127)
 3477 0f50 E0E0      		ldi r30,lo8(2560)
 3478 0f52 FAE0      		ldi r31,hi8(2560)
 3479 0f54 8183      		std Z+1,r24
 3480               	.LBE712:
 3481               	.LBE711:
 3482               	.LM523:
 3483 0f56 88E0      		ldi r24,lo8(8)
 3484 0f58 E0E8      		ldi r30,lo8(1664)
 3485 0f5a F6E0      		ldi r31,hi8(1664)
 3486 0f5c 8283      		std Z+2,r24
 3487               	.LM524:
 3488 0f5e 8091 8806 		lds r24,1672
 3489 0f62 90E0      		ldi r25,lo8(0)
 3490 0f64 8870      		andi r24,lo8(8)
 3491 0f66 9070      		andi r25,hi8(8)
 3492 0f68 73E0      		ldi r23,3
 3493 0f6a 9595      	1:	asr r25
 3494 0f6c 8795      		ror r24
 3495 0f6e 7A95      		dec r23
 3496 0f70 01F4      		brne 1b
 3497               	.LM525:
 3498 0f72 0895      		ret
 3499               	.LFE68:
 3501               	.global	init_ir_read
 3503               	init_ir_read:
 3504               	.LFB69:
 3505               	.LM526:
 3506               	/* prologue: function */
 3507               	/* frame size = 0 */
 3508               	.LM527:
 3509 0f74 81E0      		ldi r24,lo8(1)
 3510 0f76 8093 0000 		sts ir_read_flag,r24
 3511               	.LM528:
 3512 0f7a A0E0      		ldi r26,lo8(2560)
 3513 0f7c BAE0      		ldi r27,hi8(2560)
 3514 0f7e 85E0      		ldi r24,lo8(5)
 3515 0f80 8C93      		st X,r24
 3516               	.LM529:
 3517 0f82 90E1      		ldi r25,lo8(16)
 3518 0f84 1196      		adiw r26,1
 3519 0f86 9C93      		st X,r25
 3520 0f88 1197      		sbiw r26,1
 3521               	.LM530:
 3522 0f8a 88E2      		ldi r24,lo8(40)
 3523 0f8c 1396      		adiw r26,3
 3524 0f8e 8C93      		st X,r24
 3525 0f90 1397      		sbiw r26,3
 3526               	.LM531:
 3527 0f92 E0E4      		ldi r30,lo8(1600)
 3528 0f94 F6E0      		ldi r31,hi8(1600)
 3529 0f96 9283      		std Z+2,r25
 3530               	.LM532:
 3531 0f98 8489      		ldd r24,Z+20
 3532 0f9a 8064      		ori r24,lo8(64)
 3533 0f9c 848B      		std Z+20,r24
 3534               	.LM533:
 3535 0f9e 84E6      		ldi r24,lo8(100)
 3536 0fa0 8093 8001 		sts 384,r24
 3537               	.LM534:
 3538 0fa4 80E4      		ldi r24,lo8(8000)
 3539 0fa6 9FE1      		ldi r25,hi8(8000)
 3540 0fa8 D696      		adiw r26,54
 3541 0faa 8D93      		st X+,r24
 3542 0fac 9C93      		st X,r25
 3543 0fae D797      		sbiw r26,54+1
 3544               	.LM535:
 3545 0fb0 1092 0000 		sts signal_count,__zero_reg__
 3546               	.LM536:
 3547 0fb4 1092 0000 		sts ir_read_time_out,__zero_reg__
 3548               	.LM537:
 3549 0fb8 83E0      		ldi r24,lo8(3)
 3550 0fba 1696      		adiw r26,6
 3551 0fbc 8C93      		st X,r24
 3552 0fbe 1697      		sbiw r26,6
 3553               	.LM538:
 3554 0fc0 1796      		adiw r26,7
 3555 0fc2 8C93      		st X,r24
 3556               	.LM539:
 3557 0fc4 E0EA      		ldi r30,lo8(160)
 3558 0fc6 F0E0      		ldi r31,hi8(160)
 3559 0fc8 8281      		ldd r24,Z+2
 3560 0fca 8460      		ori r24,lo8(4)
 3561 0fcc 8283      		std Z+2,r24
 3562               	/* epilogue start */
 3563               	.LM540:
 3564 0fce 0895      		ret
 3565               	.LFE69:
 3567               	.global	ir_fail
 3569               	ir_fail:
 3570               	.LFB72:
 3571               	.LM541:
 3572               	/* prologue: function */
 3573               	/* frame size = 0 */
 3574               	.L306:
 3575               	.LBB713:
 3576               	.LBB714:
 3577               	.LM542:
 3578 0fd0 8091 B109 		lds r24,2481
 3579 0fd4 85FF      		sbrs r24,5
 3580 0fd6 00C0      		rjmp .L306
 3581               	.LM543:
 3582 0fd8 85E4      		ldi r24,lo8(69)
 3583 0fda 8093 B009 		sts 2480,r24
 3584               	.L307:
 3585               	.LBE714:
 3586               	.LBE713:
 3587               	.LBB715:
 3588               	.LBB716:
 3589               	.LM544:
 3590 0fde 8091 B109 		lds r24,2481
 3591 0fe2 85FF      		sbrs r24,5
 3592 0fe4 00C0      		rjmp .L307
 3593               	.LM545:
 3594 0fe6 82E5      		ldi r24,lo8(82)
 3595 0fe8 8093 B009 		sts 2480,r24
 3596               	.L308:
 3597               	.LBE716:
 3598               	.LBE715:
 3599               	.LBB717:
 3600               	.LBB718:
 3601               	.LM546:
 3602 0fec 8091 B109 		lds r24,2481
 3603 0ff0 85FF      		sbrs r24,5
 3604 0ff2 00C0      		rjmp .L308
 3605               	.LM547:
 3606 0ff4 82E5      		ldi r24,lo8(82)
 3607 0ff6 8093 B009 		sts 2480,r24
 3608               	.LBE718:
 3609               	.LBE717:
 3610               	.LM548:
 3611 0ffa 1092 0000 		sts ir_read_flag,__zero_reg__
 3612               	/* epilogue start */
 3613               	.LM549:
 3614 0ffe 0895      		ret
 3615               	.LFE72:
 3617               	.global	disable_ir_read
 3619               	disable_ir_read:
 3620               	.LFB73:
 3621               	.LM550:
 3622               	/* prologue: function */
 3623               	/* frame size = 0 */
 3624               	.LM551:
 3625 1000 E0E0      		ldi r30,lo8(2560)
 3626 1002 FAE0      		ldi r31,hi8(2560)
 3627 1004 1682      		std Z+6,__zero_reg__
 3628               	.LM552:
 3629 1006 1782      		std Z+7,__zero_reg__
 3630               	.LM553:
 3631 1008 1092 8001 		sts 384,__zero_reg__
 3632               	.LM554:
 3633 100c 1382      		std Z+3,__zero_reg__
 3634               	.LM555:
 3635 100e 1182      		std Z+1,__zero_reg__
 3636               	.LM556:
 3637 1010 1082      		st Z,__zero_reg__
 3638               	/* epilogue start */
 3639               	.LM557:
 3640 1012 0895      		ret
 3641               	.LFE73:
 3643               	.global	dump_data
 3645               	dump_data:
 3646               	.LFB74:
 3647               	.LM558:
 3648               	/* prologue: function */
 3649               	/* frame size = 0 */
 3650               	.LM559:
 3651 1014 8091 0000 		lds r24,signal_count
 3652 1018 8530      		cpi r24,lo8(5)
 3653 101a 00F0      		brlo .L316
 3654               	.LM560:
 3655 101c 9091 0000 		lds r25,signal_count
 3656               	.L317:
 3657               	.LBB719:
 3658               	.LBB720:
 3659               	.LM561:
 3660 1020 8091 B109 		lds r24,2481
 3661 1024 85FF      		sbrs r24,5
 3662 1026 00C0      		rjmp .L317
 3663               	.LBE720:
 3664               	.LBE719:
 3665               	.LM562:
 3666 1028 9150      		subi r25,lo8(-(-1))
 3667               	.LBB722:
 3668               	.LBB721:
 3669               	.LM563:
 3670 102a 9093 B009 		sts 2480,r25
 3671 102e 92E0      		ldi r25,lo8(2)
 3672               	.LVL191:
 3673 1030 00C0      		rjmp .L318
 3674               	.L320:
 3675               	.LBE721:
 3676               	.LBE722:
 3677               	.LBB723:
 3678               	.LM564:
 3679 1032 E92F      		mov r30,r25
 3680 1034 F0E0      		ldi r31,lo8(0)
 3681 1036 E050      		subi r30,lo8(-(captured_signal))
 3682 1038 F040      		sbci r31,hi8(-(captured_signal))
 3683 103a E081      		ld r30,Z
 3684               	.L319:
 3685               	.LBB724:
 3686               	.LBB725:
 3687               	.LM565:
 3688 103c 8091 B109 		lds r24,2481
 3689 1040 85FF      		sbrs r24,5
 3690 1042 00C0      		rjmp .L319
 3691               	.LM566:
 3692 1044 E093 B009 		sts 2480,r30
 3693               	.LBE725:
 3694               	.LBE724:
 3695               	.LM567:
 3696 1048 9F5F      		subi r25,lo8(-(1))
 3697               	.L318:
 3698 104a 8091 0000 		lds r24,signal_count
 3699 104e 9817      		cp r25,r24
 3700 1050 00F0      		brlo .L320
 3701               	.LBE723:
 3702               	.LM568:
 3703 1052 1092 0000 		sts ir_read_flag,__zero_reg__
 3704 1056 0895      		ret
 3705               	.LVL192:
 3706               	.L316:
 3707               	.LM569:
 3708 1058 0E94 0000 		call ir_fail
 3709 105c 0895      		ret
 3710               	.LFE74:
 3712               	.global	__vector_47
 3714               	__vector_47:
 3715               	.LFB71:
 3716               	.LM570:
 3717 105e 1F92      		push __zero_reg__
 3718 1060 0F92      		push r0
 3719 1062 0FB6      		in r0,__SREG__
 3720 1064 0F92      		push r0
 3721 1066 1124      		clr __zero_reg__
 3722 1068 2F93      		push r18
 3723 106a 3F93      		push r19
 3724 106c 4F93      		push r20
 3725 106e 5F93      		push r21
 3726 1070 6F93      		push r22
 3727 1072 7F93      		push r23
 3728 1074 8F93      		push r24
 3729 1076 9F93      		push r25
 3730 1078 AF93      		push r26
 3731 107a BF93      		push r27
 3732 107c EF93      		push r30
 3733 107e FF93      		push r31
 3734               	/* prologue: Signal */
 3735               	/* frame size = 0 */
 3736               	.LM571:
 3737 1080 8091 0000 		lds r24,signal_count
 3738 1084 8823      		tst r24
 3739 1086 01F0      		breq .L326
 3740               	.LM572:
 3741 1088 0E94 0000 		call disable_ir_read
 3742               	.LM573:
 3743 108c 0E94 0000 		call dump_data
 3744 1090 00C0      		rjmp .L328
 3745               	.L326:
 3746               	.LM574:
 3747 1092 8091 0000 		lds r24,ir_read_time_out
 3748 1096 8F5F      		subi r24,lo8(-(1))
 3749 1098 8093 0000 		sts ir_read_time_out,r24
 3750               	.LM575:
 3751 109c 8091 0000 		lds r24,ir_read_time_out
 3752 10a0 8B3F      		cpi r24,lo8(-5)
 3753 10a2 00F0      		brlo .L328
 3754               	.LM576:
 3755 10a4 0E94 0000 		call disable_ir_read
 3756               	.LM577:
 3757 10a8 0E94 0000 		call ir_fail
 3758               	.L328:
 3759               	/* epilogue start */
 3760               	.LM578:
 3761 10ac FF91      		pop r31
 3762 10ae EF91      		pop r30
 3763 10b0 BF91      		pop r27
 3764 10b2 AF91      		pop r26
 3765 10b4 9F91      		pop r25
 3766 10b6 8F91      		pop r24
 3767 10b8 7F91      		pop r23
 3768 10ba 6F91      		pop r22
 3769 10bc 5F91      		pop r21
 3770 10be 4F91      		pop r20
 3771 10c0 3F91      		pop r19
 3772 10c2 2F91      		pop r18
 3773 10c4 0F90      		pop r0
 3774 10c6 0FBE      		out __SREG__,r0
 3775 10c8 0F90      		pop r0
 3776 10ca 1F90      		pop __zero_reg__
 3777 10cc 1895      		reti
 3778               	.LFE71:
 3780               	.global	__vector_49
 3782               	__vector_49:
 3783               	.LFB70:
 3784               	.LM579:
 3785 10ce 1F92      		push __zero_reg__
 3786 10d0 0F92      		push r0
 3787 10d2 0FB6      		in r0,__SREG__
 3788 10d4 0F92      		push r0
 3789 10d6 1124      		clr __zero_reg__
 3790 10d8 2F93      		push r18
 3791 10da 3F93      		push r19
 3792 10dc 4F93      		push r20
 3793 10de 5F93      		push r21
 3794 10e0 6F93      		push r22
 3795 10e2 7F93      		push r23
 3796 10e4 8F93      		push r24
 3797 10e6 9F93      		push r25
 3798 10e8 AF93      		push r26
 3799 10ea BF93      		push r27
 3800 10ec EF93      		push r30
 3801 10ee FF93      		push r31
 3802               	/* prologue: Signal */
 3803               	/* frame size = 0 */
 3804               	.LM580:
 3805 10f0 E0E0      		ldi r30,lo8(2560)
 3806 10f2 FAE0      		ldi r31,hi8(2560)
 3807 10f4 10A2      		std Z+32,__zero_reg__
 3808 10f6 11A2      		std Z+33,__zero_reg__
 3809               	.LM581:
 3810 10f8 8091 0000 		lds r24,signal_count
 3811 10fc 803C      		cpi r24,lo8(-64)
 3812 10fe 00F0      		brlo .L330
 3813               	.LM582:
 3814 1100 0E94 0000 		call disable_ir_read
 3815               	.LM583:
 3816 1104 0E94 0000 		call ir_fail
 3817 1108 00C0      		rjmp .L334
 3818               	.L330:
 3819               	.LM584:
 3820 110a E091 0000 		lds r30,signal_count
 3821 110e F0E0      		ldi r31,lo8(0)
 3822 1110 8091 280A 		lds r24,2600
 3823 1114 E050      		subi r30,lo8(-(captured_signal+1))
 3824 1116 F040      		sbci r31,hi8(-(captured_signal+1))
 3825 1118 8083      		st Z,r24
 3826               	.LM585:
 3827 111a E091 0000 		lds r30,signal_count
 3828 111e F0E0      		ldi r31,lo8(0)
 3829 1120 8091 290A 		lds r24,2601
 3830 1124 8F77      		andi r24,lo8(127)
 3831 1126 E050      		subi r30,lo8(-(captured_signal))
 3832 1128 F040      		sbci r31,hi8(-(captured_signal))
 3833 112a 8083      		st Z,r24
 3834               	.LM586:
 3835 112c E091 0000 		lds r30,signal_count
 3836 1130 F0E0      		ldi r31,lo8(0)
 3837 1132 E050      		subi r30,lo8(-(captured_signal+1))
 3838 1134 F040      		sbci r31,hi8(-(captured_signal+1))
 3839 1136 8081      		ld r24,Z
 3840 1138 8034      		cpi r24,lo8(64)
 3841 113a 00F4      		brsh .L332
 3842 113c E091 0000 		lds r30,signal_count
 3843 1140 F0E0      		ldi r31,lo8(0)
 3844 1142 E050      		subi r30,lo8(-(captured_signal))
 3845 1144 F040      		sbci r31,hi8(-(captured_signal))
 3846 1146 8081      		ld r24,Z
 3847 1148 8823      		tst r24
 3848 114a 01F4      		brne .L332
 3849               	.LM587:
 3850 114c 1092 0000 		sts signal_count,__zero_reg__
 3851               	.L332:
 3852               	.LM588:
 3853 1150 8091 0000 		lds r24,signal_count
 3854 1154 E091 0000 		lds r30,signal_count
 3855 1158 F0E0      		ldi r31,lo8(0)
 3856 115a E050      		subi r30,lo8(-(captured_signal))
 3857 115c F040      		sbci r31,hi8(-(captured_signal))
 3858 115e E081      		ld r30,Z
 3859 1160 8131      		cpi r24,lo8(17)
 3860 1162 00F0      		brlo .L333
 3861 1164 E131      		cpi r30,lo8(17)
 3862 1166 00F0      		brlo .L333
 3863               	.LM589:
 3864 1168 0E94 0000 		call disable_ir_read
 3865               	.LM590:
 3866 116c 0E94 0000 		call dump_data
 3867 1170 00C0      		rjmp .L334
 3868               	.L333:
 3869               	.LM591:
 3870 1172 8091 0000 		lds r24,signal_count
 3871 1176 8E5F      		subi r24,lo8(-(2))
 3872 1178 8093 0000 		sts signal_count,r24
 3873               	.L334:
 3874               	/* epilogue start */
 3875               	.LM592:
 3876 117c FF91      		pop r31
 3877 117e EF91      		pop r30
 3878 1180 BF91      		pop r27
 3879 1182 AF91      		pop r26
 3880 1184 9F91      		pop r25
 3881 1186 8F91      		pop r24
 3882 1188 7F91      		pop r23
 3883 118a 6F91      		pop r22
 3884 118c 5F91      		pop r21
 3885 118e 4F91      		pop r20
 3886 1190 3F91      		pop r19
 3887 1192 2F91      		pop r18
 3888 1194 0F90      		pop r0
 3889 1196 0FBE      		out __SREG__,r0
 3890 1198 0F90      		pop r0
 3891 119a 1F90      		pop __zero_reg__
 3892 119c 1895      		reti
 3893               	.LFE70:
 3895               	.global	read_data_from_serial
 3897               	read_data_from_serial:
 3898               	.LFB78:
 3899               	.LM593:
 3900 119e EF92      		push r14
 3901 11a0 FF92      		push r15
 3902 11a2 1F93      		push r17
 3903 11a4 CF93      		push r28
 3904 11a6 DF93      		push r29
 3905               	/* prologue: function */
 3906               	/* frame size = 0 */
 3907               	.LM594:
 3908 11a8 80EB      		ldi r24,lo8(2480)
 3909 11aa 99E0      		ldi r25,hi8(2480)
 3910 11ac 0E94 0000 		call uart_getchar_timeout
 3911 11b0 9C01      		movw r18,r24
 3912               	.LVL193:
 3913               	.LM595:
 3914 11b2 182F      		mov r17,r24
 3915               	.LVL194:
 3916               	.L336:
 3917               	.LBB726:
 3918               	.LBB727:
 3919               	.LM596:
 3920 11b4 8091 B109 		lds r24,2481
 3921               	.LVL195:
 3922 11b8 85FF      		sbrs r24,5
 3923 11ba 00C0      		rjmp .L336
 3924               	.LM597:
 3925 11bc 1093 B009 		sts 2480,r17
 3926 11c0 C0E0      		ldi r28,lo8(0)
 3927 11c2 D0E0      		ldi r29,hi8(0)
 3928               	.LVL196:
 3929               	.LBE727:
 3930               	.LBE726:
 3931               	.LBB728:
 3932               	.LM598:
 3933 11c4 7901      		movw r14,r18
 3934 11c6 0894      		sec
 3935 11c8 E108      		sbc r14,__zero_reg__
 3936 11ca F108      		sbc r15,__zero_reg__
 3937 11cc 00C0      		rjmp .L337
 3938               	.L341:
 3939               	.LM599:
 3940 11ce 80EB      		ldi r24,lo8(2480)
 3941 11d0 99E0      		ldi r25,hi8(2480)
 3942 11d2 0E94 0000 		call uart_getchar_timeout
 3943               	.LVL197:
 3944               	.LM600:
 3945 11d6 21E0      		ldi r18,hi8(256)
 3946 11d8 8030      		cpi r24,lo8(256)
 3947 11da 9207      		cpc r25,r18
 3948               	.LVL198:
 3949 11dc 01F4      		brne .L338
 3950 11de 20E0      		ldi r18,lo8(0)
 3951 11e0 30E0      		ldi r19,hi8(0)
 3952 11e2 00C0      		rjmp .L339
 3953               	.L338:
 3954               	.LM601:
 3955 11e4 982F      		mov r25,r24
 3956               	.L340:
 3957               	.LBB729:
 3958               	.LBB730:
 3959               	.LM602:
 3960 11e6 8091 B109 		lds r24,2481
 3961               	.LVL199:
 3962 11ea 85FF      		sbrs r24,5
 3963 11ec 00C0      		rjmp .L340
 3964               	.LM603:
 3965 11ee 9093 B009 		sts 2480,r25
 3966               	.LBE730:
 3967               	.LBE729:
 3968               	.LM604:
 3969 11f2 FE01      		movw r30,r28
 3970 11f4 E050      		subi r30,lo8(-(robotData))
 3971 11f6 F040      		sbci r31,hi8(-(robotData))
 3972 11f8 94A7      		std Z+44,r25
 3973               	.LM605:
 3974 11fa 2196      		adiw r28,1
 3975               	.LVL200:
 3976               	.L337:
 3977 11fc CE15      		cp r28,r14
 3978 11fe DF05      		cpc r29,r15
 3979 1200 04F0      		brlt .L341
 3980               	.LBE728:
 3981               	.LM606:
 3982 1202 1150      		subi r17,lo8(-(-1))
 3983 1204 1093 0000 		sts robotData+36,r17
 3984 1208 21E0      		ldi r18,lo8(1)
 3985 120a 30E0      		ldi r19,hi8(1)
 3986               	.LVL201:
 3987               	.L339:
 3988               	.LM607:
 3989 120c C901      		movw r24,r18
 3990               	.LVL202:
 3991               	/* epilogue start */
 3992 120e DF91      		pop r29
 3993 1210 CF91      		pop r28
 3994               	.LVL203:
 3995 1212 1F91      		pop r17
 3996 1214 FF90      		pop r15
 3997 1216 EF90      		pop r14
 3998 1218 0895      		ret
 3999               	.LFE78:
 4001               	.global	EEPROM_ReadByte
 4003               	EEPROM_ReadByte:
 4004               	.LFB80:
 4005               	.LM608:
 4006               	.LVL204:
 4007               	/* prologue: function */
 4008               	/* frame size = 0 */
 4009 121a 982F      		mov r25,r24
 4010               	.LVL205:
 4011               	.L346:
 4012               	.LBB731:
 4013               	.LBB732:
 4014               	.LM609:
 4015 121c E0EC      		ldi r30,lo8(448)
 4016 121e F1E0      		ldi r31,hi8(448)
 4017 1220 8091 CF01 		lds r24,463
 4018 1224 87FD      		sbrc r24,7
 4019 1226 00C0      		rjmp .L346
 4020               	.LBE732:
 4021               	.LBE731:
 4022               	.LM610:
 4023 1228 262F      		mov r18,r22
 4024               	.LVL206:
 4025 122a 30E0      		ldi r19,lo8(0)
 4026               	.LVL207:
 4027 122c 2F71      		andi r18,lo8(31)
 4028 122e 3070      		andi r19,hi8(31)
 4029               	.LVL208:
 4030 1230 892F      		mov r24,r25
 4031 1232 90E0      		ldi r25,lo8(0)
 4032               	.LVL209:
 4033 1234 45E0      		ldi r20,5
 4034 1236 880F      	1:	lsl r24
 4035 1238 991F      		rol r25
 4036 123a 4A95      		dec r20
 4037 123c 01F4      		brne 1b
 4038               	.LVL210:
 4039 123e 282B      		or r18,r24
 4040 1240 392B      		or r19,r25
 4041               	.LM611:
 4042 1242 2093 C001 		sts 448,r18
 4043               	.LM612:
 4044 1246 832F      		mov r24,r19
 4045               	.LVL211:
 4046 1248 8F71      		andi r24,lo8(31)
 4047 124a 8183      		std Z+1,r24
 4048               	.LM613:
 4049 124c 1282      		std Z+2,__zero_reg__
 4050               	.LM614:
 4051 124e 86E0      		ldi r24,lo8(6)
 4052 1250 8287      		std Z+10,r24
 4053               	.LM615:
 4054               	/* #APP */
 4055               	 ;  129 "eeprom_driver.c" 1
 4056 1252 EF93      		push r30
 4057 1254 FF93      		push r31
 4058 1256 0F93      		push r16
 4059 1258 2F93      		push r18
 4060 125a EBEC      		ldi r30, 0xCB
 4061 125c F1E0      		ldi r31, 0x01
 4062 125e 08ED      		ldi r16, 0xD8
 4063 1260 21E0      		ldi r18, 0x01
 4064 1262 04BF      		out 0x34, r16
 4065 1264 2083      		st Z, r18
 4066 1266 2F91      		pop r18
 4067 1268 0F91      		pop r16
 4068 126a FF91      		pop r31
 4069 126c EF91      		pop r30
 4070               		
 4071               	 ;  0 "" 2
 4072               	.LM616:
 4073               	/* #NOAPP */
 4074 126e 8091 C401 		lds r24,452
 4075               	/* epilogue start */
 4076               	.LM617:
 4077 1272 0895      		ret
 4078               	.LFE80:
 4080               	.global	print_data_from_eeprom
 4082               	print_data_from_eeprom:
 4083               	.LFB77:
 4084               	.LM618:
 4085               	.LVL212:
 4086 1274 AF92      		push r10
 4087 1276 BF92      		push r11
 4088 1278 CF92      		push r12
 4089 127a DF92      		push r13
 4090 127c EF92      		push r14
 4091 127e FF92      		push r15
 4092 1280 0F93      		push r16
 4093 1282 1F93      		push r17
 4094 1284 CF93      		push r28
 4095 1286 DF93      		push r29
 4096               	/* prologue: function */
 4097               	/* frame size = 0 */
 4098               	.LM619:
 4099 1288 9C01      		movw r18,r24
 4100 128a 220F      		lsl r18
 4101 128c 331F      		rol r19
 4102 128e 280F      		add r18,r24
 4103 1290 391F      		adc r19,r25
 4104 1292 220F      		lsl r18
 4105 1294 331F      		rol r19
 4106 1296 C22E      		mov r12,r18
 4107 1298 822F      		mov r24,r18
 4108               	.LVL213:
 4109 129a 60E0      		ldi r22,lo8(0)
 4110 129c 0E94 0000 		call EEPROM_ReadByte
 4111 12a0 282F      		mov r18,r24
 4112 12a2 90E0      		ldi r25,lo8(0)
 4113               	.LVL214:
 4114               	.LM620:
 4115 12a4 7C01      		movw r14,r24
 4116               	.LVL215:
 4117 12a6 65E0      		ldi r22,5
 4118 12a8 F594      	1:	asr r15
 4119 12aa E794      		ror r14
 4120 12ac 6A95      		dec r22
 4121 12ae 01F4      		brne 1b
 4122               	.LM621:
 4123 12b0 5FE1      		ldi r21,lo8(31)
 4124 12b2 A52E      		mov r10,r21
 4125 12b4 B12C      		mov r11,__zero_reg__
 4126               	.LVL216:
 4127 12b6 A822      		and r10,r24
 4128 12b8 B922      		and r11,r25
 4129               	.L350:
 4130               	.LBB733:
 4131               	.LBB734:
 4132               	.LM622:
 4133 12ba 8091 B109 		lds r24,2481
 4134               	.LVL217:
 4135 12be 85FF      		sbrs r24,5
 4136 12c0 00C0      		rjmp .L350
 4137               	.LM623:
 4138 12c2 2093 B009 		sts 2480,r18
 4139 12c6 C1E0      		ldi r28,lo8(1)
 4140 12c8 D0E0      		ldi r29,hi8(1)
 4141               	.LVL218:
 4142 12ca 00E0      		ldi r16,lo8(0)
 4143 12cc 10E0      		ldi r17,hi8(0)
 4144               	.LVL219:
 4145 12ce 00C0      		rjmp .L351
 4146               	.L353:
 4147               	.LBE734:
 4148               	.LBE733:
 4149               	.LBB735:
 4150               	.LM624:
 4151 12d0 DC2C      		mov r13,r12
 4152 12d2 D00E      		add r13,r16
 4153               	.L358:
 4154 12d4 8D2D      		mov r24,r13
 4155 12d6 6C2F      		mov r22,r28
 4156 12d8 0E94 0000 		call EEPROM_ReadByte
 4157               	.LVL220:
 4158 12dc 982F      		mov r25,r24
 4159               	.L352:
 4160               	.LBB736:
 4161               	.LBB737:
 4162               	.LM625:
 4163 12de 8091 B109 		lds r24,2481
 4164 12e2 85FF      		sbrs r24,5
 4165 12e4 00C0      		rjmp .L352
 4166               	.LM626:
 4167 12e6 9093 B009 		sts 2480,r25
 4168               	.LBE737:
 4169               	.LBE736:
 4170               	.LM627:
 4171 12ea 2196      		adiw r28,1
 4172               	.LM628:
 4173 12ec C032      		cpi r28,32
 4174 12ee D105      		cpc r29,__zero_reg__
 4175 12f0 04F0      		brlt .L358
 4176               	.LM629:
 4177 12f2 0F5F      		subi r16,lo8(-(1))
 4178 12f4 1F4F      		sbci r17,hi8(-(1))
 4179 12f6 C0E0      		ldi r28,lo8(0)
 4180 12f8 D0E0      		ldi r29,hi8(0)
 4181               	.LVL221:
 4182               	.L351:
 4183 12fa 0E15      		cp r16,r14
 4184 12fc 1F05      		cpc r17,r15
 4185 12fe 04F0      		brlt .L353
 4186 1300 00C0      		rjmp .L365
 4187               	.L356:
 4188               	.LBE735:
 4189               	.LM630:
 4190 1302 812F      		mov r24,r17
 4191 1304 6C2F      		mov r22,r28
 4192 1306 0E94 0000 		call EEPROM_ReadByte
 4193               	.LVL222:
 4194 130a 982F      		mov r25,r24
 4195               	.L355:
 4196               	.LBB738:
 4197               	.LBB739:
 4198               	.LM631:
 4199 130c 8091 B109 		lds r24,2481
 4200 1310 85FF      		sbrs r24,5
 4201 1312 00C0      		rjmp .L355
 4202               	.LM632:
 4203 1314 9093 B009 		sts 2480,r25
 4204               	.LBE739:
 4205               	.LBE738:
 4206               	.LM633:
 4207 1318 2196      		adiw r28,1
 4208 131a 00C0      		rjmp .L364
 4209               	.LVL223:
 4210               	.L365:
 4211               	.LM634:
 4212 131c 1C2D      		mov r17,r12
 4213 131e 1E0D      		add r17,r14
 4214               	.L364:
 4215               	.LM635:
 4216 1320 CA15      		cp r28,r10
 4217 1322 DB05      		cpc r29,r11
 4218 1324 04F0      		brlt .L356
 4219               	/* epilogue start */
 4220               	.LM636:
 4221 1326 DF91      		pop r29
 4222 1328 CF91      		pop r28
 4223               	.LVL224:
 4224 132a 1F91      		pop r17
 4225 132c 0F91      		pop r16
 4226               	.LVL225:
 4227 132e FF90      		pop r15
 4228 1330 EF90      		pop r14
 4229               	.LVL226:
 4230 1332 DF90      		pop r13
 4231 1334 CF90      		pop r12
 4232 1336 BF90      		pop r11
 4233 1338 AF90      		pop r10
 4234               	.LVL227:
 4235 133a 0895      		ret
 4236               	.LFE77:
 4238               	.global	read_data_from_eeprom
 4240               	read_data_from_eeprom:
 4241               	.LFB76:
 4242               	.LM637:
 4243               	.LVL228:
 4244 133c 5F92      		push r5
 4245 133e 6F92      		push r6
 4246 1340 7F92      		push r7
 4247 1342 8F92      		push r8
 4248 1344 9F92      		push r9
 4249 1346 AF92      		push r10
 4250 1348 BF92      		push r11
 4251 134a CF92      		push r12
 4252 134c DF92      		push r13
 4253 134e EF92      		push r14
 4254 1350 FF92      		push r15
 4255 1352 0F93      		push r16
 4256 1354 1F93      		push r17
 4257 1356 CF93      		push r28
 4258 1358 DF93      		push r29
 4259               	/* prologue: function */
 4260               	/* frame size = 0 */
 4261               	.LM638:
 4262 135a 9C01      		movw r18,r24
 4263 135c 220F      		lsl r18
 4264 135e 331F      		rol r19
 4265 1360 280F      		add r18,r24
 4266 1362 391F      		adc r19,r25
 4267 1364 220F      		lsl r18
 4268 1366 331F      		rol r19
 4269 1368 522E      		mov r5,r18
 4270 136a 822F      		mov r24,r18
 4271               	.LVL229:
 4272 136c 60E0      		ldi r22,lo8(0)
 4273 136e 0E94 0000 		call EEPROM_ReadByte
 4274 1372 B82E      		mov r11,r24
 4275 1374 90E0      		ldi r25,lo8(0)
 4276               	.LVL230:
 4277               	.LM639:
 4278 1376 4C01      		movw r8,r24
 4279               	.LVL231:
 4280 1378 B5E0      		ldi r27,5
 4281 137a 9594      	1:	asr r9
 4282 137c 8794      		ror r8
 4283 137e BA95      		dec r27
 4284 1380 01F4      		brne 1b
 4285               	.LM640:
 4286 1382 AFE1      		ldi r26,lo8(31)
 4287 1384 6A2E      		mov r6,r26
 4288 1386 712C      		mov r7,__zero_reg__
 4289               	.LVL232:
 4290 1388 6822      		and r6,r24
 4291 138a 7922      		and r7,r25
 4292 138c EE24      		clr r14
 4293 138e FF24      		clr r15
 4294               	.LVL233:
 4295 1390 C1E0      		ldi r28,lo8(1)
 4296 1392 D0E0      		ldi r29,hi8(1)
 4297               	.LVL234:
 4298 1394 00E0      		ldi r16,lo8(0)
 4299 1396 10E0      		ldi r17,hi8(0)
 4300               	.LVL235:
 4301 1398 00C0      		rjmp .L367
 4302               	.LVL236:
 4303               	.L368:
 4304               	.LBB740:
 4305               	.LM641:
 4306 139a 8A2D      		mov r24,r10
 4307 139c 6C2F      		mov r22,r28
 4308 139e 0E94 0000 		call EEPROM_ReadByte
 4309               	.LVL237:
 4310 13a2 F601      		movw r30,r12
 4311 13a4 8193      		st Z+,r24
 4312 13a6 6F01      		movw r12,r30
 4313               	.LM642:
 4314 13a8 0894      		sec
 4315 13aa E11C      		adc r14,__zero_reg__
 4316 13ac F11C      		adc r15,__zero_reg__
 4317               	.LM643:
 4318 13ae 2196      		adiw r28,1
 4319               	.LM644:
 4320 13b0 C032      		cpi r28,32
 4321 13b2 D105      		cpc r29,__zero_reg__
 4322 13b4 04F0      		brlt .L368
 4323               	.LM645:
 4324 13b6 0F5F      		subi r16,lo8(-(1))
 4325 13b8 1F4F      		sbci r17,hi8(-(1))
 4326 13ba C0E0      		ldi r28,lo8(0)
 4327 13bc D0E0      		ldi r29,hi8(0)
 4328               	.LVL238:
 4329               	.L367:
 4330 13be C701      		movw r24,r14
 4331               	.LVL239:
 4332 13c0 8C96      		adiw r24,44
 4333 13c2 0815      		cp r16,r8
 4334 13c4 1905      		cpc r17,r9
 4335 13c6 04F0      		brlt .L369
 4336 13c8 8C01      		movw r16,r24
 4337               	.LVL240:
 4338 13ca 0050      		subi r16,lo8(-(robotData))
 4339 13cc 1040      		sbci r17,hi8(-(robotData))
 4340               	.LBE740:
 4341               	.LM646:
 4342 13ce F52C      		mov r15,r5
 4343 13d0 F80C      		add r15,r8
 4344 13d2 00C0      		rjmp .L370
 4345               	.LVL241:
 4346               	.L369:
 4347               	.LBB741:
 4348               	.LM647:
 4349 13d4 F0E0      		ldi r31,lo8(robotData)
 4350 13d6 CF2E      		mov r12,r31
 4351 13d8 F0E0      		ldi r31,hi8(robotData)
 4352 13da DF2E      		mov r13,r31
 4353 13dc C80E      		add r12,r24
 4354 13de D91E      		adc r13,r25
 4355               	.LM648:
 4356 13e0 A52C      		mov r10,r5
 4357 13e2 A00E      		add r10,r16
 4358 13e4 00C0      		rjmp .L368
 4359               	.LVL242:
 4360               	.L371:
 4361               	.LBE741:
 4362               	.LM649:
 4363 13e6 8F2D      		mov r24,r15
 4364 13e8 6C2F      		mov r22,r28
 4365 13ea 0E94 0000 		call EEPROM_ReadByte
 4366               	.LVL243:
 4367 13ee F801      		movw r30,r16
 4368 13f0 8193      		st Z+,r24
 4369 13f2 8F01      		movw r16,r30
 4370               	.LM650:
 4371 13f4 2196      		adiw r28,1
 4372               	.LVL244:
 4373               	.L370:
 4374               	.LM651:
 4375 13f6 C615      		cp r28,r6
 4376 13f8 D705      		cpc r29,r7
 4377 13fa 04F0      		brlt .L371
 4378               	.LM652:
 4379 13fc BA94      		dec r11
 4380 13fe B092 0000 		sts robotData+36,r11
 4381               	/* epilogue start */
 4382               	.LM653:
 4383 1402 DF91      		pop r29
 4384 1404 CF91      		pop r28
 4385               	.LVL245:
 4386 1406 1F91      		pop r17
 4387 1408 0F91      		pop r16
 4388 140a FF90      		pop r15
 4389 140c EF90      		pop r14
 4390               	.LVL246:
 4391 140e DF90      		pop r13
 4392 1410 CF90      		pop r12
 4393 1412 BF90      		pop r11
 4394 1414 AF90      		pop r10
 4395 1416 9F90      		pop r9
 4396 1418 8F90      		pop r8
 4397               	.LVL247:
 4398 141a 7F90      		pop r7
 4399 141c 6F90      		pop r6
 4400               	.LVL248:
 4401 141e 5F90      		pop r5
 4402 1420 0895      		ret
 4403               	.LFE76:
 4405               	.global	EEPROM_WaitForNVM
 4407               	EEPROM_WaitForNVM:
 4408               	.LFB81:
 4409               	.LM654:
 4410               	/* prologue: function */
 4411               	/* frame size = 0 */
 4412               	.L375:
 4413               	.LM655:
 4414 1422 8091 CF01 		lds r24,463
 4415 1426 87FD      		sbrc r24,7
 4416 1428 00C0      		rjmp .L375
 4417               	/* epilogue start */
 4418               	.LM656:
 4419 142a 0895      		ret
 4420               	.LFE81:
 4422               	.global	EEPROM_FlushBuffer
 4424               	EEPROM_FlushBuffer:
 4425               	.LFB82:
 4426               	.LM657:
 4427               	/* prologue: function */
 4428               	/* frame size = 0 */
 4429               	.L379:
 4430               	.LBB742:
 4431               	.LBB743:
 4432               	.LM658:
 4433 142c 8091 CF01 		lds r24,463
 4434 1430 87FD      		sbrc r24,7
 4435 1432 00C0      		rjmp .L379
 4436               	.LBE743:
 4437               	.LBE742:
 4438               	.LM659:
 4439 1434 8091 CF01 		lds r24,463
 4440 1438 81FF      		sbrs r24,1
 4441 143a 00C0      		rjmp .L381
 4442               	.LM660:
 4443 143c 86E3      		ldi r24,lo8(54)
 4444 143e E0EC      		ldi r30,lo8(448)
 4445 1440 F1E0      		ldi r31,hi8(448)
 4446 1442 8287      		std Z+10,r24
 4447               	.LM661:
 4448               	/* #APP */
 4449               	 ;  166 "eeprom_driver.c" 1
 4450 1444 EF93      		push r30
 4451 1446 FF93      		push r31
 4452 1448 0F93      		push r16
 4453 144a 2F93      		push r18
 4454 144c EBEC      		ldi r30, 0xCB
 4455 144e F1E0      		ldi r31, 0x01
 4456 1450 08ED      		ldi r16, 0xD8
 4457 1452 21E0      		ldi r18, 0x01
 4458 1454 04BF      		out 0x34, r16
 4459 1456 2083      		st Z, r18
 4460 1458 2F91      		pop r18
 4461 145a 0F91      		pop r16
 4462 145c FF91      		pop r31
 4463 145e EF91      		pop r30
 4464               		
 4465               	 ;  0 "" 2
 4466               	/* #NOAPP */
 4467               	.L381:
 4468 1460 0895      		ret
 4469               	.LFE82:
 4471               	.global	EEPROM_WriteByte
 4473               	EEPROM_WriteByte:
 4474               	.LFB79:
 4475               	.LM662:
 4476               	.LVL249:
 4477 1462 DF92      		push r13
 4478 1464 EF92      		push r14
 4479 1466 FF92      		push r15
 4480 1468 0F93      		push r16
 4481 146a 1F93      		push r17
 4482               	/* prologue: function */
 4483               	/* frame size = 0 */
 4484 146c E82E      		mov r14,r24
 4485 146e 062F      		mov r16,r22
 4486 1470 D42E      		mov r13,r20
 4487               	.LM663:
 4488 1472 0E94 0000 		call EEPROM_FlushBuffer
 4489               	.LVL250:
 4490               	.LM664:
 4491 1476 E0EC      		ldi r30,lo8(448)
 4492 1478 F1E0      		ldi r31,hi8(448)
 4493 147a 83E3      		ldi r24,lo8(51)
 4494 147c 8287      		std Z+10,r24
 4495               	.LM665:
 4496 147e 10E0      		ldi r17,lo8(0)
 4497               	.LVL251:
 4498 1480 0F71      		andi r16,lo8(31)
 4499 1482 1070      		andi r17,hi8(31)
 4500               	.LVL252:
 4501 1484 FF24      		clr r15
 4502               	.LVL253:
 4503 1486 85E0      		ldi r24,5
 4504 1488 EE0C      	1:	lsl r14
 4505 148a FF1C      		rol r15
 4506 148c 8A95      		dec r24
 4507 148e 01F4      		brne 1b
 4508               	.LVL254:
 4509 1490 0E29      		or r16,r14
 4510 1492 1F29      		or r17,r15
 4511               	.LM666:
 4512 1494 0083      		st Z,r16
 4513               	.LM667:
 4514 1496 812F      		mov r24,r17
 4515               	.LVL255:
 4516 1498 8F71      		andi r24,lo8(31)
 4517 149a 8183      		std Z+1,r24
 4518               	.LM668:
 4519 149c 1282      		std Z+2,__zero_reg__
 4520               	.LM669:
 4521 149e D482      		std Z+4,r13
 4522               	.LM670:
 4523 14a0 85E3      		ldi r24,lo8(53)
 4524 14a2 8287      		std Z+10,r24
 4525               	.LM671:
 4526               	/* #APP */
 4527               	 ;  99 "eeprom_driver.c" 1
 4528 14a4 EF93      		push r30
 4529 14a6 FF93      		push r31
 4530 14a8 0F93      		push r16
 4531 14aa 2F93      		push r18
 4532 14ac EBEC      		ldi r30, 0xCB
 4533 14ae F1E0      		ldi r31, 0x01
 4534 14b0 08ED      		ldi r16, 0xD8
 4535 14b2 21E0      		ldi r18, 0x01
 4536 14b4 04BF      		out 0x34, r16
 4537 14b6 2083      		st Z, r18
 4538 14b8 2F91      		pop r18
 4539 14ba 0F91      		pop r16
 4540 14bc FF91      		pop r31
 4541 14be EF91      		pop r30
 4542               		
 4543               	 ;  0 "" 2
 4544               	/* epilogue start */
 4545               	.LM672:
 4546               	/* #NOAPP */
 4547 14c0 1F91      		pop r17
 4548 14c2 0F91      		pop r16
 4549               	.LVL256:
 4550 14c4 FF90      		pop r15
 4551               	.LVL257:
 4552 14c6 EF90      		pop r14
 4553               	.LVL258:
 4554 14c8 DF90      		pop r13
 4555               	.LVL259:
 4556 14ca 0895      		ret
 4557               	.LFE79:
 4559               	.global	write_data_to_eeprom
 4561               	write_data_to_eeprom:
 4562               	.LFB75:
 4563               	.LM673:
 4564               	.LVL260:
 4565 14cc 8F92      		push r8
 4566 14ce 9F92      		push r9
 4567 14d0 AF92      		push r10
 4568 14d2 BF92      		push r11
 4569 14d4 CF92      		push r12
 4570 14d6 DF92      		push r13
 4571 14d8 EF92      		push r14
 4572 14da FF92      		push r15
 4573 14dc 0F93      		push r16
 4574 14de 1F93      		push r17
 4575 14e0 CF93      		push r28
 4576 14e2 DF93      		push r29
 4577               	/* prologue: function */
 4578               	/* frame size = 0 */
 4579 14e4 9C01      		movw r18,r24
 4580               	.LM674:
 4581 14e6 8091 0000 		lds r24,signal_count
 4582               	.LVL261:
 4583 14ea 90E0      		ldi r25,lo8(0)
 4584 14ec 0197      		sbiw r24,1
 4585 14ee 60E2      		ldi r22,lo8(32)
 4586 14f0 70E0      		ldi r23,hi8(32)
 4587 14f2 0E94 0000 		call __divmodhi4
 4588 14f6 6B01      		movw r12,r22
 4589               	.LM675:
 4590 14f8 8091 0000 		lds r24,signal_count
 4591 14fc 90E0      		ldi r25,lo8(0)
 4592 14fe 0197      		sbiw r24,1
 4593 1500 60E2      		ldi r22,lo8(32)
 4594 1502 70E0      		ldi r23,hi8(32)
 4595 1504 0E94 0000 		call __divmodhi4
 4596 1508 5C01      		movw r10,r24
 4597               	.LM676:
 4598 150a C901      		movw r24,r18
 4599 150c 880F      		lsl r24
 4600 150e 991F      		rol r25
 4601 1510 820F      		add r24,r18
 4602 1512 931F      		adc r25,r19
 4603 1514 880F      		lsl r24
 4604 1516 991F      		rol r25
 4605               	.LVL262:
 4606 1518 882E      		mov r8,r24
 4607 151a 4091 0000 		lds r20,signal_count
 4608 151e 4150      		subi r20,lo8(-(-1))
 4609 1520 60E0      		ldi r22,lo8(0)
 4610 1522 0E94 0000 		call EEPROM_WriteByte
 4611 1526 92E0      		ldi r25,lo8(2)
 4612 1528 E92E      		mov r14,r25
 4613 152a F12C      		mov r15,__zero_reg__
 4614               	.LVL263:
 4615 152c C1E0      		ldi r28,lo8(1)
 4616 152e D0E0      		ldi r29,hi8(1)
 4617               	.LVL264:
 4618 1530 00E0      		ldi r16,lo8(0)
 4619 1532 10E0      		ldi r17,hi8(0)
 4620               	.LVL265:
 4621 1534 00C0      		rjmp .L386
 4622               	.LVL266:
 4623               	.L387:
 4624               	.LBB744:
 4625               	.LM677:
 4626 1536 982C      		mov r9,r8
 4627 1538 900E      		add r9,r16
 4628               	.L391:
 4629 153a F701      		movw r30,r14
 4630 153c E050      		subi r30,lo8(-(captured_signal))
 4631 153e F040      		sbci r31,hi8(-(captured_signal))
 4632 1540 4081      		ld r20,Z
 4633 1542 892D      		mov r24,r9
 4634 1544 6C2F      		mov r22,r28
 4635 1546 0E94 0000 		call EEPROM_WriteByte
 4636               	.LM678:
 4637 154a 0894      		sec
 4638 154c E11C      		adc r14,__zero_reg__
 4639 154e F11C      		adc r15,__zero_reg__
 4640               	.LM679:
 4641 1550 2196      		adiw r28,1
 4642               	.LM680:
 4643 1552 C032      		cpi r28,32
 4644 1554 D105      		cpc r29,__zero_reg__
 4645 1556 04F0      		brlt .L391
 4646               	.LM681:
 4647 1558 0F5F      		subi r16,lo8(-(1))
 4648 155a 1F4F      		sbci r17,hi8(-(1))
 4649 155c C0E0      		ldi r28,lo8(0)
 4650 155e D0E0      		ldi r29,hi8(0)
 4651               	.L386:
 4652 1560 0C15      		cp r16,r12
 4653 1562 1D05      		cpc r17,r13
 4654 1564 04F0      		brlt .L387
 4655 1566 00C0      		rjmp .L395
 4656               	.LVL267:
 4657               	.L389:
 4658               	.LBE744:
 4659               	.LM682:
 4660 1568 F701      		movw r30,r14
 4661 156a E050      		subi r30,lo8(-(captured_signal))
 4662 156c F040      		sbci r31,hi8(-(captured_signal))
 4663 156e 4081      		ld r20,Z
 4664 1570 812F      		mov r24,r17
 4665 1572 6C2F      		mov r22,r28
 4666 1574 0E94 0000 		call EEPROM_WriteByte
 4667               	.LM683:
 4668 1578 0894      		sec
 4669 157a E11C      		adc r14,__zero_reg__
 4670 157c F11C      		adc r15,__zero_reg__
 4671               	.LM684:
 4672 157e 2196      		adiw r28,1
 4673 1580 00C0      		rjmp .L394
 4674               	.LVL268:
 4675               	.L395:
 4676               	.LM685:
 4677 1582 182D      		mov r17,r8
 4678 1584 1C0D      		add r17,r12
 4679               	.LVL269:
 4680               	.L394:
 4681               	.LM686:
 4682 1586 CA15      		cp r28,r10
 4683 1588 DB05      		cpc r29,r11
 4684 158a 04F0      		brlt .L389
 4685               	/* epilogue start */
 4686               	.LM687:
 4687 158c DF91      		pop r29
 4688 158e CF91      		pop r28
 4689               	.LVL270:
 4690 1590 1F91      		pop r17
 4691 1592 0F91      		pop r16
 4692               	.LVL271:
 4693 1594 FF90      		pop r15
 4694 1596 EF90      		pop r14
 4695               	.LVL272:
 4696 1598 DF90      		pop r13
 4697 159a CF90      		pop r12
 4698               	.LVL273:
 4699 159c BF90      		pop r11
 4700 159e AF90      		pop r10
 4701               	.LVL274:
 4702 15a0 9F90      		pop r9
 4703 15a2 8F90      		pop r8
 4704 15a4 0895      		ret
 4705               	.LFE75:
 4707               	.global	EEPROM_LoadByte
 4709               	EEPROM_LoadByte:
 4710               	.LFB83:
 4711               	.LM688:
 4712               	.LVL275:
 4713               	/* prologue: function */
 4714               	/* frame size = 0 */
 4715 15a6 982F      		mov r25,r24
 4716               	.LVL276:
 4717               	.L397:
 4718               	.LBB745:
 4719               	.LBB746:
 4720               	.LM689:
 4721 15a8 E0EC      		ldi r30,lo8(448)
 4722 15aa F1E0      		ldi r31,hi8(448)
 4723 15ac 8091 CF01 		lds r24,463
 4724 15b0 87FD      		sbrc r24,7
 4725 15b2 00C0      		rjmp .L397
 4726               	.LBE746:
 4727               	.LBE745:
 4728               	.LM690:
 4729 15b4 83E3      		ldi r24,lo8(51)
 4730 15b6 8287      		std Z+10,r24
 4731               	.LM691:
 4732 15b8 9093 C001 		sts 448,r25
 4733               	.LM692:
 4734 15bc 1182      		std Z+1,__zero_reg__
 4735               	.LM693:
 4736 15be 1282      		std Z+2,__zero_reg__
 4737               	.LM694:
 4738 15c0 6483      		std Z+4,r22
 4739               	/* epilogue start */
 4740               	.LM695:
 4741 15c2 0895      		ret
 4742               	.LFE83:
 4744               	.global	EEPROM_LoadPage
 4746               	EEPROM_LoadPage:
 4747               	.LFB84:
 4748               	.LM696:
 4749               	.LVL277:
 4750               	/* prologue: function */
 4751               	/* frame size = 0 */
 4752 15c4 DC01      		movw r26,r24
 4753               	.LVL278:
 4754               	.L401:
 4755               	.LBB747:
 4756               	.LBB748:
 4757               	.LM697:
 4758 15c6 E0EC      		ldi r30,lo8(448)
 4759 15c8 F1E0      		ldi r31,hi8(448)
 4760 15ca 8091 CF01 		lds r24,463
 4761 15ce 87FD      		sbrc r24,7
 4762 15d0 00C0      		rjmp .L401
 4763               	.LBE748:
 4764               	.LBE747:
 4765               	.LM698:
 4766 15d2 83E3      		ldi r24,lo8(51)
 4767 15d4 8287      		std Z+10,r24
 4768               	.LM699:
 4769 15d6 1182      		std Z+1,__zero_reg__
 4770               	.LM700:
 4771 15d8 1282      		std Z+2,__zero_reg__
 4772 15da 90E0      		ldi r25,lo8(0)
 4773               	.LVL279:
 4774               	.L402:
 4775               	.LBB749:
 4776               	.LM701:
 4777 15dc 9093 C001 		sts 448,r25
 4778               	.LM702:
 4779 15e0 8D91      		ld r24,X+
 4780 15e2 8483      		std Z+4,r24
 4781               	.LM703:
 4782 15e4 9F5F      		subi r25,lo8(-(1))
 4783 15e6 9032      		cpi r25,lo8(32)
 4784 15e8 01F4      		brne .L402
 4785               	/* epilogue start */
 4786               	.LBE749:
 4787               	.LM704:
 4788 15ea 0895      		ret
 4789               	.LFE84:
 4791               	.global	EEPROM_AtomicWritePage
 4793               	EEPROM_AtomicWritePage:
 4794               	.LFB85:
 4795               	.LM705:
 4796               	.LVL280:
 4797               	/* prologue: function */
 4798               	/* frame size = 0 */
 4799 15ec 982F      		mov r25,r24
 4800               	.LVL281:
 4801               	.L407:
 4802               	.LBB750:
 4803               	.LBB751:
 4804               	.LM706:
 4805 15ee E0EC      		ldi r30,lo8(448)
 4806 15f0 F1E0      		ldi r31,hi8(448)
 4807 15f2 8091 CF01 		lds r24,463
 4808 15f6 87FD      		sbrc r24,7
 4809 15f8 00C0      		rjmp .L407
 4810               	.LBE751:
 4811               	.LBE750:
 4812               	.LM707:
 4813 15fa 892F      		mov r24,r25
 4814               	.LVL282:
 4815 15fc 90E0      		ldi r25,lo8(0)
 4816               	.LVL283:
 4817 15fe 55E0      		ldi r21,5
 4818 1600 880F      	1:	lsl r24
 4819 1602 991F      		rol r25
 4820 1604 5A95      		dec r21
 4821 1606 01F4      		brne 1b
 4822               	.LVL284:
 4823               	.LM708:
 4824 1608 8093 C001 		sts 448,r24
 4825               	.LM709:
 4826 160c 892F      		mov r24,r25
 4827               	.LVL285:
 4828 160e 8F71      		andi r24,lo8(31)
 4829 1610 8183      		std Z+1,r24
 4830               	.LM710:
 4831 1612 1282      		std Z+2,__zero_reg__
 4832               	.LM711:
 4833 1614 85E3      		ldi r24,lo8(53)
 4834 1616 8287      		std Z+10,r24
 4835               	.LM712:
 4836               	/* #APP */
 4837               	 ;  263 "eeprom_driver.c" 1
 4838 1618 EF93      		push r30
 4839 161a FF93      		push r31
 4840 161c 0F93      		push r16
 4841 161e 2F93      		push r18
 4842 1620 EBEC      		ldi r30, 0xCB
 4843 1622 F1E0      		ldi r31, 0x01
 4844 1624 08ED      		ldi r16, 0xD8
 4845 1626 21E0      		ldi r18, 0x01
 4846 1628 04BF      		out 0x34, r16
 4847 162a 2083      		st Z, r18
 4848 162c 2F91      		pop r18
 4849 162e 0F91      		pop r16
 4850 1630 FF91      		pop r31
 4851 1632 EF91      		pop r30
 4852               		
 4853               	 ;  0 "" 2
 4854               	/* epilogue start */
 4855               	.LM713:
 4856               	/* #NOAPP */
 4857 1634 0895      		ret
 4858               	.LFE85:
 4860               	.global	EEPROM_ErasePage
 4862               	EEPROM_ErasePage:
 4863               	.LFB86:
 4864               	.LM714:
 4865               	.LVL286:
 4866               	/* prologue: function */
 4867               	/* frame size = 0 */
 4868 1636 982F      		mov r25,r24
 4869               	.LVL287:
 4870               	.L411:
 4871               	.LBB752:
 4872               	.LBB753:
 4873               	.LM715:
 4874 1638 E0EC      		ldi r30,lo8(448)
 4875 163a F1E0      		ldi r31,hi8(448)
 4876 163c 8091 CF01 		lds r24,463
 4877 1640 87FD      		sbrc r24,7
 4878 1642 00C0      		rjmp .L411
 4879               	.LBE753:
 4880               	.LBE752:
 4881               	.LM716:
 4882 1644 892F      		mov r24,r25
 4883               	.LVL288:
 4884 1646 90E0      		ldi r25,lo8(0)
 4885               	.LVL289:
 4886 1648 65E0      		ldi r22,5
 4887 164a 880F      	1:	lsl r24
 4888 164c 991F      		rol r25
 4889 164e 6A95      		dec r22
 4890 1650 01F4      		brne 1b
 4891               	.LVL290:
 4892               	.LM717:
 4893 1652 8093 C001 		sts 448,r24
 4894               	.LM718:
 4895 1656 892F      		mov r24,r25
 4896               	.LVL291:
 4897 1658 8F71      		andi r24,lo8(31)
 4898 165a 8183      		std Z+1,r24
 4899               	.LM719:
 4900 165c 1282      		std Z+2,__zero_reg__
 4901               	.LM720:
 4902 165e 82E3      		ldi r24,lo8(50)
 4903 1660 8287      		std Z+10,r24
 4904               	.LM721:
 4905               	/* #APP */
 4906               	 ;  288 "eeprom_driver.c" 1
 4907 1662 EF93      		push r30
 4908 1664 FF93      		push r31
 4909 1666 0F93      		push r16
 4910 1668 2F93      		push r18
 4911 166a EBEC      		ldi r30, 0xCB
 4912 166c F1E0      		ldi r31, 0x01
 4913 166e 08ED      		ldi r16, 0xD8
 4914 1670 21E0      		ldi r18, 0x01
 4915 1672 04BF      		out 0x34, r16
 4916 1674 2083      		st Z, r18
 4917 1676 2F91      		pop r18
 4918 1678 0F91      		pop r16
 4919 167a FF91      		pop r31
 4920 167c EF91      		pop r30
 4921               		
 4922               	 ;  0 "" 2
 4923               	/* epilogue start */
 4924               	.LM722:
 4925               	/* #NOAPP */
 4926 167e 0895      		ret
 4927               	.LFE86:
 4929               	.global	EEPROM_SplitWritePage
 4931               	EEPROM_SplitWritePage:
 4932               	.LFB87:
 4933               	.LM723:
 4934               	.LVL292:
 4935               	/* prologue: function */
 4936               	/* frame size = 0 */
 4937 1680 982F      		mov r25,r24
 4938               	.LVL293:
 4939               	.L415:
 4940               	.LBB754:
 4941               	.LBB755:
 4942               	.LM724:
 4943 1682 E0EC      		ldi r30,lo8(448)
 4944 1684 F1E0      		ldi r31,hi8(448)
 4945 1686 8091 CF01 		lds r24,463
 4946 168a 87FD      		sbrc r24,7
 4947 168c 00C0      		rjmp .L415
 4948               	.LBE755:
 4949               	.LBE754:
 4950               	.LM725:
 4951 168e 892F      		mov r24,r25
 4952               	.LVL294:
 4953 1690 90E0      		ldi r25,lo8(0)
 4954               	.LVL295:
 4955 1692 75E0      		ldi r23,5
 4956 1694 880F      	1:	lsl r24
 4957 1696 991F      		rol r25
 4958 1698 7A95      		dec r23
 4959 169a 01F4      		brne 1b
 4960               	.LVL296:
 4961               	.LM726:
 4962 169c 8093 C001 		sts 448,r24
 4963               	.LM727:
 4964 16a0 892F      		mov r24,r25
 4965               	.LVL297:
 4966 16a2 8F71      		andi r24,lo8(31)
 4967 16a4 8183      		std Z+1,r24
 4968               	.LM728:
 4969 16a6 1282      		std Z+2,__zero_reg__
 4970               	.LM729:
 4971 16a8 84E3      		ldi r24,lo8(52)
 4972 16aa 8287      		std Z+10,r24
 4973               	.LM730:
 4974               	/* #APP */
 4975               	 ;  317 "eeprom_driver.c" 1
 4976 16ac EF93      		push r30
 4977 16ae FF93      		push r31
 4978 16b0 0F93      		push r16
 4979 16b2 2F93      		push r18
 4980 16b4 EBEC      		ldi r30, 0xCB
 4981 16b6 F1E0      		ldi r31, 0x01
 4982 16b8 08ED      		ldi r16, 0xD8
 4983 16ba 21E0      		ldi r18, 0x01
 4984 16bc 04BF      		out 0x34, r16
 4985 16be 2083      		st Z, r18
 4986 16c0 2F91      		pop r18
 4987 16c2 0F91      		pop r16
 4988 16c4 FF91      		pop r31
 4989 16c6 EF91      		pop r30
 4990               		
 4991               	 ;  0 "" 2
 4992               	/* epilogue start */
 4993               	.LM731:
 4994               	/* #NOAPP */
 4995 16c8 0895      		ret
 4996               	.LFE87:
 4998               	.global	EEPROM_EraseAll
 5000               	EEPROM_EraseAll:
 5001               	.LFB88:
 5002               	.LM732:
 5003               	/* prologue: function */
 5004               	/* frame size = 0 */
 5005               	.L419:
 5006               	.LBB756:
 5007               	.LBB757:
 5008               	.LM733:
 5009 16ca 8091 CF01 		lds r24,463
 5010 16ce 87FD      		sbrc r24,7
 5011 16d0 00C0      		rjmp .L419
 5012               	.LBE757:
 5013               	.LBE756:
 5014               	.LM734:
 5015 16d2 80E3      		ldi r24,lo8(48)
 5016 16d4 E0EC      		ldi r30,lo8(448)
 5017 16d6 F1E0      		ldi r31,hi8(448)
 5018 16d8 8287      		std Z+10,r24
 5019               	.LM735:
 5020               	/* #APP */
 5021               	 ;  331 "eeprom_driver.c" 1
 5022 16da EF93      		push r30
 5023 16dc FF93      		push r31
 5024 16de 0F93      		push r16
 5025 16e0 2F93      		push r18
 5026 16e2 EBEC      		ldi r30, 0xCB
 5027 16e4 F1E0      		ldi r31, 0x01
 5028 16e6 08ED      		ldi r16, 0xD8
 5029 16e8 21E0      		ldi r18, 0x01
 5030 16ea 04BF      		out 0x34, r16
 5031 16ec 2083      		st Z, r18
 5032 16ee 2F91      		pop r18
 5033 16f0 0F91      		pop r16
 5034 16f2 FF91      		pop r31
 5035 16f4 EF91      		pop r30
 5036               		
 5037               	 ;  0 "" 2
 5038               	/* epilogue start */
 5039               	.LM736:
 5040               	/* #NOAPP */
 5041 16f6 0895      		ret
 5042               	.LFE88:
 5044               	.global	main
 5046               	main:
 5047               	.LFB89:
 5048               	.LM737:
 5049 16f8 2F92      		push r2
 5050 16fa 3F92      		push r3
 5051 16fc 4F92      		push r4
 5052 16fe 5F92      		push r5
 5053 1700 6F92      		push r6
 5054 1702 7F92      		push r7
 5055 1704 8F92      		push r8
 5056 1706 9F92      		push r9
 5057 1708 AF92      		push r10
 5058 170a BF92      		push r11
 5059 170c CF92      		push r12
 5060 170e DF92      		push r13
 5061 1710 EF92      		push r14
 5062 1712 FF92      		push r15
 5063 1714 0F93      		push r16
 5064 1716 1F93      		push r17
 5065 1718 DF93      		push r29
 5066 171a CF93      		push r28
 5067 171c CDB7      		in r28,__SP_L__
 5068 171e DEB7      		in r29,__SP_H__
 5069 1720 A397      		sbiw r28,35
 5070 1722 CDBF      		out __SP_L__,r28
 5071 1724 DEBF      		out __SP_H__,r29
 5072               	/* prologue: function */
 5073               	/* frame size = 35 */
 5074               	.LM738:
 5075 1726 0E94 0000 		call init_clock
 5076               	.LM739:
 5077 172a 0E94 0000 		call init_led
 5078               	.LM740:
 5079 172e 0E94 0000 		call init_adc
 5080               	.LM741:
 5081 1732 0E94 0000 		call init_ir
 5082               	.LM742:
 5083 1736 0E94 0000 		call init_BT
 5084               	.LM743:
 5085 173a 0E94 0000 		call init_dac
 5086               	.LM744:
 5087 173e 0E94 0000 		call init_buzzer
 5088               	.LM745:
 5089 1742 0E94 0000 		call initAccel
 5090               	.LM746:
 5091 1746 83E8      		ldi r24,lo8(131)
 5092 1748 90E0      		ldi r25,hi8(131)
 5093 174a 6DEF      		ldi r22,lo8(-3)
 5094 174c 0E94 0000 		call init_aux_uart
 5095               	.LM747:
 5096 1750 8091 CC01 		lds r24,460
 5097 1754 877F      		andi r24,lo8(-9)
 5098 1756 E0EC      		ldi r30,lo8(448)
 5099 1758 F1E0      		ldi r31,hi8(448)
 5100 175a 8487      		std Z+12,r24
 5101               	.LM748:
 5102               	/* #APP */
 5103               	 ;  56 "mainFirmware.c" 1
 5104 175c 7894      		sei
 5105               	 ;  0 "" 2
 5106               	/* #NOAPP */
 5107 175e CC24      		clr r12
 5108 1760 DD24      		clr r13
 5109               	.LVL298:
 5110               	.LBB758:
 5111               	.LBB759:
 5112               	.LM749:
 5113 1762 85E4      		ldi r24,lo8(69)
 5114 1764 882E      		mov r8,r24
 5115               	.LBE759:
 5116               	.LBE758:
 5117               	.LBB761:
 5118               	.LBB762:
 5119 1766 02E5      		ldi r16,lo8(82)
 5120 1768 902E      		mov r9,r16
 5121               	.LBE762:
 5122               	.LBE761:
 5123               	.LBB764:
 5124               	.LBB765:
 5125               	.LM750:
 5126 176a 412C      		mov r4,__zero_reg__
 5127 176c 1AE0      		ldi r17,hi8(2560)
 5128 176e 512E      		mov r5,r17
 5129               	.LVL299:
 5130               	.L1016:
 5131               	.LBE765:
 5132               	.LBE764:
 5133               	.LBB767:
 5134               	.LBB768:
 5135               	.LM751:
 5136 1770 2FEF      		ldi r18,lo8(-1)
 5137 1772 2093 3909 		sts 2361,r18
 5138               	.LM752:
 5139 1776 2093 3B09 		sts 2363,r18
 5140               	.LM753:
 5141 177a 2093 3D09 		sts 2365,r18
 5142               	.LBE768:
 5143               	.LBE767:
 5144               	.LBB769:
 5145               	.LBB770:
 5146               	.LM754:
 5147 177e E0E4      		ldi r30,lo8(2112)
 5148 1780 F8E0      		ldi r31,hi8(2112)
 5149 1782 1682      		std Z+6,__zero_reg__
 5150               	.LBB771:
 5151               	.LBB772:
 5152               	.LM755:
 5153               	/* #APP */
 5154               	 ;  42 "ir.c" 1
 5155 1784 F894      		cli
 5156               	 ;  0 "" 2
 5157               	.LM756:
 5158               	/* #NOAPP */
 5159 1786 E0E0      		ldi r30,lo8(2048)
 5160 1788 F8E0      		ldi r31,hi8(2048)
 5161 178a 10A6      		std Z+40,__zero_reg__
 5162 178c 11A6      		std Z+41,__zero_reg__
 5163               	.LM757:
 5164               	/* #APP */
 5165               	 ;  44 "ir.c" 1
 5166 178e 7894      		sei
 5167               	 ;  0 "" 2
 5168               	.LVL300:
 5169               	/* #NOAPP */
 5170               	.L1015:
 5171               	.LBE772:
 5172               	.LBE771:
 5173               	.LBE770:
 5174               	.LBE769:
 5175               	.LBB773:
 5176               	.LBB774:
 5177               	.LM758:
 5178 1790 8091 B109 		lds r24,2481
 5179               	.LVL301:
 5180 1794 85FF      		sbrs r24,5
 5181 1796 00C0      		rjmp .L1015
 5182               	.LM759:
 5183 1798 32E4      		ldi r19,lo8(66)
 5184 179a 3093 B009 		sts 2480,r19
 5185               	.L425:
 5186               	.LBE774:
 5187               	.LBE773:
 5188               	.LBB775:
 5189               	.LBB776:
 5190               	.LM760:
 5191 179e 8091 B109 		lds r24,2481
 5192 17a2 85FF      		sbrs r24,5
 5193 17a4 00C0      		rjmp .L425
 5194               	.LM761:
 5195 17a6 4CE4      		ldi r20,lo8(76)
 5196 17a8 4093 B009 		sts 2480,r20
 5197               	.LBE776:
 5198               	.LBE775:
 5199               	.LBB777:
 5200               	.LBB778:
 5201               	.LM762:
 5202 17ac 9091 0000 		lds r25,BT_data+258
 5203               	.LVL302:
 5204               	.LM763:
 5205 17b0 8091 0000 		lds r24,BT_data+259
 5206               	.LVL303:
 5207               	.LBE778:
 5208               	.LBE777:
 5209               	.LM764:
 5210 17b4 9817      		cp r25,r24
 5211 17b6 01F0      		breq .L426
 5212               	.LBB779:
 5213               	.LBB780:
 5214               	.LM765:
 5215 17b8 E091 0000 		lds r30,BT_data+259
 5216               	.LVL304:
 5217 17bc F0E0      		ldi r31,lo8(0)
 5218 17be E050      		subi r30,lo8(-(BT_data))
 5219 17c0 F040      		sbci r31,hi8(-(BT_data))
 5220 17c2 9281      		ldd r25,Z+2
 5221               	.LVL305:
 5222               	.LM766:
 5223 17c4 8091 0000 		lds r24,BT_data+259
 5224               	.LVL306:
 5225 17c8 8F5F      		subi r24,lo8(-(1))
 5226 17ca 8093 0000 		sts BT_data+259,r24
 5227               	.L427:
 5228               	.LBE780:
 5229               	.LBE779:
 5230               	.LBB781:
 5231               	.LBB782:
 5232               	.LM767:
 5233 17ce 8091 B109 		lds r24,2481
 5234 17d2 85FF      		sbrs r24,5
 5235 17d4 00C0      		rjmp .L427
 5236               	.LM768:
 5237 17d6 9093 B009 		sts 2480,r25
 5238               	.LBE782:
 5239               	.LBE781:
 5240               	.LM769:
 5241 17da 9A32      		cpi r25,lo8(42)
 5242 17dc 01F0      		breq .L428
 5243               	.LVL307:
 5244               	.L426:
 5245 17de 88E8      		ldi r24,lo8(5000)
 5246 17e0 93E1      		ldi r25,hi8(5000)
 5247               	.LVL308:
 5248               	.L429:
 5249               	.LBB783:
 5250               	.LBB784:
 5251               	.LBB785:
 5252               	.LBB786:
 5253               	.LM770:
 5254 17e2 E0E2      		ldi r30,lo8(800)
 5255 17e4 F3E0      		ldi r31,hi8(800)
 5256               	/* #APP */
 5257               	 ;  105 "c:/winavr-20100110/lib/gcc/../../avr/include/util/delay_basic.h" 1
 5258 17e6 3197      		1: sbiw r30,1
 5259 17e8 01F4      		brne 1b
 5260               	 ;  0 "" 2
 5261               	/* #NOAPP */
 5262               	.LBE786:
 5263               	.LBE785:
 5264               	.LM771:
 5265 17ea 0197      		sbiw r24,1
 5266               	.LM772:
 5267 17ec 01F4      		brne .L429
 5268 17ee 00C0      		rjmp .L1015
 5269               	.LVL309:
 5270               	.L428:
 5271 17f0 80E0      		ldi r24,lo8(0)
 5272 17f2 90E0      		ldi r25,hi8(0)
 5273 17f4 A0E0      		ldi r26,hlo8(0)
 5274 17f6 B0E0      		ldi r27,hhi8(0)
 5275               	.LVL310:
 5276               	.LVL311:
 5277               	.L711:
 5278               	.LBE784:
 5279               	.LBE783:
 5280               	.LM773:
 5281 17f8 9C01      		movw r18,r24
 5282 17fa AD01      		movw r20,r26
 5283 17fc 2F5F      		subi r18,lo8(-(1))
 5284 17fe 3F4F      		sbci r19,hi8(-(1))
 5285 1800 4F4F      		sbci r20,hlo8(-(1))
 5286 1802 5F4F      		sbci r21,hhi8(-(1))
 5287 1804 28A3      		std Y+32,r18
 5288 1806 39A3      		std Y+33,r19
 5289 1808 4AA3      		std Y+34,r20
 5290 180a 5BA3      		std Y+35,r21
 5291               	.LVL312:
 5292               	.LBB787:
 5293               	.LBB788:
 5294               	.LM774:
 5295 180c 9091 0000 		lds r25,BT_data+258
 5296               	.LVL313:
 5297               	.LM775:
 5298 1810 8091 0000 		lds r24,BT_data+259
 5299               	.LVL314:
 5300               	.LBE788:
 5301               	.LBE787:
 5302               	.LM776:
 5303 1814 9817      		cp r25,r24
 5304 1816 01F4      		brne .+4
 5305 1818 0C94 0000 		jmp .L430
 5306               	.LBB789:
 5307               	.LBB790:
 5308               	.LM777:
 5309 181c E091 0000 		lds r30,BT_data+259
 5310 1820 F0E0      		ldi r31,lo8(0)
 5311 1822 E050      		subi r30,lo8(-(BT_data))
 5312 1824 F040      		sbci r31,hi8(-(BT_data))
 5313 1826 9281      		ldd r25,Z+2
 5314               	.LVL315:
 5315               	.LM778:
 5316 1828 8091 0000 		lds r24,BT_data+259
 5317               	.LVL316:
 5318 182c 8F5F      		subi r24,lo8(-(1))
 5319 182e 8093 0000 		sts BT_data+259,r24
 5320               	.LBE790:
 5321               	.LBE789:
 5322               	.LM779:
 5323 1832 9923      		tst r25
 5324 1834 01F4      		brne .+4
 5325 1836 0C94 0000 		jmp .L430
 5326               	.L796:
 5327               	.LBB791:
 5328               	.LBB792:
 5329               	.LM780:
 5330 183a 8091 B109 		lds r24,2481
 5331 183e 85FF      		sbrs r24,5
 5332 1840 00C0      		rjmp .L796
 5333               	.LM781:
 5334 1842 9093 B009 		sts 2480,r25
 5335               	.LBE792:
 5336               	.LBE791:
 5337               	.LM782:
 5338 1846 9335      		cpi r25,lo8(83)
 5339 1848 01F4      		brne .+2
 5340 184a 00C0      		rjmp .L445
 5341 184c 9435      		cpi r25,lo8(84)
 5342 184e 00F4      		brsh .L458
 5343 1850 9934      		cpi r25,lo8(73)
 5344 1852 01F4      		brne .+2
 5345 1854 00C0      		rjmp .L440
 5346 1856 9A34      		cpi r25,lo8(74)
 5347 1858 00F4      		brsh .L459
 5348 185a 9234      		cpi r25,lo8(66)
 5349 185c 01F4      		brne .+2
 5350 185e 00C0      		rjmp .L437
 5351 1860 9334      		cpi r25,lo8(67)
 5352 1862 00F4      		brsh .L460
 5353 1864 9E33      		cpi r25,lo8(62)
 5354 1866 01F4      		brne .+2
 5355 1868 00C0      		rjmp .L435
 5356 186a 9F33      		cpi r25,lo8(63)
 5357 186c 00F4      		brsh .L461
 5358 186e 9132      		cpi r25,lo8(33)
 5359 1870 01F4      		brne .+2
 5360 1872 00C0      		rjmp .L433
 5361 1874 9C33      		cpi r25,lo8(60)
 5362 1876 01F0      		breq .+4
 5363 1878 0C94 0000 		jmp .L432
 5364 187c 00C0      		rjmp .L1026
 5365               	.L461:
 5366 187e 9134      		cpi r25,lo8(65)
 5367 1880 01F0      		breq .+4
 5368 1882 0C94 0000 		jmp .L432
 5369 1886 00C0      		rjmp .L1027
 5370               	.L460:
 5371 1888 9334      		cpi r25,lo8(67)
 5372 188a 01F4      		brne .+2
 5373 188c 00C0      		rjmp .L438
 5374 188e 9734      		cpi r25,lo8(71)
 5375 1890 01F0      		breq .+4
 5376 1892 0C94 0000 		jmp .L432
 5377 1896 00C0      		rjmp .L1028
 5378               	.L459:
 5379 1898 9035      		cpi r25,lo8(80)
 5380 189a 01F4      		brne .+2
 5381 189c 00C0      		rjmp .L443
 5382 189e 9135      		cpi r25,lo8(81)
 5383 18a0 00F4      		brsh .L462
 5384 18a2 9C34      		cpi r25,lo8(76)
 5385 18a4 01F4      		brne .+2
 5386 18a6 00C0      		rjmp .L441
 5387 18a8 9F34      		cpi r25,lo8(79)
 5388 18aa 01F0      		breq .+4
 5389 18ac 0C94 0000 		jmp .L432
 5390 18b0 00C0      		rjmp .L1029
 5391               	.L462:
 5392 18b2 9135      		cpi r25,lo8(81)
 5393 18b4 01F4      		brne .+2
 5394 18b6 00C0      		rjmp .L1016
 5395 18b8 9235      		cpi r25,lo8(82)
 5396 18ba 01F0      		breq .+4
 5397 18bc 0C94 0000 		jmp .L432
 5398 18c0 00C0      		rjmp .L1030
 5399               	.L458:
 5400 18c2 9436      		cpi r25,lo8(100)
 5401 18c4 01F4      		brne .+2
 5402 18c6 00C0      		rjmp .L451
 5403 18c8 9536      		cpi r25,lo8(101)
 5404 18ca 00F4      		brsh .L463
 5405 18cc 9835      		cpi r25,lo8(88)
 5406 18ce 01F4      		brne .+2
 5407 18d0 00C0      		rjmp .L448
 5408 18d2 9935      		cpi r25,lo8(89)
 5409 18d4 00F4      		brsh .L464
 5410 18d6 9435      		cpi r25,lo8(84)
 5411 18d8 01F4      		brne .+2
 5412 18da 00C0      		rjmp .L446
 5413 18dc 9635      		cpi r25,lo8(86)
 5414 18de 01F0      		breq .+4
 5415 18e0 0C94 0000 		jmp .L432
 5416 18e4 00C0      		rjmp .L1031
 5417               	.L464:
 5418 18e6 9A35      		cpi r25,lo8(90)
 5419 18e8 01F4      		brne .+4
 5420 18ea 0C94 0000 		jmp .L1014
 5421 18ee 9236      		cpi r25,lo8(98)
 5422 18f0 01F0      		breq .+4
 5423 18f2 0C94 0000 		jmp .L432
 5424 18f6 00C0      		rjmp .L1032
 5425               	.L463:
 5426 18f8 9037      		cpi r25,lo8(112)
 5427 18fa 01F4      		brne .+2
 5428 18fc 00C0      		rjmp .L454
 5429 18fe 9137      		cpi r25,lo8(113)
 5430 1900 00F4      		brsh .L465
 5431 1902 9736      		cpi r25,lo8(103)
 5432 1904 01F4      		brne .+2
 5433 1906 00C0      		rjmp .L452
 5434 1908 9936      		cpi r25,lo8(105)
 5435 190a 01F0      		breq .+4
 5436 190c 0C94 0000 		jmp .L432
 5437 1910 00C0      		rjmp .L1033
 5438               	.L465:
 5439 1912 9337      		cpi r25,lo8(115)
 5440 1914 01F4      		brne .+2
 5441 1916 00C0      		rjmp .L456
 5442 1918 9437      		cpi r25,lo8(116)
 5443 191a 01F4      		brne .+4
 5444 191c 0C94 0000 		jmp .L457
 5445 1920 9237      		cpi r25,lo8(114)
 5446 1922 01F0      		breq .+4
 5447 1924 0C94 0000 		jmp .L432
 5448 1928 20E0      		ldi r18,lo8(0)
 5449               	.LVL317:
 5450 192a 0C94 0000 		jmp .L466
 5451               	.LVL318:
 5452               	.L1033:
 5453 192e 00E0      		ldi r16,lo8(0)
 5454 1930 10E0      		ldi r17,hi8(0)
 5455               	.LVL319:
 5456 1932 00C0      		rjmp .L467
 5457               	.LVL320:
 5458               	.L1027:
 5459               	.LM783:
 5460 1934 0E94 0000 		call updateAccel
 5461               	.LVL321:
 5462               	.LM784:
 5463 1938 9091 0000 		lds r25,_acc
 5464               	.L468:
 5465               	.LBB793:
 5466               	.LBB794:
 5467               	.LM785:
 5468 193c 8091 B109 		lds r24,2481
 5469 1940 85FF      		sbrs r24,5
 5470 1942 00C0      		rjmp .L468
 5471               	.LM786:
 5472 1944 9093 B009 		sts 2480,r25
 5473               	.LBE794:
 5474               	.LBE793:
 5475               	.LM787:
 5476 1948 9091 0000 		lds r25,_acc+1
 5477               	.L469:
 5478               	.LBB795:
 5479               	.LBB796:
 5480               	.LM788:
 5481 194c 8091 B109 		lds r24,2481
 5482 1950 85FF      		sbrs r24,5
 5483 1952 00C0      		rjmp .L469
 5484               	.LM789:
 5485 1954 9093 B009 		sts 2480,r25
 5486               	.LBE796:
 5487               	.LBE795:
 5488               	.LM790:
 5489 1958 9091 0000 		lds r25,_acc+2
 5490               	.L470:
 5491               	.LBB797:
 5492               	.LBB798:
 5493               	.LM791:
 5494 195c 8091 B109 		lds r24,2481
 5495 1960 85FF      		sbrs r24,5
 5496 1962 00C0      		rjmp .L470
 5497               	.LM792:
 5498 1964 9093 B009 		sts 2480,r25
 5499               	.LBE798:
 5500               	.LBE797:
 5501               	.LM793:
 5502 1968 9091 0000 		lds r25,_acc+3
 5503               	.L471:
 5504               	.LBB799:
 5505               	.LBB800:
 5506               	.LM794:
 5507 196c 8091 B109 		lds r24,2481
 5508 1970 85FF      		sbrs r24,5
 5509 1972 00C0      		rjmp .L471
 5510 1974 00C0      		rjmp .L1023
 5511               	.LVL322:
 5512               	.L437:
 5513               	.LBE800:
 5514               	.LBE799:
 5515               	.LM795:
 5516 1976 80EB      		ldi r24,lo8(2480)
 5517 1978 99E0      		ldi r25,hi8(2480)
 5518 197a 0E94 0000 		call uart_getchar_timeout
 5519               	.LVL323:
 5520 197e 8C01      		movw r16,r24
 5521               	.LVL324:
 5522               	.LM796:
 5523 1980 31E0      		ldi r19,hi8(256)
 5524 1982 8030      		cpi r24,lo8(256)
 5525 1984 9307      		cpc r25,r19
 5526 1986 01F4      		brne .L781
 5527               	.LVL325:
 5528               	.L778:
 5529               	.LBB801:
 5530               	.LBB802:
 5531               	.LM797:
 5532 1988 8091 B109 		lds r24,2481
 5533               	.LVL326:
 5534 198c 85FF      		sbrs r24,5
 5535 198e 00C0      		rjmp .L778
 5536               	.LM798:
 5537 1990 8092 B009 		sts 2480,r8
 5538               	.L475:
 5539               	.LBE802:
 5540               	.LBE801:
 5541               	.LBB803:
 5542               	.LBB804:
 5543               	.LM799:
 5544 1994 8091 B109 		lds r24,2481
 5545 1998 85FF      		sbrs r24,5
 5546 199a 00C0      		rjmp .L475
 5547               	.LM800:
 5548 199c 9092 B009 		sts 2480,r9
 5549               	.L476:
 5550               	.LBE804:
 5551               	.LBE803:
 5552               	.LBB805:
 5553               	.LBB806:
 5554               	.LM801:
 5555 19a0 8091 B109 		lds r24,2481
 5556 19a4 85FF      		sbrs r24,5
 5557 19a6 00C0      		rjmp .L476
 5558 19a8 0C94 0000 		jmp .L1018
 5559               	.LVL327:
 5560               	.L781:
 5561               	.LBE806:
 5562               	.LBE805:
 5563               	.LBB807:
 5564               	.LBB808:
 5565 19ac 8091 B109 		lds r24,2481
 5566               	.LVL328:
 5567 19b0 85FF      		sbrs r24,5
 5568 19b2 00C0      		rjmp .L781
 5569               	.LM802:
 5570 19b4 0093 B009 		sts 2480,r16
 5571               	.LBE808:
 5572               	.LBE807:
 5573               	.LM803:
 5574 19b8 80EB      		ldi r24,lo8(2480)
 5575 19ba 99E0      		ldi r25,hi8(2480)
 5576 19bc 0E94 0000 		call uart_getchar_timeout
 5577 19c0 9C01      		movw r18,r24
 5578 19c2 6C01      		movw r12,r24
 5579               	.LM804:
 5580 19c4 41E0      		ldi r20,hi8(256)
 5581 19c6 8030      		cpi r24,lo8(256)
 5582 19c8 9407      		cpc r25,r20
 5583 19ca 01F4      		brne .L780
 5584               	.LVL329:
 5585               	.L779:
 5586               	.LBB809:
 5587               	.LBB810:
 5588               	.LM805:
 5589 19cc 8091 B109 		lds r24,2481
 5590 19d0 85FF      		sbrs r24,5
 5591 19d2 00C0      		rjmp .L779
 5592               	.LM806:
 5593 19d4 8092 B009 		sts 2480,r8
 5594               	.L479:
 5595               	.LBE810:
 5596               	.LBE809:
 5597               	.LBB811:
 5598               	.LBB812:
 5599               	.LM807:
 5600 19d8 8091 B109 		lds r24,2481
 5601 19dc 85FF      		sbrs r24,5
 5602 19de 00C0      		rjmp .L479
 5603               	.LM808:
 5604 19e0 9092 B009 		sts 2480,r9
 5605               	.L480:
 5606               	.LBE812:
 5607               	.LBE811:
 5608               	.LBB813:
 5609               	.LBB814:
 5610               	.LM809:
 5611 19e4 8091 B109 		lds r24,2481
 5612 19e8 85FF      		sbrs r24,5
 5613 19ea 00C0      		rjmp .L480
 5614 19ec 0C94 0000 		jmp .L1018
 5615               	.LVL330:
 5616               	.L780:
 5617               	.LBE814:
 5618               	.LBE813:
 5619               	.LBB815:
 5620               	.LBB816:
 5621 19f0 8091 B109 		lds r24,2481
 5622 19f4 85FF      		sbrs r24,5
 5623 19f6 00C0      		rjmp .L780
 5624               	.LM810:
 5625 19f8 2093 B009 		sts 2480,r18
 5626               	.LBE816:
 5627               	.LBE815:
 5628               	.LM811:
 5629 19fc 902F      		mov r25,r16
 5630 19fe 8827      		clr r24
 5631 1a00 280F      		add r18,r24
 5632 1a02 391F      		adc r19,r25
 5633               	.LVL331:
 5634               	.LBB817:
 5635               	.LBB818:
 5636               	.LM812:
 5637 1a04 8091 4109 		lds r24,2369
 5638 1a08 8061      		ori r24,lo8(16)
 5639 1a0a 8093 4109 		sts 2369,r24
 5640               	.LM813:
 5641               	/* #APP */
 5642               	 ;  20 "buzzer.c" 1
 5643 1a0e F894      		cli
 5644               	 ;  0 "" 2
 5645               	.LM814:
 5646               	/* #NOAPP */
 5647 1a10 2093 6809 		sts 2408,r18
 5648 1a14 3093 6909 		sts (2408)+1,r19
 5649               	.LM815:
 5650               	/* #APP */
 5651               	 ;  22 "buzzer.c" 1
 5652 1a18 7894      		sei
 5653               	 ;  0 "" 2
 5654               	/* #NOAPP */
 5655 1a1a 00C0      		rjmp .L432
 5656               	.LVL332:
 5657               	.L1032:
 5658               	.LBE818:
 5659               	.LBE817:
 5660               	.LBB819:
 5661               	.LBB820:
 5662               	.LM816:
 5663 1a1c 8091 4109 		lds r24,2369
 5664 1a20 8F7E      		andi r24,lo8(-17)
 5665 1a22 8093 4109 		sts 2369,r24
 5666               	.LM817:
 5667 1a26 8091 6606 		lds r24,1638
 5668 1a2a 8061      		ori r24,lo8(16)
 5669 1a2c 8093 6606 		sts 1638,r24
 5670 1a30 00C0      		rjmp .L432
 5671               	.L441:
 5672               	.LBE820:
 5673               	.LBE819:
 5674               	.LM818:
 5675 1a32 80E3      		ldi r24,lo8(48)
 5676 1a34 0E94 0000 		call read_analog
 5677               	.LVL333:
 5678 1a38 982F      		mov r25,r24
 5679               	.L481:
 5680               	.LBB821:
 5681               	.LBB822:
 5682               	.LM819:
 5683 1a3a 8091 B109 		lds r24,2481
 5684 1a3e 85FF      		sbrs r24,5
 5685 1a40 00C0      		rjmp .L481
 5686 1a42 00C0      		rjmp .L1023
 5687               	.LVL334:
 5688               	.L446:
 5689               	.LBE822:
 5690               	.LBE821:
 5691               	.LM820:
 5692 1a44 0E94 0000 		call read_internal_temperature
 5693               	.LVL335:
 5694 1a48 982F      		mov r25,r24
 5695               	.L482:
 5696               	.LBB823:
 5697               	.LBB824:
 5698               	.LM821:
 5699 1a4a 8091 B109 		lds r24,2481
 5700 1a4e 85FF      		sbrs r24,5
 5701 1a50 00C0      		rjmp .L482
 5702 1a52 00C0      		rjmp .L1023
 5703               	.LVL336:
 5704               	.L1031:
 5705               	.LBE824:
 5706               	.LBE823:
 5707               	.LM822:
 5708 1a54 88E3      		ldi r24,lo8(56)
 5709 1a56 0E94 0000 		call read_analog
 5710               	.LVL337:
 5711 1a5a 982F      		mov r25,r24
 5712               	.L483:
 5713               	.LBB825:
 5714               	.LBB826:
 5715               	.LM823:
 5716 1a5c 8091 B109 		lds r24,2481
 5717 1a60 85FF      		sbrs r24,5
 5718 1a62 00C0      		rjmp .L483
 5719 1a64 00C0      		rjmp .L1023
 5720               	.LVL338:
 5721               	.L448:
 5722               	.LBE826:
 5723               	.LBE825:
 5724               	.LM824:
 5725 1a66 80E0      		ldi r24,lo8(0)
 5726 1a68 0E94 0000 		call read_analog
 5727               	.LVL339:
 5728 1a6c 982F      		mov r25,r24
 5729               	.L484:
 5730               	.LBB827:
 5731               	.LBB828:
 5732               	.LM825:
 5733 1a6e 8091 B109 		lds r24,2481
 5734 1a72 85FF      		sbrs r24,5
 5735 1a74 00C0      		rjmp .L484
 5736               	.LM826:
 5737 1a76 9093 B009 		sts 2480,r25
 5738               	.LBE828:
 5739               	.LBE827:
 5740               	.LM827:
 5741 1a7a 88E0      		ldi r24,lo8(8)
 5742 1a7c 0E94 0000 		call read_analog
 5743 1a80 982F      		mov r25,r24
 5744               	.L485:
 5745               	.LBB829:
 5746               	.LBB830:
 5747               	.LM828:
 5748 1a82 8091 B109 		lds r24,2481
 5749 1a86 85FF      		sbrs r24,5
 5750 1a88 00C0      		rjmp .L485
 5751               	.LM829:
 5752 1a8a 9093 B009 		sts 2480,r25
 5753               	.LBE830:
 5754               	.LBE829:
 5755               	.LM830:
 5756 1a8e 80E1      		ldi r24,lo8(16)
 5757 1a90 0E94 0000 		call read_analog
 5758 1a94 982F      		mov r25,r24
 5759               	.L486:
 5760               	.LBB831:
 5761               	.LBB832:
 5762               	.LM831:
 5763 1a96 8091 B109 		lds r24,2481
 5764 1a9a 85FF      		sbrs r24,5
 5765 1a9c 00C0      		rjmp .L486
 5766               	.LM832:
 5767 1a9e 9093 B009 		sts 2480,r25
 5768               	.LBE832:
 5769               	.LBE831:
 5770               	.LM833:
 5771 1aa2 88E1      		ldi r24,lo8(24)
 5772 1aa4 0E94 0000 		call read_analog
 5773 1aa8 982F      		mov r25,r24
 5774               	.L487:
 5775               	.LBB833:
 5776               	.LBB834:
 5777               	.LM834:
 5778 1aaa 8091 B109 		lds r24,2481
 5779 1aae 85FF      		sbrs r24,5
 5780 1ab0 00C0      		rjmp .L487
 5781               	.LM835:
 5782 1ab2 9093 B009 		sts 2480,r25
 5783               	.LBE834:
 5784               	.LBE833:
 5785               	.LM836:
 5786 1ab6 80E2      		ldi r24,lo8(32)
 5787 1ab8 0E94 0000 		call read_analog
 5788 1abc 982F      		mov r25,r24
 5789               	.L488:
 5790               	.LBB835:
 5791               	.LBB836:
 5792               	.LM837:
 5793 1abe 8091 B109 		lds r24,2481
 5794 1ac2 85FF      		sbrs r24,5
 5795 1ac4 00C0      		rjmp .L488
 5796               	.LM838:
 5797 1ac6 9093 B009 		sts 2480,r25
 5798               	.LBE836:
 5799               	.LBE835:
 5800               	.LM839:
 5801 1aca 80E2      		ldi r24,lo8(32)
 5802 1acc 0E94 0000 		call read_analog
 5803 1ad0 982F      		mov r25,r24
 5804               	.L489:
 5805               	.LBB837:
 5806               	.LBB838:
 5807               	.LM840:
 5808 1ad2 8091 B109 		lds r24,2481
 5809 1ad6 85FF      		sbrs r24,5
 5810 1ad8 00C0      		rjmp .L489
 5811               	.L1023:
 5812               	.LM841:
 5813 1ada 9093 B009 		sts 2480,r25
 5814 1ade 00C0      		rjmp .L432
 5815               	.LVL340:
 5816               	.L1029:
 5817               	.LBE838:
 5818               	.LBE837:
 5819               	.LM842:
 5820 1ae0 80EB      		ldi r24,lo8(2480)
 5821 1ae2 99E0      		ldi r25,hi8(2480)
 5822 1ae4 0E94 0000 		call uart_getchar_timeout
 5823               	.LVL341:
 5824               	.LM843:
 5825 1ae8 51E0      		ldi r21,hi8(256)
 5826 1aea 8030      		cpi r24,lo8(256)
 5827 1aec 9507      		cpc r25,r21
 5828               	.LVL342:
 5829 1aee 01F4      		brne .L490
 5830               	.L775:
 5831               	.LBB839:
 5832               	.LBB840:
 5833               	.LM844:
 5834 1af0 8091 B109 		lds r24,2481
 5835               	.LVL343:
 5836 1af4 85FF      		sbrs r24,5
 5837 1af6 00C0      		rjmp .L775
 5838               	.LM845:
 5839 1af8 8092 B009 		sts 2480,r8
 5840               	.L492:
 5841               	.LBE840:
 5842               	.LBE839:
 5843               	.LBB841:
 5844               	.LBB842:
 5845               	.LM846:
 5846 1afc 8091 B109 		lds r24,2481
 5847 1b00 85FF      		sbrs r24,5
 5848 1b02 00C0      		rjmp .L492
 5849               	.LM847:
 5850 1b04 9092 B009 		sts 2480,r9
 5851               	.L493:
 5852               	.LBE842:
 5853               	.LBE841:
 5854               	.LBB843:
 5855               	.LBB844:
 5856               	.LM848:
 5857 1b08 8091 B109 		lds r24,2481
 5858 1b0c 85FF      		sbrs r24,5
 5859 1b0e 00C0      		rjmp .L493
 5860 1b10 00C0      		rjmp .L1018
 5861               	.LVL344:
 5862               	.L490:
 5863               	.LBE844:
 5864               	.LBE843:
 5865               	.LM849:
 5866 1b12 082F      		mov r16,r24
 5867               	.LVL345:
 5868               	.L494:
 5869               	.LBB845:
 5870               	.LBB846:
 5871               	.LM850:
 5872 1b14 8091 B109 		lds r24,2481
 5873               	.LVL346:
 5874 1b18 85FF      		sbrs r24,5
 5875 1b1a 00C0      		rjmp .L494
 5876               	.LM851:
 5877 1b1c 0093 B009 		sts 2480,r16
 5878               	.LBE846:
 5879               	.LBE845:
 5880               	.LM852:
 5881 1b20 80EB      		ldi r24,lo8(2480)
 5882 1b22 99E0      		ldi r25,hi8(2480)
 5883 1b24 0E94 0000 		call uart_getchar_timeout
 5884               	.LM853:
 5885 1b28 61E0      		ldi r22,hi8(256)
 5886 1b2a 8030      		cpi r24,lo8(256)
 5887 1b2c 9607      		cpc r25,r22
 5888               	.LVL347:
 5889 1b2e 01F4      		brne .L495
 5890               	.L776:
 5891               	.LBB847:
 5892               	.LBB848:
 5893               	.LM854:
 5894 1b30 8091 B109 		lds r24,2481
 5895               	.LVL348:
 5896 1b34 85FF      		sbrs r24,5
 5897 1b36 00C0      		rjmp .L776
 5898               	.LM855:
 5899 1b38 8092 B009 		sts 2480,r8
 5900               	.L497:
 5901               	.LBE848:
 5902               	.LBE847:
 5903               	.LBB849:
 5904               	.LBB850:
 5905               	.LM856:
 5906 1b3c 8091 B109 		lds r24,2481
 5907 1b40 85FF      		sbrs r24,5
 5908 1b42 00C0      		rjmp .L497
 5909               	.LM857:
 5910 1b44 9092 B009 		sts 2480,r9
 5911               	.L498:
 5912               	.LBE850:
 5913               	.LBE849:
 5914               	.LBB851:
 5915               	.LBB852:
 5916               	.LM858:
 5917 1b48 8091 B109 		lds r24,2481
 5918 1b4c 85FF      		sbrs r24,5
 5919 1b4e 00C0      		rjmp .L498
 5920 1b50 00C0      		rjmp .L1018
 5921               	.LVL349:
 5922               	.L495:
 5923               	.LBE852:
 5924               	.LBE851:
 5925               	.LM859:
 5926 1b52 182F      		mov r17,r24
 5927               	.L499:
 5928               	.LBB853:
 5929               	.LBB854:
 5930               	.LM860:
 5931 1b54 8091 B109 		lds r24,2481
 5932               	.LVL350:
 5933 1b58 85FF      		sbrs r24,5
 5934 1b5a 00C0      		rjmp .L499
 5935               	.LM861:
 5936 1b5c 1093 B009 		sts 2480,r17
 5937               	.LBE854:
 5938               	.LBE853:
 5939               	.LM862:
 5940 1b60 80EB      		ldi r24,lo8(2480)
 5941 1b62 99E0      		ldi r25,hi8(2480)
 5942 1b64 0E94 0000 		call uart_getchar_timeout
 5943               	.LM863:
 5944 1b68 E1E0      		ldi r30,hi8(256)
 5945 1b6a 8030      		cpi r24,lo8(256)
 5946 1b6c 9E07      		cpc r25,r30
 5947               	.LVL351:
 5948 1b6e 01F4      		brne .L500
 5949               	.L777:
 5950               	.LBB855:
 5951               	.LBB856:
 5952               	.LM864:
 5953 1b70 8091 B109 		lds r24,2481
 5954               	.LVL352:
 5955 1b74 85FF      		sbrs r24,5
 5956 1b76 00C0      		rjmp .L777
 5957               	.LM865:
 5958 1b78 8092 B009 		sts 2480,r8
 5959               	.L502:
 5960               	.LBE856:
 5961               	.LBE855:
 5962               	.LBB857:
 5963               	.LBB858:
 5964               	.LM866:
 5965 1b7c 8091 B109 		lds r24,2481
 5966 1b80 85FF      		sbrs r24,5
 5967 1b82 00C0      		rjmp .L502
 5968               	.LM867:
 5969 1b84 9092 B009 		sts 2480,r9
 5970               	.L503:
 5971               	.LBE858:
 5972               	.LBE857:
 5973               	.LBB859:
 5974               	.LBB860:
 5975               	.LM868:
 5976 1b88 8091 B109 		lds r24,2481
 5977 1b8c 85FF      		sbrs r24,5
 5978 1b8e 00C0      		rjmp .L503
 5979 1b90 00C0      		rjmp .L1018
 5980               	.LVL353:
 5981               	.L500:
 5982               	.LBE860:
 5983               	.LBE859:
 5984               	.LM869:
 5985 1b92 982F      		mov r25,r24
 5986               	.L504:
 5987               	.LBB861:
 5988               	.LBB862:
 5989               	.LM870:
 5990 1b94 8091 B109 		lds r24,2481
 5991               	.LVL354:
 5992 1b98 85FF      		sbrs r24,5
 5993 1b9a 00C0      		rjmp .L504
 5994               	.LM871:
 5995 1b9c 9093 B009 		sts 2480,r25
 5996               	.LBE862:
 5997               	.LBE861:
 5998               	.LBB863:
 5999               	.LBB864:
 6000               	.LM872:
 6001 1ba0 0095      		com r16
 6002 1ba2 0093 3909 		sts 2361,r16
 6003               	.LM873:
 6004 1ba6 9095      		com r25
 6005 1ba8 9093 3B09 		sts 2363,r25
 6006               	.LM874:
 6007 1bac 1095      		com r17
 6008 1bae 1093 3D09 		sts 2365,r17
 6009 1bb2 00C0      		rjmp .L432
 6010               	.LVL355:
 6011               	.L440:
 6012               	.LBE864:
 6013               	.LBE863:
 6014               	.LM875:
 6015 1bb4 80EB      		ldi r24,lo8(2480)
 6016 1bb6 99E0      		ldi r25,hi8(2480)
 6017 1bb8 0E94 0000 		call uart_getchar_timeout
 6018               	.LVL356:
 6019 1bbc 8C01      		movw r16,r24
 6020               	.LVL357:
 6021 1bbe 5C01      		movw r10,r24
 6022               	.LM876:
 6023 1bc0 F1E0      		ldi r31,hi8(256)
 6024 1bc2 8030      		cpi r24,lo8(256)
 6025 1bc4 9F07      		cpc r25,r31
 6026 1bc6 01F4      		brne .L770
 6027               	.L747:
 6028               	.LBB865:
 6029               	.LBB866:
 6030               	.LM877:
 6031 1bc8 8091 B109 		lds r24,2481
 6032 1bcc 85FF      		sbrs r24,5
 6033 1bce 00C0      		rjmp .L747
 6034               	.LM878:
 6035 1bd0 8092 B009 		sts 2480,r8
 6036               	.L507:
 6037               	.LBE866:
 6038               	.LBE865:
 6039               	.LBB867:
 6040               	.LBB868:
 6041               	.LM879:
 6042 1bd4 8091 B109 		lds r24,2481
 6043 1bd8 85FF      		sbrs r24,5
 6044 1bda 00C0      		rjmp .L507
 6045               	.LM880:
 6046 1bdc 9092 B009 		sts 2480,r9
 6047               	.L508:
 6048               	.LBE868:
 6049               	.LBE867:
 6050               	.LBB869:
 6051               	.LBB870:
 6052               	.LM881:
 6053 1be0 8091 B109 		lds r24,2481
 6054 1be4 85FF      		sbrs r24,5
 6055 1be6 00C0      		rjmp .L508
 6056 1be8 00C0      		rjmp .L1018
 6057               	.LVL358:
 6058               	.L770:
 6059               	.LBE870:
 6060               	.LBE869:
 6061               	.LBB871:
 6062               	.LBB872:
 6063 1bea 8091 B109 		lds r24,2481
 6064 1bee 85FF      		sbrs r24,5
 6065 1bf0 00C0      		rjmp .L770
 6066               	.LM882:
 6067 1bf2 0093 B009 		sts 2480,r16
 6068               	.LBE872:
 6069               	.LBE871:
 6070               	.LM883:
 6071 1bf6 80EB      		ldi r24,lo8(2480)
 6072 1bf8 99E0      		ldi r25,hi8(2480)
 6073 1bfa 0E94 0000 		call uart_getchar_timeout
 6074 1bfe 9C01      		movw r18,r24
 6075 1c00 6C01      		movw r12,r24
 6076               	.LM884:
 6077 1c02 41E0      		ldi r20,hi8(256)
 6078 1c04 8030      		cpi r24,lo8(256)
 6079 1c06 9407      		cpc r25,r20
 6080 1c08 01F4      		brne .L769
 6081               	.LVL359:
 6082               	.L748:
 6083               	.LBB873:
 6084               	.LBB874:
 6085               	.LM885:
 6086 1c0a 8091 B109 		lds r24,2481
 6087 1c0e 85FF      		sbrs r24,5
 6088 1c10 00C0      		rjmp .L748
 6089               	.LM886:
 6090 1c12 8092 B009 		sts 2480,r8
 6091               	.L511:
 6092               	.LBE874:
 6093               	.LBE873:
 6094               	.LBB875:
 6095               	.LBB876:
 6096               	.LM887:
 6097 1c16 8091 B109 		lds r24,2481
 6098 1c1a 85FF      		sbrs r24,5
 6099 1c1c 00C0      		rjmp .L511
 6100               	.LM888:
 6101 1c1e 9092 B009 		sts 2480,r9
 6102               	.L512:
 6103               	.LBE876:
 6104               	.LBE875:
 6105               	.LBB877:
 6106               	.LBB878:
 6107               	.LM889:
 6108 1c22 8091 B109 		lds r24,2481
 6109 1c26 85FF      		sbrs r24,5
 6110 1c28 00C0      		rjmp .L512
 6111 1c2a 00C0      		rjmp .L1018
 6112               	.LVL360:
 6113               	.L769:
 6114               	.LBE878:
 6115               	.LBE877:
 6116               	.LBB879:
 6117               	.LBB880:
 6118 1c2c 8091 B109 		lds r24,2481
 6119 1c30 85FF      		sbrs r24,5
 6120 1c32 00C0      		rjmp .L769
 6121               	.LM890:
 6122 1c34 2093 B009 		sts 2480,r18
 6123               	.LBE880:
 6124               	.LBE879:
 6125               	.LM891:
 6126 1c38 902F      		mov r25,r16
 6127 1c3a 8827      		clr r24
 6128 1c3c 820F      		add r24,r18
 6129 1c3e 931F      		adc r25,r19
 6130 1c40 8093 0000 		sts robotData,r24
 6131 1c44 9093 0000 		sts (robotData)+1,r25
 6132               	.LBB881:
 6133               	.LBB882:
 6134               	.LM892:
 6135               	/* #APP */
 6136               	 ;  50 "ir.c" 1
 6137 1c48 F894      		cli
 6138               	 ;  0 "" 2
 6139               	.LM893:
 6140               	/* #NOAPP */
 6141 1c4a 8093 3608 		sts 2102,r24
 6142 1c4e 9093 3708 		sts (2102)+1,r25
 6143               	.LM894:
 6144               	/* #APP */
 6145               	 ;  52 "ir.c" 1
 6146 1c52 7894      		sei
 6147               	 ;  0 "" 2
 6148               	/* #NOAPP */
 6149               	.LBE882:
 6150               	.LBE881:
 6151               	.LM895:
 6152 1c54 80EB      		ldi r24,lo8(2480)
 6153 1c56 99E0      		ldi r25,hi8(2480)
 6154 1c58 0E94 0000 		call uart_getchar_timeout
 6155 1c5c 6C01      		movw r12,r24
 6156               	.LM896:
 6157 1c5e 51E0      		ldi r21,hi8(256)
 6158 1c60 8030      		cpi r24,lo8(256)
 6159 1c62 9507      		cpc r25,r21
 6160 1c64 01F4      		brne .L513
 6161               	.L749:
 6162               	.LBB883:
 6163               	.LBB884:
 6164               	.LM897:
 6165 1c66 8091 B109 		lds r24,2481
 6166 1c6a 85FF      		sbrs r24,5
 6167 1c6c 00C0      		rjmp .L749
 6168               	.LM898:
 6169 1c6e 8092 B009 		sts 2480,r8
 6170               	.L515:
 6171               	.LBE884:
 6172               	.LBE883:
 6173               	.LBB885:
 6174               	.LBB886:
 6175               	.LM899:
 6176 1c72 8091 B109 		lds r24,2481
 6177 1c76 85FF      		sbrs r24,5
 6178 1c78 00C0      		rjmp .L515
 6179               	.LM900:
 6180 1c7a 9092 B009 		sts 2480,r9
 6181               	.L516:
 6182               	.LBE886:
 6183               	.LBE885:
 6184               	.LBB887:
 6185               	.LBB888:
 6186               	.LM901:
 6187 1c7e 8091 B109 		lds r24,2481
 6188 1c82 85FF      		sbrs r24,5
 6189 1c84 00C0      		rjmp .L516
 6190 1c86 00C0      		rjmp .L1018
 6191               	.LVL361:
 6192               	.L513:
 6193               	.LBE888:
 6194               	.LBE887:
 6195               	.LM902:
 6196 1c88 982F      		mov r25,r24
 6197 1c8a C092 0000 		sts robotData+2,r12
 6198               	.LVL362:
 6199               	.L517:
 6200               	.LBB889:
 6201               	.LBB890:
 6202               	.LM903:
 6203 1c8e 8091 B109 		lds r24,2481
 6204 1c92 85FF      		sbrs r24,5
 6205 1c94 00C0      		rjmp .L517
 6206               	.LM904:
 6207 1c96 9093 B009 		sts 2480,r25
 6208               	.LBE890:
 6209               	.LBE889:
 6210               	.LM905:
 6211 1c9a 9131      		cpi r25,lo8(17)
 6212 1c9c 00F4      		brsh .L750
 6213 1c9e F0E0      		ldi r31,lo8(robotData+3)
 6214 1ca0 6F2E      		mov r6,r31
 6215 1ca2 F0E0      		ldi r31,hi8(robotData+3)
 6216 1ca4 7F2E      		mov r7,r31
 6217 1ca6 00E0      		ldi r16,lo8(0)
 6218 1ca8 10E0      		ldi r17,hi8(0)
 6219               	.LVL363:
 6220 1caa 00C0      		rjmp .L519
 6221               	.LVL364:
 6222               	.L750:
 6223               	.LBB891:
 6224               	.LBB892:
 6225               	.LM906:
 6226 1cac 8091 B109 		lds r24,2481
 6227 1cb0 85FF      		sbrs r24,5
 6228 1cb2 00C0      		rjmp .L750
 6229 1cb4 00C0      		rjmp .L1018
 6230               	.LVL365:
 6231               	.L528:
 6232               	.LBE892:
 6233               	.LBE891:
 6234               	.LM907:
 6235 1cb6 80EB      		ldi r24,lo8(2480)
 6236 1cb8 99E0      		ldi r25,hi8(2480)
 6237 1cba 0E94 0000 		call uart_getchar_timeout
 6238               	.LVL366:
 6239 1cbe F82E      		mov r15,r24
 6240               	.LVL367:
 6241 1cc0 5C01      		movw r10,r24
 6242               	.LM908:
 6243 1cc2 60E0      		ldi r22,lo8(256)
 6244 1cc4 A616      		cp r10,r22
 6245 1cc6 61E0      		ldi r22,hi8(256)
 6246 1cc8 B606      		cpc r11,r22
 6247 1cca 01F4      		brne .L768
 6248               	.LVL368:
 6249               	.L751:
 6250               	.LBB893:
 6251               	.LBB894:
 6252               	.LM909:
 6253 1ccc 8091 B109 		lds r24,2481
 6254 1cd0 85FF      		sbrs r24,5
 6255 1cd2 00C0      		rjmp .L751
 6256               	.LM910:
 6257 1cd4 8092 B009 		sts 2480,r8
 6258               	.L522:
 6259               	.LBE894:
 6260               	.LBE893:
 6261               	.LBB895:
 6262               	.LBB896:
 6263               	.LM911:
 6264 1cd8 8091 B109 		lds r24,2481
 6265 1cdc 85FF      		sbrs r24,5
 6266 1cde 00C0      		rjmp .L522
 6267               	.LM912:
 6268 1ce0 9092 B009 		sts 2480,r9
 6269               	.L523:
 6270               	.LBE896:
 6271               	.LBE895:
 6272               	.LBB897:
 6273               	.LBB898:
 6274               	.LM913:
 6275 1ce4 8091 B109 		lds r24,2481
 6276 1ce8 85FF      		sbrs r24,5
 6277 1cea 00C0      		rjmp .L523
 6278 1cec 00C0      		rjmp .L1018
 6279               	.LVL369:
 6280               	.L768:
 6281               	.LBE898:
 6282               	.LBE897:
 6283               	.LBB899:
 6284               	.LBB900:
 6285 1cee 8091 B109 		lds r24,2481
 6286 1cf2 85FF      		sbrs r24,5
 6287 1cf4 00C0      		rjmp .L768
 6288               	.LM914:
 6289 1cf6 F092 B009 		sts 2480,r15
 6290               	.LBE900:
 6291               	.LBE899:
 6292               	.LM915:
 6293 1cfa 80EB      		ldi r24,lo8(2480)
 6294 1cfc 99E0      		ldi r25,hi8(2480)
 6295 1cfe 0E94 0000 		call uart_getchar_timeout
 6296 1d02 9C01      		movw r18,r24
 6297 1d04 6C01      		movw r12,r24
 6298               	.LM916:
 6299 1d06 81E0      		ldi r24,hi8(256)
 6300 1d08 2030      		cpi r18,lo8(256)
 6301 1d0a 3807      		cpc r19,r24
 6302 1d0c 01F4      		brne .L767
 6303               	.LVL370:
 6304               	.L752:
 6305               	.LBB901:
 6306               	.LBB902:
 6307               	.LM917:
 6308 1d0e 8091 B109 		lds r24,2481
 6309 1d12 85FF      		sbrs r24,5
 6310 1d14 00C0      		rjmp .L752
 6311               	.LM918:
 6312 1d16 8092 B009 		sts 2480,r8
 6313               	.L526:
 6314               	.LBE902:
 6315               	.LBE901:
 6316               	.LBB903:
 6317               	.LBB904:
 6318               	.LM919:
 6319 1d1a 8091 B109 		lds r24,2481
 6320 1d1e 85FF      		sbrs r24,5
 6321 1d20 00C0      		rjmp .L526
 6322               	.LM920:
 6323 1d22 9092 B009 		sts 2480,r9
 6324               	.L527:
 6325               	.LBE904:
 6326               	.LBE903:
 6327               	.LBB905:
 6328               	.LBB906:
 6329               	.LM921:
 6330 1d26 8091 B109 		lds r24,2481
 6331 1d2a 85FF      		sbrs r24,5
 6332 1d2c 00C0      		rjmp .L527
 6333 1d2e 00C0      		rjmp .L1018
 6334               	.L767:
 6335               	.LBE906:
 6336               	.LBE905:
 6337               	.LBB907:
 6338               	.LBB908:
 6339 1d30 8091 B109 		lds r24,2481
 6340 1d34 85FF      		sbrs r24,5
 6341 1d36 00C0      		rjmp .L767
 6342               	.LM922:
 6343 1d38 2093 B009 		sts 2480,r18
 6344               	.LBE908:
 6345               	.LBE907:
 6346               	.LM923:
 6347 1d3c 3F2C      		mov r3,r15
 6348 1d3e 2224      		clr r2
 6349 1d40 220D      		add r18,r2
 6350 1d42 331D      		adc r19,r3
 6351 1d44 F301      		movw r30,r6
 6352 1d46 2193      		st Z+,r18
 6353 1d48 3193      		st Z+,r19
 6354 1d4a 3F01      		movw r6,r30
 6355               	.LM924:
 6356 1d4c 0F5F      		subi r16,lo8(-(1))
 6357 1d4e 1F4F      		sbci r17,hi8(-(1))
 6358               	.LVL371:
 6359               	.L519:
 6360 1d50 8091 0000 		lds r24,robotData+2
 6361 1d54 90E0      		ldi r25,lo8(0)
 6362 1d56 0817      		cp r16,r24
 6363 1d58 1907      		cpc r17,r25
 6364 1d5a 04F4      		brge .+2
 6365 1d5c 00C0      		rjmp .L528
 6366               	.LM925:
 6367 1d5e F0E0      		ldi r31,lo8(256)
 6368 1d60 AF16      		cp r10,r31
 6369 1d62 F1E0      		ldi r31,hi8(256)
 6370 1d64 BF06      		cpc r11,r31
 6371 1d66 01F4      		brne .+2
 6372 1d68 00C0      		rjmp .L432
 6373 1d6a 20E0      		ldi r18,lo8(256)
 6374 1d6c C216      		cp r12,r18
 6375 1d6e 21E0      		ldi r18,hi8(256)
 6376 1d70 D206      		cpc r13,r18
 6377               	.LVL372:
 6378 1d72 01F4      		brne .+2
 6379 1d74 00C0      		rjmp .L432
 6380               	.LM926:
 6381 1d76 80EB      		ldi r24,lo8(2480)
 6382 1d78 99E0      		ldi r25,hi8(2480)
 6383 1d7a 0E94 0000 		call uart_getchar_timeout
 6384 1d7e 6C01      		movw r12,r24
 6385               	.LM927:
 6386 1d80 31E0      		ldi r19,hi8(256)
 6387 1d82 8030      		cpi r24,lo8(256)
 6388 1d84 9307      		cpc r25,r19
 6389 1d86 01F4      		brne .L529
 6390               	.L753:
 6391               	.LBB909:
 6392               	.LBB910:
 6393               	.LM928:
 6394 1d88 8091 B109 		lds r24,2481
 6395 1d8c 85FF      		sbrs r24,5
 6396 1d8e 00C0      		rjmp .L753
 6397               	.LM929:
 6398 1d90 8092 B009 		sts 2480,r8
 6399               	.L531:
 6400               	.LBE910:
 6401               	.LBE909:
 6402               	.LBB911:
 6403               	.LBB912:
 6404               	.LM930:
 6405 1d94 8091 B109 		lds r24,2481
 6406 1d98 85FF      		sbrs r24,5
 6407 1d9a 00C0      		rjmp .L531
 6408               	.LM931:
 6409 1d9c 9092 B009 		sts 2480,r9
 6410               	.L532:
 6411               	.LBE912:
 6412               	.LBE911:
 6413               	.LBB913:
 6414               	.LBB914:
 6415               	.LM932:
 6416 1da0 8091 B109 		lds r24,2481
 6417 1da4 85FF      		sbrs r24,5
 6418 1da6 00C0      		rjmp .L532
 6419 1da8 00C0      		rjmp .L1018
 6420               	.LVL373:
 6421               	.L529:
 6422               	.LBE914:
 6423               	.LBE913:
 6424               	.LM933:
 6425 1daa 982F      		mov r25,r24
 6426 1dac C092 0000 		sts robotData+35,r12
 6427               	.LVL374:
 6428               	.L533:
 6429               	.LBB915:
 6430               	.LBB916:
 6431               	.LM934:
 6432 1db0 8091 B109 		lds r24,2481
 6433 1db4 85FF      		sbrs r24,5
 6434 1db6 00C0      		rjmp .L533
 6435               	.LM935:
 6436 1db8 9093 B009 		sts 2480,r25
 6437               	.LBE916:
 6438               	.LBE915:
 6439               	.LM936:
 6440 1dbc 80EB      		ldi r24,lo8(2480)
 6441 1dbe 99E0      		ldi r25,hi8(2480)
 6442 1dc0 0E94 0000 		call uart_getchar_timeout
 6443 1dc4 6C01      		movw r12,r24
 6444               	.LM937:
 6445 1dc6 41E0      		ldi r20,hi8(256)
 6446 1dc8 8030      		cpi r24,lo8(256)
 6447 1dca 9407      		cpc r25,r20
 6448 1dcc 01F4      		brne .L534
 6449               	.L754:
 6450               	.LBB917:
 6451               	.LBB918:
 6452               	.LM938:
 6453 1dce 8091 B109 		lds r24,2481
 6454 1dd2 85FF      		sbrs r24,5
 6455 1dd4 00C0      		rjmp .L754
 6456               	.LM939:
 6457 1dd6 8092 B009 		sts 2480,r8
 6458               	.L536:
 6459               	.LBE918:
 6460               	.LBE917:
 6461               	.LBB919:
 6462               	.LBB920:
 6463               	.LM940:
 6464 1dda 8091 B109 		lds r24,2481
 6465 1dde 85FF      		sbrs r24,5
 6466 1de0 00C0      		rjmp .L536
 6467               	.LM941:
 6468 1de2 9092 B009 		sts 2480,r9
 6469               	.L537:
 6470               	.LBE920:
 6471               	.LBE919:
 6472               	.LBB921:
 6473               	.LBB922:
 6474               	.LM942:
 6475 1de6 8091 B109 		lds r24,2481
 6476 1dea 85FF      		sbrs r24,5
 6477 1dec 00C0      		rjmp .L537
 6478 1dee 00C0      		rjmp .L1018
 6479               	.LVL375:
 6480               	.L534:
 6481               	.LBE922:
 6482               	.LBE921:
 6483               	.LM943:
 6484 1df0 282F      		mov r18,r24
 6485               	.LVL376:
 6486               	.L538:
 6487               	.LBB923:
 6488               	.LBB924:
 6489               	.LM944:
 6490 1df2 8091 B109 		lds r24,2481
 6491 1df6 85FF      		sbrs r24,5
 6492 1df8 00C0      		rjmp .L538
 6493               	.LM945:
 6494 1dfa 2093 B009 		sts 2480,r18
 6495               	.LBE924:
 6496               	.LBE923:
 6497               	.LM946:
 6498 1dfe 2093 0000 		sts robotData+36,r18
 6499               	.LM947:
 6500 1e02 822F      		mov r24,r18
 6501 1e04 90E0      		ldi r25,lo8(0)
 6502 1e06 0197      		sbiw r24,1
 6503 1e08 68E0      		ldi r22,lo8(8)
 6504 1e0a 70E0      		ldi r23,hi8(8)
 6505 1e0c 0E94 0000 		call __divmodhi4
 6506 1e10 6F5F      		subi r22,lo8(-(1))
 6507 1e12 6093 0000 		sts robotData+37,r22
 6508               	.L539:
 6509               	.LBB925:
 6510               	.LBB926:
 6511               	.LM948:
 6512 1e16 8091 B109 		lds r24,2481
 6513 1e1a 85FF      		sbrs r24,5
 6514 1e1c 00C0      		rjmp .L539
 6515               	.LM949:
 6516 1e1e 2093 B009 		sts 2480,r18
 6517               	.LBE926:
 6518               	.LBE925:
 6519               	.LM950:
 6520 1e22 80EB      		ldi r24,lo8(2480)
 6521 1e24 99E0      		ldi r25,hi8(2480)
 6522 1e26 0E94 0000 		call uart_getchar_timeout
 6523 1e2a 8C01      		movw r16,r24
 6524               	.LVL377:
 6525               	.LM951:
 6526 1e2c 51E0      		ldi r21,hi8(256)
 6527 1e2e 8030      		cpi r24,lo8(256)
 6528 1e30 9507      		cpc r25,r21
 6529 1e32 01F4      		brne .L766
 6530               	.L755:
 6531               	.LBB927:
 6532               	.LBB928:
 6533               	.LM952:
 6534 1e34 8091 B109 		lds r24,2481
 6535 1e38 85FF      		sbrs r24,5
 6536 1e3a 00C0      		rjmp .L755
 6537               	.LM953:
 6538 1e3c 8092 B009 		sts 2480,r8
 6539               	.L542:
 6540               	.LBE928:
 6541               	.LBE927:
 6542               	.LBB929:
 6543               	.LBB930:
 6544               	.LM954:
 6545 1e40 8091 B109 		lds r24,2481
 6546 1e44 85FF      		sbrs r24,5
 6547 1e46 00C0      		rjmp .L542
 6548               	.LM955:
 6549 1e48 9092 B009 		sts 2480,r9
 6550               	.L543:
 6551               	.LBE930:
 6552               	.LBE929:
 6553               	.LBB931:
 6554               	.LBB932:
 6555               	.LM956:
 6556 1e4c 8091 B109 		lds r24,2481
 6557 1e50 85FF      		sbrs r24,5
 6558 1e52 00C0      		rjmp .L543
 6559 1e54 00C0      		rjmp .L1018
 6560               	.LVL378:
 6561               	.L766:
 6562               	.LBE932:
 6563               	.LBE931:
 6564               	.LBB933:
 6565               	.LBB934:
 6566 1e56 8091 B109 		lds r24,2481
 6567 1e5a 85FF      		sbrs r24,5
 6568 1e5c 00C0      		rjmp .L766
 6569               	.LM957:
 6570 1e5e 0093 B009 		sts 2480,r16
 6571               	.LBE934:
 6572               	.LBE933:
 6573               	.LM958:
 6574 1e62 80EB      		ldi r24,lo8(2480)
 6575 1e64 99E0      		ldi r25,hi8(2480)
 6576 1e66 0E94 0000 		call uart_getchar_timeout
 6577 1e6a 9C01      		movw r18,r24
 6578 1e6c 6C01      		movw r12,r24
 6579               	.LM959:
 6580 1e6e 61E0      		ldi r22,hi8(256)
 6581 1e70 8030      		cpi r24,lo8(256)
 6582 1e72 9607      		cpc r25,r22
 6583 1e74 01F4      		brne .L765
 6584               	.LVL379:
 6585               	.L756:
 6586               	.LBB935:
 6587               	.LBB936:
 6588               	.LM960:
 6589 1e76 8091 B109 		lds r24,2481
 6590 1e7a 85FF      		sbrs r24,5
 6591 1e7c 00C0      		rjmp .L756
 6592               	.LM961:
 6593 1e7e 8092 B009 		sts 2480,r8
 6594               	.L546:
 6595               	.LBE936:
 6596               	.LBE935:
 6597               	.LBB937:
 6598               	.LBB938:
 6599               	.LM962:
 6600 1e82 8091 B109 		lds r24,2481
 6601 1e86 85FF      		sbrs r24,5
 6602 1e88 00C0      		rjmp .L546
 6603               	.LM963:
 6604 1e8a 9092 B009 		sts 2480,r9
 6605               	.L547:
 6606               	.LBE938:
 6607               	.LBE937:
 6608               	.LBB939:
 6609               	.LBB940:
 6610               	.LM964:
 6611 1e8e 8091 B109 		lds r24,2481
 6612 1e92 85FF      		sbrs r24,5
 6613 1e94 00C0      		rjmp .L547
 6614 1e96 00C0      		rjmp .L1018
 6615               	.LVL380:
 6616               	.L765:
 6617               	.LBE940:
 6618               	.LBE939:
 6619               	.LBB941:
 6620               	.LBB942:
 6621 1e98 8091 B109 		lds r24,2481
 6622 1e9c 85FF      		sbrs r24,5
 6623 1e9e 00C0      		rjmp .L765
 6624               	.LM965:
 6625 1ea0 2093 B009 		sts 2480,r18
 6626               	.LBE942:
 6627               	.LBE941:
 6628               	.LM966:
 6629 1ea4 902F      		mov r25,r16
 6630 1ea6 8827      		clr r24
 6631 1ea8 280F      		add r18,r24
 6632 1eaa 391F      		adc r19,r25
 6633               	.LVL381:
 6634 1eac 2093 0000 		sts robotData+38,r18
 6635 1eb0 3093 0000 		sts (robotData+38)+1,r19
 6636               	.LM967:
 6637 1eb4 80EB      		ldi r24,lo8(2480)
 6638 1eb6 99E0      		ldi r25,hi8(2480)
 6639 1eb8 0E94 0000 		call uart_getchar_timeout
 6640               	.LVL382:
 6641 1ebc 8C01      		movw r16,r24
 6642               	.LVL383:
 6643               	.LM968:
 6644 1ebe 81E0      		ldi r24,hi8(256)
 6645 1ec0 0030      		cpi r16,lo8(256)
 6646 1ec2 1807      		cpc r17,r24
 6647 1ec4 01F4      		brne .L764
 6648               	.LVL384:
 6649               	.L757:
 6650               	.LBB943:
 6651               	.LBB944:
 6652               	.LM969:
 6653 1ec6 8091 B109 		lds r24,2481
 6654 1eca 85FF      		sbrs r24,5
 6655 1ecc 00C0      		rjmp .L757
 6656               	.LM970:
 6657 1ece 8092 B009 		sts 2480,r8
 6658               	.L550:
 6659               	.LBE944:
 6660               	.LBE943:
 6661               	.LBB945:
 6662               	.LBB946:
 6663               	.LM971:
 6664 1ed2 8091 B109 		lds r24,2481
 6665 1ed6 85FF      		sbrs r24,5
 6666 1ed8 00C0      		rjmp .L550
 6667               	.LM972:
 6668 1eda 9092 B009 		sts 2480,r9
 6669               	.L551:
 6670               	.LBE946:
 6671               	.LBE945:
 6672               	.LBB947:
 6673               	.LBB948:
 6674               	.LM973:
 6675 1ede 8091 B109 		lds r24,2481
 6676 1ee2 85FF      		sbrs r24,5
 6677 1ee4 00C0      		rjmp .L551
 6678 1ee6 00C0      		rjmp .L1018
 6679               	.L764:
 6680               	.LBE948:
 6681               	.LBE947:
 6682               	.LBB949:
 6683               	.LBB950:
 6684 1ee8 8091 B109 		lds r24,2481
 6685 1eec 85FF      		sbrs r24,5
 6686 1eee 00C0      		rjmp .L764
 6687               	.LM974:
 6688 1ef0 0093 B009 		sts 2480,r16
 6689               	.LBE950:
 6690               	.LBE949:
 6691               	.LM975:
 6692 1ef4 80EB      		ldi r24,lo8(2480)
 6693 1ef6 99E0      		ldi r25,hi8(2480)
 6694 1ef8 0E94 0000 		call uart_getchar_timeout
 6695 1efc 9C01      		movw r18,r24
 6696 1efe 6C01      		movw r12,r24
 6697               	.LVL385:
 6698               	.LM976:
 6699 1f00 91E0      		ldi r25,hi8(256)
 6700 1f02 2030      		cpi r18,lo8(256)
 6701 1f04 3907      		cpc r19,r25
 6702 1f06 01F4      		brne .L763
 6703               	.LVL386:
 6704               	.L758:
 6705               	.LBB951:
 6706               	.LBB952:
 6707               	.LM977:
 6708 1f08 8091 B109 		lds r24,2481
 6709 1f0c 85FF      		sbrs r24,5
 6710 1f0e 00C0      		rjmp .L758
 6711               	.LM978:
 6712 1f10 8092 B009 		sts 2480,r8
 6713               	.L554:
 6714               	.LBE952:
 6715               	.LBE951:
 6716               	.LBB953:
 6717               	.LBB954:
 6718               	.LM979:
 6719 1f14 8091 B109 		lds r24,2481
 6720 1f18 85FF      		sbrs r24,5
 6721 1f1a 00C0      		rjmp .L554
 6722               	.LM980:
 6723 1f1c 9092 B009 		sts 2480,r9
 6724               	.L555:
 6725               	.LBE954:
 6726               	.LBE953:
 6727               	.LBB955:
 6728               	.LBB956:
 6729               	.LM981:
 6730 1f20 8091 B109 		lds r24,2481
 6731 1f24 85FF      		sbrs r24,5
 6732 1f26 00C0      		rjmp .L555
 6733 1f28 00C0      		rjmp .L1018
 6734               	.LVL387:
 6735               	.L763:
 6736               	.LBE956:
 6737               	.LBE955:
 6738               	.LBB957:
 6739               	.LBB958:
 6740 1f2a 8091 B109 		lds r24,2481
 6741 1f2e 85FF      		sbrs r24,5
 6742 1f30 00C0      		rjmp .L763
 6743               	.LM982:
 6744 1f32 2093 B009 		sts 2480,r18
 6745               	.LBE958:
 6746               	.LBE957:
 6747               	.LM983:
 6748 1f36 902F      		mov r25,r16
 6749 1f38 8827      		clr r24
 6750 1f3a 280F      		add r18,r24
 6751 1f3c 391F      		adc r19,r25
 6752 1f3e 2093 0000 		sts robotData+40,r18
 6753 1f42 3093 0000 		sts (robotData+40)+1,r19
 6754               	.LM984:
 6755 1f46 80EB      		ldi r24,lo8(2480)
 6756 1f48 99E0      		ldi r25,hi8(2480)
 6757 1f4a 0E94 0000 		call uart_getchar_timeout
 6758               	.LVL388:
 6759 1f4e 8C01      		movw r16,r24
 6760               	.LVL389:
 6761               	.LM985:
 6762 1f50 E1E0      		ldi r30,hi8(256)
 6763 1f52 8030      		cpi r24,lo8(256)
 6764 1f54 9E07      		cpc r25,r30
 6765 1f56 01F4      		brne .L762
 6766               	.L759:
 6767               	.LBB959:
 6768               	.LBB960:
 6769               	.LM986:
 6770 1f58 8091 B109 		lds r24,2481
 6771 1f5c 85FF      		sbrs r24,5
 6772 1f5e 00C0      		rjmp .L759
 6773               	.LM987:
 6774 1f60 8092 B009 		sts 2480,r8
 6775               	.L558:
 6776               	.LBE960:
 6777               	.LBE959:
 6778               	.LBB961:
 6779               	.LBB962:
 6780               	.LM988:
 6781 1f64 8091 B109 		lds r24,2481
 6782 1f68 85FF      		sbrs r24,5
 6783 1f6a 00C0      		rjmp .L558
 6784               	.LM989:
 6785 1f6c 9092 B009 		sts 2480,r9
 6786               	.L559:
 6787               	.LBE962:
 6788               	.LBE961:
 6789               	.LBB963:
 6790               	.LBB964:
 6791               	.LM990:
 6792 1f70 8091 B109 		lds r24,2481
 6793 1f74 85FF      		sbrs r24,5
 6794 1f76 00C0      		rjmp .L559
 6795 1f78 00C0      		rjmp .L1018
 6796               	.LVL390:
 6797               	.L762:
 6798               	.LBE964:
 6799               	.LBE963:
 6800               	.LBB965:
 6801               	.LBB966:
 6802 1f7a 8091 B109 		lds r24,2481
 6803 1f7e 85FF      		sbrs r24,5
 6804 1f80 00C0      		rjmp .L762
 6805               	.LM991:
 6806 1f82 0093 B009 		sts 2480,r16
 6807               	.LBE966:
 6808               	.LBE965:
 6809               	.LM992:
 6810 1f86 80EB      		ldi r24,lo8(2480)
 6811 1f88 99E0      		ldi r25,hi8(2480)
 6812 1f8a 0E94 0000 		call uart_getchar_timeout
 6813 1f8e 9C01      		movw r18,r24
 6814 1f90 6C01      		movw r12,r24
 6815               	.LVL391:
 6816               	.LM993:
 6817 1f92 F1E0      		ldi r31,hi8(256)
 6818 1f94 8030      		cpi r24,lo8(256)
 6819 1f96 9F07      		cpc r25,r31
 6820 1f98 01F4      		brne .L761
 6821               	.LVL392:
 6822               	.L760:
 6823               	.LBB967:
 6824               	.LBB968:
 6825               	.LM994:
 6826 1f9a 8091 B109 		lds r24,2481
 6827 1f9e 85FF      		sbrs r24,5
 6828 1fa0 00C0      		rjmp .L760
 6829               	.LM995:
 6830 1fa2 8092 B009 		sts 2480,r8
 6831               	.L562:
 6832               	.LBE968:
 6833               	.LBE967:
 6834               	.LBB969:
 6835               	.LBB970:
 6836               	.LM996:
 6837 1fa6 8091 B109 		lds r24,2481
 6838 1faa 85FF      		sbrs r24,5
 6839 1fac 00C0      		rjmp .L562
 6840               	.LM997:
 6841 1fae 9092 B009 		sts 2480,r9
 6842               	.L563:
 6843               	.LBE970:
 6844               	.LBE969:
 6845               	.LBB971:
 6846               	.LBB972:
 6847               	.LM998:
 6848 1fb2 8091 B109 		lds r24,2481
 6849 1fb6 85FF      		sbrs r24,5
 6850 1fb8 00C0      		rjmp .L563
 6851 1fba 00C0      		rjmp .L1018
 6852               	.LVL393:
 6853               	.L761:
 6854               	.LBE972:
 6855               	.LBE971:
 6856               	.LBB973:
 6857               	.LBB974:
 6858 1fbc 8091 B109 		lds r24,2481
 6859 1fc0 85FF      		sbrs r24,5
 6860 1fc2 00C0      		rjmp .L761
 6861               	.LM999:
 6862 1fc4 2093 B009 		sts 2480,r18
 6863               	.LBE974:
 6864               	.LBE973:
 6865               	.LM1000:
 6866 1fc8 902F      		mov r25,r16
 6867 1fca 8827      		clr r24
 6868 1fcc 280F      		add r18,r24
 6869 1fce 391F      		adc r19,r25
 6870               	.LVL394:
 6871 1fd0 2093 0000 		sts robotData+42,r18
 6872 1fd4 3093 0000 		sts (robotData+42)+1,r19
 6873 1fd8 00C0      		rjmp .L432
 6874               	.LVL395:
 6875               	.L569:
 6876               	.LM1001:
 6877 1fda 80EB      		ldi r24,lo8(2480)
 6878 1fdc 99E0      		ldi r25,hi8(2480)
 6879 1fde 0E94 0000 		call uart_getchar_timeout
 6880 1fe2 6C01      		movw r12,r24
 6881               	.LM1002:
 6882 1fe4 21E0      		ldi r18,hi8(256)
 6883 1fe6 8030      		cpi r24,lo8(256)
 6884 1fe8 9207      		cpc r25,r18
 6885 1fea 01F4      		brne .L564
 6886               	.L742:
 6887               	.LBB975:
 6888               	.LBB976:
 6889               	.LM1003:
 6890 1fec 8091 B109 		lds r24,2481
 6891 1ff0 85FF      		sbrs r24,5
 6892 1ff2 00C0      		rjmp .L742
 6893               	.LM1004:
 6894 1ff4 8092 B009 		sts 2480,r8
 6895               	.L566:
 6896               	.LBE976:
 6897               	.LBE975:
 6898               	.LBB977:
 6899               	.LBB978:
 6900               	.LM1005:
 6901 1ff8 8091 B109 		lds r24,2481
 6902 1ffc 85FF      		sbrs r24,5
 6903 1ffe 00C0      		rjmp .L566
 6904               	.LM1006:
 6905 2000 9092 B009 		sts 2480,r9
 6906               	.L567:
 6907               	.LBE978:
 6908               	.LBE977:
 6909               	.LBB979:
 6910               	.LBB980:
 6911               	.LM1007:
 6912 2004 8091 B109 		lds r24,2481
 6913 2008 85FF      		sbrs r24,5
 6914 200a 00C0      		rjmp .L567
 6915 200c 00C0      		rjmp .L1018
 6916               	.LVL396:
 6917               	.L564:
 6918               	.LBE980:
 6919               	.LBE979:
 6920               	.LM1008:
 6921 200e 982F      		mov r25,r24
 6922 2010 F801      		movw r30,r16
 6923 2012 E050      		subi r30,lo8(-(robotData))
 6924 2014 F040      		sbci r31,hi8(-(robotData))
 6925 2016 C4A6      		std Z+44,r12
 6926               	.LVL397:
 6927               	.L568:
 6928               	.LBB981:
 6929               	.LBB982:
 6930               	.LM1009:
 6931 2018 8091 B109 		lds r24,2481
 6932 201c 85FF      		sbrs r24,5
 6933 201e 00C0      		rjmp .L568
 6934               	.LM1010:
 6935 2020 9093 B009 		sts 2480,r25
 6936               	.LBE982:
 6937               	.LBE981:
 6938               	.LM1011:
 6939 2024 0F5F      		subi r16,lo8(-(1))
 6940 2026 1F4F      		sbci r17,hi8(-(1))
 6941               	.LVL398:
 6942               	.L467:
 6943 2028 8091 0000 		lds r24,robotData+37
 6944 202c 90E0      		ldi r25,lo8(0)
 6945               	.LVL399:
 6946 202e 0817      		cp r16,r24
 6947 2030 1907      		cpc r17,r25
 6948 2032 04F0      		brlt .L569
 6949               	.LM1012:
 6950 2034 30E0      		ldi r19,lo8(256)
 6951 2036 C316      		cp r12,r19
 6952 2038 31E0      		ldi r19,hi8(256)
 6953 203a D306      		cpc r13,r19
 6954 203c 01F4      		brne .+2
 6955 203e 00C0      		rjmp .L432
 6956               	.LM1013:
 6957 2040 80EB      		ldi r24,lo8(2480)
 6958 2042 99E0      		ldi r25,hi8(2480)
 6959 2044 0E94 0000 		call uart_getchar_timeout
 6960 2048 8C01      		movw r16,r24
 6961               	.LVL400:
 6962               	.LM1014:
 6963 204a 41E0      		ldi r20,hi8(256)
 6964 204c 8030      		cpi r24,lo8(256)
 6965 204e 9407      		cpc r25,r20
 6966 2050 01F4      		brne .L746
 6967               	.LVL401:
 6968               	.L743:
 6969               	.LBB983:
 6970               	.LBB984:
 6971               	.LM1015:
 6972 2052 8091 B109 		lds r24,2481
 6973               	.LVL402:
 6974 2056 85FF      		sbrs r24,5
 6975 2058 00C0      		rjmp .L743
 6976               	.LM1016:
 6977 205a 8092 B009 		sts 2480,r8
 6978               	.L572:
 6979               	.LBE984:
 6980               	.LBE983:
 6981               	.LBB985:
 6982               	.LBB986:
 6983               	.LM1017:
 6984 205e 8091 B109 		lds r24,2481
 6985 2062 85FF      		sbrs r24,5
 6986 2064 00C0      		rjmp .L572
 6987               	.LM1018:
 6988 2066 9092 B009 		sts 2480,r9
 6989               	.L573:
 6990               	.LBE986:
 6991               	.LBE985:
 6992               	.LBB987:
 6993               	.LBB988:
 6994               	.LM1019:
 6995 206a 8091 B109 		lds r24,2481
 6996 206e 85FF      		sbrs r24,5
 6997 2070 00C0      		rjmp .L573
 6998 2072 00C0      		rjmp .L1018
 6999               	.LVL403:
 7000               	.L746:
 7001               	.LBE988:
 7002               	.LBE987:
 7003               	.LBB989:
 7004               	.LBB990:
 7005 2074 8091 B109 		lds r24,2481
 7006               	.LVL404:
 7007 2078 85FF      		sbrs r24,5
 7008 207a 00C0      		rjmp .L746
 7009               	.LM1020:
 7010 207c 0093 B009 		sts 2480,r16
 7011               	.LBE990:
 7012               	.LBE989:
 7013               	.LM1021:
 7014 2080 80EB      		ldi r24,lo8(2480)
 7015 2082 99E0      		ldi r25,hi8(2480)
 7016 2084 0E94 0000 		call uart_getchar_timeout
 7017 2088 9C01      		movw r18,r24
 7018 208a 6C01      		movw r12,r24
 7019               	.LM1022:
 7020 208c 51E0      		ldi r21,hi8(256)
 7021 208e 8030      		cpi r24,lo8(256)
 7022 2090 9507      		cpc r25,r21
 7023 2092 01F4      		brne .L745
 7024               	.LVL405:
 7025               	.L744:
 7026               	.LBB991:
 7027               	.LBB992:
 7028               	.LM1023:
 7029 2094 8091 B109 		lds r24,2481
 7030 2098 85FF      		sbrs r24,5
 7031 209a 00C0      		rjmp .L744
 7032               	.LM1024:
 7033 209c 8092 B009 		sts 2480,r8
 7034               	.L576:
 7035               	.LBE992:
 7036               	.LBE991:
 7037               	.LBB993:
 7038               	.LBB994:
 7039               	.LM1025:
 7040 20a0 8091 B109 		lds r24,2481
 7041 20a4 85FF      		sbrs r24,5
 7042 20a6 00C0      		rjmp .L576
 7043               	.LM1026:
 7044 20a8 9092 B009 		sts 2480,r9
 7045               	.L577:
 7046               	.LBE994:
 7047               	.LBE993:
 7048               	.LBB995:
 7049               	.LBB996:
 7050               	.LM1027:
 7051 20ac 8091 B109 		lds r24,2481
 7052 20b0 85FF      		sbrs r24,5
 7053 20b2 00C0      		rjmp .L577
 7054 20b4 00C0      		rjmp .L1018
 7055               	.LVL406:
 7056               	.L745:
 7057               	.LBE996:
 7058               	.LBE995:
 7059               	.LBB997:
 7060               	.LBB998:
 7061 20b6 8091 B109 		lds r24,2481
 7062 20ba 85FF      		sbrs r24,5
 7063 20bc 00C0      		rjmp .L745
 7064               	.LM1028:
 7065 20be 2093 B009 		sts 2480,r18
 7066               	.LBE998:
 7067               	.LBE997:
 7068               	.LM1029:
 7069 20c2 902F      		mov r25,r16
 7070 20c4 8827      		clr r24
 7071 20c6 820F      		add r24,r18
 7072 20c8 931F      		adc r25,r19
 7073 20ca 8093 0000 		sts robotData+236,r24
 7074 20ce 9093 0000 		sts (robotData+236)+1,r25
 7075               	.LM1030:
 7076 20d2 892B      		or r24,r25
 7077 20d4 01F0      		breq .L578
 7078               	.LVL407:
 7079               	.LM1031:
 7080 20d6 81E0      		ldi r24,lo8(1)
 7081 20d8 90E0      		ldi r25,hi8(1)
 7082 20da 8093 0000 		sts robotData+238,r24
 7083 20de 9093 0000 		sts (robotData+238)+1,r25
 7084 20e2 00C0      		rjmp .L1025
 7085               	.L578:
 7086               	.LM1032:
 7087 20e4 1092 0000 		sts robotData+238,__zero_reg__
 7088 20e8 1092 0000 		sts (robotData+238)+1,__zero_reg__
 7089 20ec 00C0      		rjmp .L1025
 7090               	.LVL408:
 7091               	.L433:
 7092               	.LM1033:
 7093 20ee 1092 0000 		sts robotData+238,__zero_reg__
 7094 20f2 1092 0000 		sts (robotData+238)+1,__zero_reg__
 7095               	.LBB999:
 7096               	.LBB1000:
 7097               	.LM1034:
 7098 20f6 1092 4608 		sts 2118,__zero_reg__
 7099               	.LBB1001:
 7100               	.LBB1002:
 7101               	.LM1035:
 7102               	/* #APP */
 7103               	 ;  42 "ir.c" 1
 7104 20fa F894      		cli
 7105               	 ;  0 "" 2
 7106               	.LM1036:
 7107               	/* #NOAPP */
 7108 20fc 1092 2808 		sts 2088,__zero_reg__
 7109 2100 1092 2908 		sts (2088)+1,__zero_reg__
 7110               	.LM1037:
 7111               	/* #APP */
 7112               	 ;  44 "ir.c" 1
 7113 2104 7894      		sei
 7114               	 ;  0 "" 2
 7115               	/* #NOAPP */
 7116 2106 00C0      		rjmp .L432
 7117               	.L1030:
 7118               	.LBE1002:
 7119               	.LBE1001:
 7120               	.LBE1000:
 7121               	.LBE999:
 7122               	.LM1038:
 7123 2108 0E94 0000 		call init_ir_read
 7124               	.LVL409:
 7125               	.L580:
 7126               	.LM1039:
 7127 210c 8091 0000 		lds r24,ir_read_flag
 7128 2110 8823      		tst r24
 7129 2112 01F4      		brne .L580
 7130 2114 00C0      		rjmp .L432
 7131               	.LVL410:
 7132               	.L445:
 7133               	.LM1040:
 7134 2116 80EB      		ldi r24,lo8(2480)
 7135 2118 99E0      		ldi r25,hi8(2480)
 7136 211a 0E94 0000 		call uart_getchar_timeout
 7137               	.LVL411:
 7138 211e 982F      		mov r25,r24
 7139               	.LVL412:
 7140 2120 9053      		subi r25,lo8(-(-48))
 7141               	.LM1041:
 7142 2122 9530      		cpi r25,lo8(5)
 7143 2124 00F4      		brsh .L717
 7144 2126 8091 0000 		lds r24,signal_count
 7145 212a 8530      		cpi r24,lo8(5)
 7146 212c 00F0      		brlo .L717
 7147               	.L718:
 7148               	.LBB1003:
 7149               	.LBB1004:
 7150               	.LM1042:
 7151 212e 8091 B109 		lds r24,2481
 7152 2132 85FF      		sbrs r24,5
 7153 2134 00C0      		rjmp .L718
 7154               	.LBE1004:
 7155               	.LBE1003:
 7156               	.LM1043:
 7157 2136 905D      		subi r25,lo8(-(48))
 7158               	.LBB1006:
 7159               	.LBB1005:
 7160               	.LM1044:
 7161 2138 9093 B009 		sts 2480,r25
 7162 213c 9053      		subi r25,lo8(-(-48))
 7163               	.LBE1005:
 7164               	.LBE1006:
 7165               	.LM1045:
 7166 213e 892F      		mov r24,r25
 7167 2140 90E0      		ldi r25,lo8(0)
 7168               	.LVL413:
 7169 2142 0E94 0000 		call write_data_to_eeprom
 7170 2146 00C0      		rjmp .L432
 7171               	.LVL414:
 7172               	.L717:
 7173               	.LBB1007:
 7174               	.LBB760:
 7175               	.LM1046:
 7176 2148 8091 B109 		lds r24,2481
 7177 214c 85FF      		sbrs r24,5
 7178 214e 00C0      		rjmp .L717
 7179               	.LM1047:
 7180 2150 8092 B009 		sts 2480,r8
 7181               	.L583:
 7182               	.LBE760:
 7183               	.LBE1007:
 7184               	.LBB1008:
 7185               	.LBB763:
 7186               	.LM1048:
 7187 2154 8091 B109 		lds r24,2481
 7188 2158 85FF      		sbrs r24,5
 7189 215a 00C0      		rjmp .L583
 7190               	.LM1049:
 7191 215c 9092 B009 		sts 2480,r9
 7192               	.L584:
 7193               	.LBE763:
 7194               	.LBE1008:
 7195               	.LBB1009:
 7196               	.LBB1010:
 7197               	.LM1050:
 7198 2160 8091 B109 		lds r24,2481
 7199 2164 85FF      		sbrs r24,5
 7200 2166 00C0      		rjmp .L584
 7201 2168 00C0      		rjmp .L1018
 7202               	.LVL415:
 7203               	.L456:
 7204               	.LBE1010:
 7205               	.LBE1009:
 7206               	.LM1051:
 7207 216a 0E94 0000 		call read_data_from_serial
 7208               	.LVL416:
 7209 216e 892B      		or r24,r25
 7210 2170 01F4      		brne .+2
 7211 2172 00C0      		rjmp .L737
 7212               	.LM1052:
 7213 2174 80EB      		ldi r24,lo8(2480)
 7214 2176 99E0      		ldi r25,hi8(2480)
 7215 2178 0E94 0000 		call uart_getchar_timeout
 7216 217c 8C01      		movw r16,r24
 7217               	.LVL417:
 7218               	.LM1053:
 7219 217e 91E0      		ldi r25,hi8(256)
 7220 2180 0030      		cpi r16,lo8(256)
 7221 2182 1907      		cpc r17,r25
 7222 2184 01F4      		brne .L736
 7223               	.LVL418:
 7224               	.L733:
 7225               	.LBB1011:
 7226               	.LBB1012:
 7227               	.LM1054:
 7228 2186 8091 B109 		lds r24,2481
 7229 218a 85FF      		sbrs r24,5
 7230 218c 00C0      		rjmp .L733
 7231               	.LM1055:
 7232 218e 8092 B009 		sts 2480,r8
 7233               	.L588:
 7234               	.LBE1012:
 7235               	.LBE1011:
 7236               	.LBB1013:
 7237               	.LBB1014:
 7238               	.LM1056:
 7239 2192 8091 B109 		lds r24,2481
 7240 2196 85FF      		sbrs r24,5
 7241 2198 00C0      		rjmp .L588
 7242               	.LM1057:
 7243 219a 9092 B009 		sts 2480,r9
 7244               	.L589:
 7245               	.LBE1014:
 7246               	.LBE1013:
 7247               	.LBB1015:
 7248               	.LBB1016:
 7249               	.LM1058:
 7250 219e 8091 B109 		lds r24,2481
 7251 21a2 85FF      		sbrs r24,5
 7252 21a4 00C0      		rjmp .L589
 7253 21a6 00C0      		rjmp .L1018
 7254               	.L736:
 7255               	.LBE1016:
 7256               	.LBE1015:
 7257               	.LBB1017:
 7258               	.LBB1018:
 7259 21a8 8091 B109 		lds r24,2481
 7260 21ac 85FF      		sbrs r24,5
 7261 21ae 00C0      		rjmp .L736
 7262               	.LM1059:
 7263 21b0 0093 B009 		sts 2480,r16
 7264               	.LBE1018:
 7265               	.LBE1017:
 7266               	.LM1060:
 7267 21b4 80EB      		ldi r24,lo8(2480)
 7268 21b6 99E0      		ldi r25,hi8(2480)
 7269 21b8 0E94 0000 		call uart_getchar_timeout
 7270 21bc 9C01      		movw r18,r24
 7271 21be 6C01      		movw r12,r24
 7272               	.LM1061:
 7273 21c0 E1E0      		ldi r30,hi8(256)
 7274 21c2 8030      		cpi r24,lo8(256)
 7275 21c4 9E07      		cpc r25,r30
 7276 21c6 01F4      		brne .L735
 7277               	.L734:
 7278               	.LBB1019:
 7279               	.LBB1020:
 7280               	.LM1062:
 7281 21c8 8091 B109 		lds r24,2481
 7282 21cc 85FF      		sbrs r24,5
 7283 21ce 00C0      		rjmp .L734
 7284               	.LM1063:
 7285 21d0 8092 B009 		sts 2480,r8
 7286               	.L592:
 7287               	.LBE1020:
 7288               	.LBE1019:
 7289               	.LBB1021:
 7290               	.LBB1022:
 7291               	.LM1064:
 7292 21d4 8091 B109 		lds r24,2481
 7293 21d8 85FF      		sbrs r24,5
 7294 21da 00C0      		rjmp .L592
 7295               	.LM1065:
 7296 21dc 9092 B009 		sts 2480,r9
 7297               	.L593:
 7298               	.LBE1022:
 7299               	.LBE1021:
 7300               	.LBB1023:
 7301               	.LBB1024:
 7302               	.LM1066:
 7303 21e0 8091 B109 		lds r24,2481
 7304 21e4 85FF      		sbrs r24,5
 7305 21e6 00C0      		rjmp .L593
 7306 21e8 00C0      		rjmp .L1018
 7307               	.LVL419:
 7308               	.L735:
 7309               	.LBE1024:
 7310               	.LBE1023:
 7311               	.LBB1025:
 7312               	.LBB1026:
 7313 21ea 8091 B109 		lds r24,2481
 7314 21ee 85FF      		sbrs r24,5
 7315 21f0 00C0      		rjmp .L735
 7316               	.LM1067:
 7317 21f2 2093 B009 		sts 2480,r18
 7318               	.LBE1026:
 7319               	.LBE1025:
 7320               	.LM1068:
 7321 21f6 902F      		mov r25,r16
 7322 21f8 8827      		clr r24
 7323 21fa 820F      		add r24,r18
 7324 21fc 931F      		adc r25,r19
 7325 21fe 8093 0000 		sts robotData+236,r24
 7326 2202 9093 0000 		sts (robotData+236)+1,r25
 7327               	.LM1069:
 7328 2206 892B      		or r24,r25
 7329 2208 01F0      		breq .L594
 7330               	.LVL420:
 7331               	.LM1070:
 7332 220a 21E0      		ldi r18,lo8(1)
 7333 220c 30E0      		ldi r19,hi8(1)
 7334               	.LVL421:
 7335 220e 2093 0000 		sts robotData+238,r18
 7336 2212 3093 0000 		sts (robotData+238)+1,r19
 7337 2216 00C0      		rjmp .L1024
 7338               	.LVL422:
 7339               	.L594:
 7340               	.LM1071:
 7341 2218 1092 0000 		sts robotData+238,__zero_reg__
 7342 221c 1092 0000 		sts (robotData+238)+1,__zero_reg__
 7343 2220 00C0      		rjmp .L1024
 7344               	.LVL423:
 7345               	.L737:
 7346               	.LBB1027:
 7347               	.LBB1028:
 7348               	.LM1072:
 7349 2222 8091 B109 		lds r24,2481
 7350 2226 85FF      		sbrs r24,5
 7351 2228 00C0      		rjmp .L737
 7352               	.LM1073:
 7353 222a 8092 B009 		sts 2480,r8
 7354               	.L596:
 7355               	.LBE1028:
 7356               	.LBE1027:
 7357               	.LBB1029:
 7358               	.LBB1030:
 7359               	.LM1074:
 7360 222e 8091 B109 		lds r24,2481
 7361 2232 85FF      		sbrs r24,5
 7362 2234 00C0      		rjmp .L596
 7363               	.LM1075:
 7364 2236 9092 B009 		sts 2480,r9
 7365               	.L597:
 7366               	.LBE1030:
 7367               	.LBE1029:
 7368               	.LBB1031:
 7369               	.LBB1032:
 7370               	.LM1076:
 7371 223a 8091 B109 		lds r24,2481
 7372 223e 85FF      		sbrs r24,5
 7373 2240 00C0      		rjmp .L597
 7374 2242 00C0      		rjmp .L1018
 7375               	.LVL424:
 7376               	.L1028:
 7377               	.LBE1032:
 7378               	.LBE1031:
 7379               	.LM1077:
 7380 2244 80EB      		ldi r24,lo8(2480)
 7381 2246 99E0      		ldi r25,hi8(2480)
 7382 2248 0E94 0000 		call uart_getchar_timeout
 7383               	.LVL425:
 7384 224c 20ED      		ldi r18,lo8(-48)
 7385 224e F22E      		mov r15,r18
 7386 2250 F80E      		add r15,r24
 7387               	.LM1078:
 7388 2252 64E0      		ldi r22,lo8(4)
 7389 2254 6F15      		cp r22,r15
 7390 2256 00F4      		brsh .+2
 7391 2258 00C0      		rjmp .L792
 7392               	.L791:
 7393               	.LBB1033:
 7394               	.LBB1034:
 7395               	.LM1079:
 7396 225a 8091 B109 		lds r24,2481
 7397 225e 85FF      		sbrs r24,5
 7398 2260 00C0      		rjmp .L791
 7399               	.LBE1034:
 7400               	.LBE1033:
 7401               	.LM1080:
 7402 2262 80E3      		ldi r24,lo8(48)
 7403 2264 F80E      		add r15,r24
 7404               	.LBB1036:
 7405               	.LBB1035:
 7406               	.LM1081:
 7407 2266 F092 B009 		sts 2480,r15
 7408 226a 90ED      		ldi r25,lo8(-48)
 7409 226c F90E      		add r15,r25
 7410               	.LBE1035:
 7411               	.LBE1036:
 7412               	.LM1082:
 7413 226e 80EB      		ldi r24,lo8(2480)
 7414 2270 99E0      		ldi r25,hi8(2480)
 7415 2272 0E94 0000 		call uart_getchar_timeout
 7416 2276 8C01      		movw r16,r24
 7417               	.LVL426:
 7418               	.LM1083:
 7419 2278 E1E0      		ldi r30,hi8(256)
 7420 227a 8030      		cpi r24,lo8(256)
 7421 227c 9E07      		cpc r25,r30
 7422 227e 01F4      		brne .L790
 7423               	.LVL427:
 7424               	.L787:
 7425               	.LBB1037:
 7426               	.LBB1038:
 7427               	.LM1084:
 7428 2280 8091 B109 		lds r24,2481
 7429               	.LVL428:
 7430 2284 85FF      		sbrs r24,5
 7431 2286 00C0      		rjmp .L787
 7432               	.LM1085:
 7433 2288 8092 B009 		sts 2480,r8
 7434               	.L602:
 7435               	.LBE1038:
 7436               	.LBE1037:
 7437               	.LBB1039:
 7438               	.LBB1040:
 7439               	.LM1086:
 7440 228c 8091 B109 		lds r24,2481
 7441 2290 85FF      		sbrs r24,5
 7442 2292 00C0      		rjmp .L602
 7443               	.LM1087:
 7444 2294 9092 B009 		sts 2480,r9
 7445               	.L603:
 7446               	.LBE1040:
 7447               	.LBE1039:
 7448               	.LBB1041:
 7449               	.LBB1042:
 7450               	.LM1088:
 7451 2298 8091 B109 		lds r24,2481
 7452 229c 85FF      		sbrs r24,5
 7453 229e 00C0      		rjmp .L603
 7454 22a0 00C0      		rjmp .L1018
 7455               	.LVL429:
 7456               	.L790:
 7457               	.LBE1042:
 7458               	.LBE1041:
 7459               	.LBB1043:
 7460               	.LBB1044:
 7461 22a2 8091 B109 		lds r24,2481
 7462               	.LVL430:
 7463 22a6 85FF      		sbrs r24,5
 7464 22a8 00C0      		rjmp .L790
 7465               	.LM1089:
 7466 22aa 0093 B009 		sts 2480,r16
 7467               	.LBE1044:
 7468               	.LBE1043:
 7469               	.LM1090:
 7470 22ae 80EB      		ldi r24,lo8(2480)
 7471 22b0 99E0      		ldi r25,hi8(2480)
 7472 22b2 0E94 0000 		call uart_getchar_timeout
 7473 22b6 9C01      		movw r18,r24
 7474 22b8 6C01      		movw r12,r24
 7475               	.LM1091:
 7476 22ba F1E0      		ldi r31,hi8(256)
 7477 22bc 8030      		cpi r24,lo8(256)
 7478 22be 9F07      		cpc r25,r31
 7479 22c0 01F4      		brne .L789
 7480               	.LVL431:
 7481               	.L788:
 7482               	.LBB1045:
 7483               	.LBB1046:
 7484               	.LM1092:
 7485 22c2 8091 B109 		lds r24,2481
 7486 22c6 85FF      		sbrs r24,5
 7487 22c8 00C0      		rjmp .L788
 7488               	.LM1093:
 7489 22ca 8092 B009 		sts 2480,r8
 7490               	.L606:
 7491               	.LBE1046:
 7492               	.LBE1045:
 7493               	.LBB1047:
 7494               	.LBB1048:
 7495               	.LM1094:
 7496 22ce 8091 B109 		lds r24,2481
 7497 22d2 85FF      		sbrs r24,5
 7498 22d4 00C0      		rjmp .L606
 7499               	.LM1095:
 7500 22d6 9092 B009 		sts 2480,r9
 7501               	.L607:
 7502               	.LBE1048:
 7503               	.LBE1047:
 7504               	.LBB1049:
 7505               	.LBB1050:
 7506               	.LM1096:
 7507 22da 8091 B109 		lds r24,2481
 7508 22de 85FF      		sbrs r24,5
 7509 22e0 00C0      		rjmp .L607
 7510 22e2 00C0      		rjmp .L1018
 7511               	.LVL432:
 7512               	.L789:
 7513               	.LBE1050:
 7514               	.LBE1049:
 7515               	.LBB1051:
 7516               	.LBB1052:
 7517 22e4 8091 B109 		lds r24,2481
 7518 22e8 85FF      		sbrs r24,5
 7519 22ea 00C0      		rjmp .L789
 7520               	.LM1097:
 7521 22ec 2093 B009 		sts 2480,r18
 7522               	.LBE1052:
 7523               	.LBE1051:
 7524               	.LM1098:
 7525 22f0 902F      		mov r25,r16
 7526 22f2 8827      		clr r24
 7527 22f4 820F      		add r24,r18
 7528 22f6 931F      		adc r25,r19
 7529 22f8 8093 0000 		sts robotData+236,r24
 7530 22fc 9093 0000 		sts (robotData+236)+1,r25
 7531               	.LM1099:
 7532 2300 892B      		or r24,r25
 7533 2302 01F0      		breq .L608
 7534               	.LVL433:
 7535               	.LM1100:
 7536 2304 21E0      		ldi r18,lo8(1)
 7537 2306 30E0      		ldi r19,hi8(1)
 7538               	.LVL434:
 7539 2308 2093 0000 		sts robotData+238,r18
 7540 230c 3093 0000 		sts (robotData+238)+1,r19
 7541 2310 00C0      		rjmp .L609
 7542               	.LVL435:
 7543               	.L608:
 7544               	.LM1101:
 7545 2312 1092 0000 		sts robotData+238,__zero_reg__
 7546 2316 1092 0000 		sts (robotData+238)+1,__zero_reg__
 7547               	.LVL436:
 7548               	.L609:
 7549               	.LM1102:
 7550 231a 8F2D      		mov r24,r15
 7551 231c 90E0      		ldi r25,lo8(0)
 7552 231e 0E94 0000 		call read_data_from_eeprom
 7553               	.LVL437:
 7554               	.L1024:
 7555               	.LM1103:
 7556 2322 49E4      		ldi r20,lo8(841)
 7557 2324 53E0      		ldi r21,hi8(841)
 7558 2326 4093 0000 		sts robotData,r20
 7559 232a 5093 0000 		sts (robotData)+1,r21
 7560               	.LM1104:
 7561 232e 1092 0000 		sts robotData+2,__zero_reg__
 7562               	.LM1105:
 7563 2332 54E0      		ldi r21,lo8(4)
 7564 2334 5093 0000 		sts robotData+35,r21
 7565               	.L1025:
 7566               	.LM1106:
 7567 2338 0E94 0000 		call start_ir_timer
 7568 233c 00C0      		rjmp .L432
 7569               	.LVL438:
 7570               	.L792:
 7571               	.LBB1053:
 7572               	.LBB1054:
 7573               	.LM1107:
 7574 233e 8091 B109 		lds r24,2481
 7575 2342 85FF      		sbrs r24,5
 7576 2344 00C0      		rjmp .L792
 7577               	.LM1108:
 7578 2346 8092 B009 		sts 2480,r8
 7579               	.L610:
 7580               	.LBE1054:
 7581               	.LBE1053:
 7582               	.LBB1055:
 7583               	.LBB1056:
 7584               	.LM1109:
 7585 234a 8091 B109 		lds r24,2481
 7586 234e 85FF      		sbrs r24,5
 7587 2350 00C0      		rjmp .L610
 7588               	.LM1110:
 7589 2352 9092 B009 		sts 2480,r9
 7590               	.L611:
 7591               	.LBE1056:
 7592               	.LBE1055:
 7593               	.LBB1057:
 7594               	.LBB1058:
 7595               	.LM1111:
 7596 2356 8091 B109 		lds r24,2481
 7597 235a 85FF      		sbrs r24,5
 7598 235c 00C0      		rjmp .L611
 7599 235e 00C0      		rjmp .L1018
 7600               	.LVL439:
 7601               	.L452:
 7602               	.LBE1058:
 7603               	.LBE1057:
 7604               	.LM1112:
 7605 2360 80EB      		ldi r24,lo8(2480)
 7606 2362 99E0      		ldi r25,hi8(2480)
 7607 2364 0E94 0000 		call uart_getchar_timeout
 7608               	.LVL440:
 7609 2368 982F      		mov r25,r24
 7610               	.LVL441:
 7611 236a 9053      		subi r25,lo8(-(-48))
 7612               	.LM1113:
 7613 236c 9530      		cpi r25,lo8(5)
 7614 236e 00F4      		brsh .L741
 7615               	.L740:
 7616               	.LBB1059:
 7617               	.LBB1060:
 7618               	.LM1114:
 7619 2370 8091 B109 		lds r24,2481
 7620 2374 85FF      		sbrs r24,5
 7621 2376 00C0      		rjmp .L740
 7622               	.LBE1060:
 7623               	.LBE1059:
 7624               	.LM1115:
 7625 2378 905D      		subi r25,lo8(-(48))
 7626               	.LBB1062:
 7627               	.LBB1061:
 7628               	.LM1116:
 7629 237a 9093 B009 		sts 2480,r25
 7630 237e 9053      		subi r25,lo8(-(-48))
 7631               	.LBE1061:
 7632               	.LBE1062:
 7633               	.LM1117:
 7634 2380 892F      		mov r24,r25
 7635 2382 90E0      		ldi r25,lo8(0)
 7636               	.LVL442:
 7637 2384 0E94 0000 		call print_data_from_eeprom
 7638 2388 00C0      		rjmp .L432
 7639               	.LVL443:
 7640               	.L741:
 7641               	.LBB1063:
 7642               	.LBB1064:
 7643               	.LM1118:
 7644 238a 8091 B109 		lds r24,2481
 7645 238e 85FF      		sbrs r24,5
 7646 2390 00C0      		rjmp .L741
 7647               	.LM1119:
 7648 2392 8092 B009 		sts 2480,r8
 7649               	.L614:
 7650               	.LBE1064:
 7651               	.LBE1063:
 7652               	.LBB1065:
 7653               	.LBB1066:
 7654               	.LM1120:
 7655 2396 8091 B109 		lds r24,2481
 7656 239a 85FF      		sbrs r24,5
 7657 239c 00C0      		rjmp .L614
 7658               	.LM1121:
 7659 239e 9092 B009 		sts 2480,r9
 7660               	.L615:
 7661               	.LBE1066:
 7662               	.LBE1065:
 7663               	.LBB1067:
 7664               	.LBB1068:
 7665               	.LM1122:
 7666 23a2 8091 B109 		lds r24,2481
 7667 23a6 85FF      		sbrs r24,5
 7668 23a8 00C0      		rjmp .L615
 7669 23aa 00C0      		rjmp .L1018
 7670               	.LVL444:
 7671               	.L435:
 7672               	.LBE1068:
 7673               	.LBE1067:
 7674               	.LM1123:
 7675 23ac 80EB      		ldi r24,lo8(2480)
 7676 23ae 99E0      		ldi r25,hi8(2480)
 7677 23b0 0E94 0000 		call uart_getchar_timeout
 7678               	.LVL445:
 7679               	.LM1124:
 7680 23b4 61E0      		ldi r22,hi8(256)
 7681 23b6 8030      		cpi r24,lo8(256)
 7682 23b8 9607      		cpc r25,r22
 7683 23ba 01F4      		brne .L616
 7684               	.LVL446:
 7685               	.L793:
 7686               	.LBB1069:
 7687               	.LBB1070:
 7688               	.LM1125:
 7689 23bc 8091 B109 		lds r24,2481
 7690               	.LVL447:
 7691 23c0 85FF      		sbrs r24,5
 7692 23c2 00C0      		rjmp .L793
 7693               	.LM1126:
 7694 23c4 8092 B009 		sts 2480,r8
 7695               	.L618:
 7696               	.LBE1070:
 7697               	.LBE1069:
 7698               	.LBB1071:
 7699               	.LBB1072:
 7700               	.LM1127:
 7701 23c8 8091 B109 		lds r24,2481
 7702 23cc 85FF      		sbrs r24,5
 7703 23ce 00C0      		rjmp .L618
 7704               	.LM1128:
 7705 23d0 9092 B009 		sts 2480,r9
 7706               	.L619:
 7707               	.LBE1072:
 7708               	.LBE1071:
 7709               	.LBB1073:
 7710               	.LBB1074:
 7711               	.LM1129:
 7712 23d4 8091 B109 		lds r24,2481
 7713 23d8 85FF      		sbrs r24,5
 7714 23da 00C0      		rjmp .L619
 7715 23dc 00C0      		rjmp .L1018
 7716               	.LVL448:
 7717               	.L616:
 7718               	.LBE1074:
 7719               	.LBE1073:
 7720               	.LM1130:
 7721 23de 182F      		mov r17,r24
 7722               	.L620:
 7723               	.LBB1075:
 7724               	.LBB1076:
 7725               	.LM1131:
 7726 23e0 8091 B109 		lds r24,2481
 7727               	.LVL449:
 7728 23e4 85FF      		sbrs r24,5
 7729 23e6 00C0      		rjmp .L620
 7730               	.LM1132:
 7731 23e8 1093 B009 		sts 2480,r17
 7732               	.LBE1076:
 7733               	.LBE1075:
 7734               	.LM1133:
 7735 23ec 80EB      		ldi r24,lo8(2480)
 7736 23ee 99E0      		ldi r25,hi8(2480)
 7737 23f0 0E94 0000 		call uart_getchar_timeout
 7738 23f4 6C01      		movw r12,r24
 7739               	.LM1134:
 7740 23f6 80E0      		ldi r24,lo8(256)
 7741 23f8 C816      		cp r12,r24
 7742 23fa 81E0      		ldi r24,hi8(256)
 7743 23fc D806      		cpc r13,r24
 7744 23fe 01F4      		brne .L621
 7745               	.L794:
 7746               	.LBB1077:
 7747               	.LBB1078:
 7748               	.LM1135:
 7749 2400 8091 B109 		lds r24,2481
 7750 2404 85FF      		sbrs r24,5
 7751 2406 00C0      		rjmp .L794
 7752               	.LM1136:
 7753 2408 8092 B009 		sts 2480,r8
 7754               	.L623:
 7755               	.LBE1078:
 7756               	.LBE1077:
 7757               	.LBB1079:
 7758               	.LBB1080:
 7759               	.LM1137:
 7760 240c 8091 B109 		lds r24,2481
 7761 2410 85FF      		sbrs r24,5
 7762 2412 00C0      		rjmp .L623
 7763               	.LM1138:
 7764 2414 9092 B009 		sts 2480,r9
 7765               	.L624:
 7766               	.LBE1080:
 7767               	.LBE1079:
 7768               	.LBB1081:
 7769               	.LBB1082:
 7770               	.LM1139:
 7771 2418 8091 B109 		lds r24,2481
 7772 241c 85FF      		sbrs r24,5
 7773 241e 00C0      		rjmp .L624
 7774 2420 00C0      		rjmp .L1018
 7775               	.L621:
 7776               	.LBE1082:
 7777               	.LBE1081:
 7778               	.LM1140:
 7779 2422 6C2D      		mov r22,r12
 7780               	.L625:
 7781               	.LBB1083:
 7782               	.LBB1084:
 7783               	.LM1141:
 7784 2424 8091 B109 		lds r24,2481
 7785 2428 85FF      		sbrs r24,5
 7786 242a 00C0      		rjmp .L625
 7787               	.LM1142:
 7788 242c 6093 B009 		sts 2480,r22
 7789               	.LBE1084:
 7790               	.LBE1083:
 7791               	.LM1143:
 7792 2430 6053      		subi r22,lo8(-(-48))
 7793 2432 812F      		mov r24,r17
 7794 2434 0E94 0000 		call set_output
 7795 2438 00C0      		rjmp .L432
 7796               	.LVL450:
 7797               	.L1026:
 7798               	.LM1144:
 7799 243a 80EB      		ldi r24,lo8(2480)
 7800 243c 99E0      		ldi r25,hi8(2480)
 7801 243e 0E94 0000 		call uart_getchar_timeout
 7802               	.LVL451:
 7803 2442 9C01      		movw r18,r24
 7804               	.LM1145:
 7805 2444 91E0      		ldi r25,hi8(256)
 7806 2446 2030      		cpi r18,lo8(256)
 7807 2448 3907      		cpc r19,r25
 7808 244a 01F4      		brne .L626
 7809               	.LVL452:
 7810               	.L795:
 7811               	.LBB1085:
 7812               	.LBB1086:
 7813               	.LM1146:
 7814 244c 8091 B109 		lds r24,2481
 7815 2450 85FF      		sbrs r24,5
 7816 2452 00C0      		rjmp .L795
 7817               	.LM1147:
 7818 2454 8092 B009 		sts 2480,r8
 7819               	.L628:
 7820               	.LBE1086:
 7821               	.LBE1085:
 7822               	.LBB1087:
 7823               	.LBB1088:
 7824               	.LM1148:
 7825 2458 8091 B109 		lds r24,2481
 7826 245c 85FF      		sbrs r24,5
 7827 245e 00C0      		rjmp .L628
 7828               	.LM1149:
 7829 2460 9092 B009 		sts 2480,r9
 7830               	.L629:
 7831               	.LBE1088:
 7832               	.LBE1087:
 7833               	.LBB1089:
 7834               	.LBB1090:
 7835               	.LM1150:
 7836 2464 8091 B109 		lds r24,2481
 7837 2468 85FF      		sbrs r24,5
 7838 246a 00C0      		rjmp .L629
 7839 246c 00C0      		rjmp .L1018
 7840               	.L626:
 7841               	.LBE1090:
 7842               	.LBE1089:
 7843               	.LM1151:
 7844 246e 922F      		mov r25,r18
 7845               	.L630:
 7846               	.LBB1091:
 7847               	.LBB1092:
 7848               	.LM1152:
 7849 2470 8091 B109 		lds r24,2481
 7850 2474 85FF      		sbrs r24,5
 7851 2476 00C0      		rjmp .L630
 7852               	.LM1153:
 7853 2478 9093 B009 		sts 2480,r25
 7854               	.LBE1092:
 7855               	.LBE1091:
 7856               	.LM1154:
 7857 247c 892F      		mov r24,r25
 7858 247e 0E94 0000 		call read_input
 7859               	.LVL453:
 7860 2482 C82E      		mov r12,r24
 7861               	.LVL454:
 7862 2484 DD24      		clr r13
 7863 2486 E0E3      		ldi r30,lo8(48)
 7864 2488 F0E0      		ldi r31,hi8(48)
 7865 248a CE0E      		add r12,r30
 7866 248c DF1E      		adc r13,r31
 7867               	.LVL455:
 7868               	.L631:
 7869               	.LBB1093:
 7870               	.LBB1094:
 7871               	.LM1155:
 7872 248e 8091 B109 		lds r24,2481
 7873 2492 85FF      		sbrs r24,5
 7874 2494 00C0      		rjmp .L631
 7875               	.LM1156:
 7876 2496 C092 B009 		sts 2480,r12
 7877 249a 00C0      		rjmp .L432
 7878               	.LVL456:
 7879               	.L443:
 7880               	.LBE1094:
 7881               	.LBE1093:
 7882               	.LM1157:
 7883 249c 80EB      		ldi r24,lo8(2480)
 7884 249e 99E0      		ldi r25,hi8(2480)
 7885 24a0 0E94 0000 		call uart_getchar_timeout
 7886               	.LVL457:
 7887 24a4 8C01      		movw r16,r24
 7888               	.LVL458:
 7889               	.LM1158:
 7890 24a6 F1E0      		ldi r31,hi8(256)
 7891 24a8 8030      		cpi r24,lo8(256)
 7892 24aa 9F07      		cpc r25,r31
 7893 24ac 01F4      		brne .L774
 7894               	.LVL459:
 7895               	.L771:
 7896               	.LBB1095:
 7897               	.LBB1096:
 7898               	.LM1159:
 7899 24ae 8091 B109 		lds r24,2481
 7900               	.LVL460:
 7901 24b2 85FF      		sbrs r24,5
 7902 24b4 00C0      		rjmp .L771
 7903               	.LM1160:
 7904 24b6 8092 B009 		sts 2480,r8
 7905               	.L634:
 7906               	.LBE1096:
 7907               	.LBE1095:
 7908               	.LBB1097:
 7909               	.LBB1098:
 7910               	.LM1161:
 7911 24ba 8091 B109 		lds r24,2481
 7912 24be 85FF      		sbrs r24,5
 7913 24c0 00C0      		rjmp .L634
 7914               	.LM1162:
 7915 24c2 9092 B009 		sts 2480,r9
 7916               	.L635:
 7917               	.LBE1098:
 7918               	.LBE1097:
 7919               	.LBB1099:
 7920               	.LBB1100:
 7921               	.LM1163:
 7922 24c6 8091 B109 		lds r24,2481
 7923 24ca 85FF      		sbrs r24,5
 7924 24cc 00C0      		rjmp .L635
 7925 24ce 00C0      		rjmp .L1018
 7926               	.LVL461:
 7927               	.L774:
 7928               	.LBE1100:
 7929               	.LBE1099:
 7930               	.LBB1101:
 7931               	.LBB1102:
 7932 24d0 8091 B109 		lds r24,2481
 7933               	.LVL462:
 7934 24d4 85FF      		sbrs r24,5
 7935 24d6 00C0      		rjmp .L774
 7936               	.LM1164:
 7937 24d8 0093 B009 		sts 2480,r16
 7938               	.LBE1102:
 7939               	.LBE1101:
 7940               	.LM1165:
 7941 24dc 80EB      		ldi r24,lo8(2480)
 7942 24de 99E0      		ldi r25,hi8(2480)
 7943 24e0 0E94 0000 		call uart_getchar_timeout
 7944 24e4 9C01      		movw r18,r24
 7945 24e6 6C01      		movw r12,r24
 7946               	.LM1166:
 7947 24e8 41E0      		ldi r20,hi8(256)
 7948 24ea 8030      		cpi r24,lo8(256)
 7949 24ec 9407      		cpc r25,r20
 7950 24ee 01F4      		brne .L773
 7951               	.LVL463:
 7952               	.L772:
 7953               	.LBB1103:
 7954               	.LBB1104:
 7955               	.LM1167:
 7956 24f0 8091 B109 		lds r24,2481
 7957 24f4 85FF      		sbrs r24,5
 7958 24f6 00C0      		rjmp .L772
 7959               	.LM1168:
 7960 24f8 8092 B009 		sts 2480,r8
 7961               	.L638:
 7962               	.LBE1104:
 7963               	.LBE1103:
 7964               	.LBB1105:
 7965               	.LBB1106:
 7966               	.LM1169:
 7967 24fc 8091 B109 		lds r24,2481
 7968 2500 85FF      		sbrs r24,5
 7969 2502 00C0      		rjmp .L638
 7970               	.LM1170:
 7971 2504 9092 B009 		sts 2480,r9
 7972               	.L639:
 7973               	.LBE1106:
 7974               	.LBE1105:
 7975               	.LBB1107:
 7976               	.LBB1108:
 7977               	.LM1171:
 7978 2508 8091 B109 		lds r24,2481
 7979 250c 85FF      		sbrs r24,5
 7980 250e 00C0      		rjmp .L639
 7981 2510 00C0      		rjmp .L1018
 7982               	.LVL464:
 7983               	.L773:
 7984               	.LBE1108:
 7985               	.LBE1107:
 7986               	.LBB1109:
 7987               	.LBB1110:
 7988 2512 8091 B109 		lds r24,2481
 7989 2516 85FF      		sbrs r24,5
 7990 2518 00C0      		rjmp .L773
 7991               	.LM1172:
 7992 251a 2093 B009 		sts 2480,r18
 7993               	.LBE1110:
 7994               	.LBE1109:
 7995               	.LM1173:
 7996 251e 902F      		mov r25,r16
 7997 2520 8827      		clr r24
 7998 2522 280F      		add r18,r24
 7999 2524 391F      		adc r19,r25
 8000               	.LVL465:
 8001 2526 2093 0000 		sts pwm_frequency,r18
 8002 252a 3093 0000 		sts (pwm_frequency)+1,r19
 8003 252e 00C0      		rjmp .L432
 8004               	.LVL466:
 8005               	.L454:
 8006               	.LBB1111:
 8007               	.LBB766:
 8008               	.LM1174:
 8009 2530 51E0      		ldi r21,lo8(1)
 8010 2532 5093 000A 		sts 2560,r21
 8011               	.LM1175:
 8012 2536 23E0      		ldi r18,lo8(3)
 8013 2538 F201      		movw r30,r4
 8014 253a 2183      		std Z+1,r18
 8015               	.LM1176:
 8016 253c 1382      		std Z+3,__zero_reg__
 8017               	.LM1177:
 8018 253e 8091 0000 		lds r24,pwm_frequency
 8019 2542 9091 0000 		lds r25,(pwm_frequency)+1
 8020 2546 86AB      		std Z+54,r24
 8021 2548 97AB      		std Z+55,r25
 8022               	.LBE766:
 8023               	.LBE1111:
 8024               	.LM1178:
 8025 254a 80EB      		ldi r24,lo8(2480)
 8026 254c 99E0      		ldi r25,hi8(2480)
 8027 254e 0E94 0000 		call uart_getchar_timeout
 8028               	.LVL467:
 8029 2552 9C01      		movw r18,r24
 8030               	.LM1179:
 8031 2554 41E0      		ldi r20,hi8(256)
 8032 2556 8030      		cpi r24,lo8(256)
 8033 2558 9407      		cpc r25,r20
 8034 255a 01F4      		brne .L732
 8035               	.LVL468:
 8036               	.L723:
 8037               	.LBB1112:
 8038               	.LBB1113:
 8039               	.LM1180:
 8040 255c 8091 B109 		lds r24,2481
 8041               	.LVL469:
 8042 2560 85FF      		sbrs r24,5
 8043 2562 00C0      		rjmp .L723
 8044               	.LM1181:
 8045 2564 8092 B009 		sts 2480,r8
 8046               	.L642:
 8047               	.LBE1113:
 8048               	.LBE1112:
 8049               	.LBB1114:
 8050               	.LBB1115:
 8051               	.LM1182:
 8052 2568 8091 B109 		lds r24,2481
 8053 256c 85FF      		sbrs r24,5
 8054 256e 00C0      		rjmp .L642
 8055               	.LM1183:
 8056 2570 9092 B009 		sts 2480,r9
 8057               	.L643:
 8058               	.LBE1115:
 8059               	.LBE1114:
 8060               	.LBB1116:
 8061               	.LBB1117:
 8062               	.LM1184:
 8063 2574 8091 B109 		lds r24,2481
 8064 2578 85FF      		sbrs r24,5
 8065 257a 00C0      		rjmp .L643
 8066 257c 00C0      		rjmp .L1018
 8067               	.LVL470:
 8068               	.L732:
 8069               	.LBE1117:
 8070               	.LBE1116:
 8071               	.LBB1118:
 8072               	.LBB1119:
 8073 257e 8091 B109 		lds r24,2481
 8074               	.LVL471:
 8075 2582 85FF      		sbrs r24,5
 8076 2584 00C0      		rjmp .L732
 8077               	.LM1185:
 8078 2586 2093 B009 		sts 2480,r18
 8079               	.LBE1119:
 8080               	.LBE1118:
 8081               	.LM1186:
 8082 258a 2033      		cpi r18,48
 8083 258c 3105      		cpc r19,__zero_reg__
 8084 258e 01F0      		breq .+2
 8085 2590 00C0      		rjmp .L644
 8086               	.LVL472:
 8087               	.LM1187:
 8088 2592 80EB      		ldi r24,lo8(2480)
 8089 2594 99E0      		ldi r25,hi8(2480)
 8090 2596 0E94 0000 		call uart_getchar_timeout
 8091               	.LVL473:
 8092 259a 8C01      		movw r16,r24
 8093               	.LVL474:
 8094               	.LM1188:
 8095 259c 51E0      		ldi r21,hi8(256)
 8096 259e 8030      		cpi r24,lo8(256)
 8097 25a0 9507      		cpc r25,r21
 8098 25a2 01F4      		brne .L727
 8099               	.LVL475:
 8100               	.L724:
 8101               	.LBB1120:
 8102               	.LBB1121:
 8103               	.LM1189:
 8104 25a4 8091 B109 		lds r24,2481
 8105               	.LVL476:
 8106 25a8 85FF      		sbrs r24,5
 8107 25aa 00C0      		rjmp .L724
 8108               	.LM1190:
 8109 25ac 8092 B009 		sts 2480,r8
 8110               	.L647:
 8111               	.LBE1121:
 8112               	.LBE1120:
 8113               	.LBB1122:
 8114               	.LBB1123:
 8115               	.LM1191:
 8116 25b0 8091 B109 		lds r24,2481
 8117 25b4 85FF      		sbrs r24,5
 8118 25b6 00C0      		rjmp .L647
 8119               	.LM1192:
 8120 25b8 9092 B009 		sts 2480,r9
 8121               	.L648:
 8122               	.LBE1123:
 8123               	.LBE1122:
 8124               	.LBB1124:
 8125               	.LBB1125:
 8126               	.LM1193:
 8127 25bc 8091 B109 		lds r24,2481
 8128 25c0 85FF      		sbrs r24,5
 8129 25c2 00C0      		rjmp .L648
 8130 25c4 00C0      		rjmp .L1018
 8131               	.LVL477:
 8132               	.L727:
 8133               	.LBE1125:
 8134               	.LBE1124:
 8135               	.LBB1126:
 8136               	.LBB1127:
 8137 25c6 8091 B109 		lds r24,2481
 8138               	.LVL478:
 8139 25ca 85FF      		sbrs r24,5
 8140 25cc 00C0      		rjmp .L727
 8141               	.LM1194:
 8142 25ce 0093 B009 		sts 2480,r16
 8143               	.LBE1127:
 8144               	.LBE1126:
 8145               	.LM1195:
 8146 25d2 80EB      		ldi r24,lo8(2480)
 8147 25d4 99E0      		ldi r25,hi8(2480)
 8148 25d6 0E94 0000 		call uart_getchar_timeout
 8149 25da 9C01      		movw r18,r24
 8150 25dc 6C01      		movw r12,r24
 8151               	.LM1196:
 8152 25de 61E0      		ldi r22,hi8(256)
 8153 25e0 8030      		cpi r24,lo8(256)
 8154 25e2 9607      		cpc r25,r22
 8155 25e4 01F4      		brne .L726
 8156               	.LVL479:
 8157               	.L725:
 8158               	.LBB1128:
 8159               	.LBB1129:
 8160               	.LM1197:
 8161 25e6 8091 B109 		lds r24,2481
 8162 25ea 85FF      		sbrs r24,5
 8163 25ec 00C0      		rjmp .L725
 8164               	.LM1198:
 8165 25ee 8092 B009 		sts 2480,r8
 8166               	.L651:
 8167               	.LBE1129:
 8168               	.LBE1128:
 8169               	.LBB1130:
 8170               	.LBB1131:
 8171               	.LM1199:
 8172 25f2 8091 B109 		lds r24,2481
 8173 25f6 85FF      		sbrs r24,5
 8174 25f8 00C0      		rjmp .L651
 8175               	.LM1200:
 8176 25fa 9092 B009 		sts 2480,r9
 8177               	.L652:
 8178               	.LBE1131:
 8179               	.LBE1130:
 8180               	.LBB1132:
 8181               	.LBB1133:
 8182               	.LM1201:
 8183 25fe 8091 B109 		lds r24,2481
 8184 2602 85FF      		sbrs r24,5
 8185 2604 00C0      		rjmp .L652
 8186 2606 00C0      		rjmp .L1018
 8187               	.LVL480:
 8188               	.L726:
 8189               	.LBE1133:
 8190               	.LBE1132:
 8191               	.LBB1134:
 8192               	.LBB1135:
 8193 2608 8091 B109 		lds r24,2481
 8194 260c 85FF      		sbrs r24,5
 8195 260e 00C0      		rjmp .L726
 8196               	.LM1202:
 8197 2610 2093 B009 		sts 2480,r18
 8198               	.LBE1135:
 8199               	.LBE1134:
 8200               	.LM1203:
 8201 2614 902F      		mov r25,r16
 8202 2616 8827      		clr r24
 8203 2618 280F      		add r18,r24
 8204 261a 391F      		adc r19,r25
 8205               	.LVL481:
 8206               	.LBB1136:
 8207               	.LBB1137:
 8208               	.LM1204:
 8209 261c 8091 010A 		lds r24,2561
 8210 2620 8064      		ori r24,lo8(64)
 8211 2622 F201      		movw r30,r4
 8212 2624 8183      		std Z+1,r24
 8213               	.LM1205:
 8214 2626 F4E0      		ldi r31,lo8(4)
 8215 2628 F093 8106 		sts 1665,r31
 8216               	.LM1206:
 8217 262c F201      		movw r30,r4
 8218 262e 24A7      		std Z+44,r18
 8219 2630 35A7      		std Z+45,r19
 8220 2632 00C0      		rjmp .L432
 8221               	.LVL482:
 8222               	.L644:
 8223               	.LBE1137:
 8224               	.LBE1136:
 8225               	.LM1207:
 8226 2634 2133      		cpi r18,49
 8227 2636 3105      		cpc r19,__zero_reg__
 8228 2638 01F0      		breq .+2
 8229 263a 00C0      		rjmp .L432
 8230               	.LM1208:
 8231 263c 80EB      		ldi r24,lo8(2480)
 8232 263e 99E0      		ldi r25,hi8(2480)
 8233 2640 0E94 0000 		call uart_getchar_timeout
 8234               	.LVL483:
 8235 2644 8C01      		movw r16,r24
 8236               	.LVL484:
 8237               	.LM1209:
 8238 2646 F1E0      		ldi r31,hi8(256)
 8239 2648 8030      		cpi r24,lo8(256)
 8240 264a 9F07      		cpc r25,r31
 8241 264c 01F4      		brne .L731
 8242               	.LVL485:
 8243               	.L728:
 8244               	.LBB1138:
 8245               	.LBB1139:
 8246               	.LM1210:
 8247 264e 8091 B109 		lds r24,2481
 8248               	.LVL486:
 8249 2652 85FF      		sbrs r24,5
 8250 2654 00C0      		rjmp .L728
 8251               	.LM1211:
 8252 2656 8092 B009 		sts 2480,r8
 8253               	.L655:
 8254               	.LBE1139:
 8255               	.LBE1138:
 8256               	.LBB1140:
 8257               	.LBB1141:
 8258               	.LM1212:
 8259 265a 8091 B109 		lds r24,2481
 8260 265e 85FF      		sbrs r24,5
 8261 2660 00C0      		rjmp .L655
 8262               	.LM1213:
 8263 2662 9092 B009 		sts 2480,r9
 8264               	.L656:
 8265               	.LBE1141:
 8266               	.LBE1140:
 8267               	.LBB1142:
 8268               	.LBB1143:
 8269               	.LM1214:
 8270 2666 8091 B109 		lds r24,2481
 8271 266a 85FF      		sbrs r24,5
 8272 266c 00C0      		rjmp .L656
 8273 266e 00C0      		rjmp .L1018
 8274               	.LVL487:
 8275               	.L731:
 8276               	.LBE1143:
 8277               	.LBE1142:
 8278               	.LBB1144:
 8279               	.LBB1145:
 8280 2670 8091 B109 		lds r24,2481
 8281               	.LVL488:
 8282 2674 85FF      		sbrs r24,5
 8283 2676 00C0      		rjmp .L731
 8284               	.LM1215:
 8285 2678 0093 B009 		sts 2480,r16
 8286               	.LBE1145:
 8287               	.LBE1144:
 8288               	.LM1216:
 8289 267c 80EB      		ldi r24,lo8(2480)
 8290 267e 99E0      		ldi r25,hi8(2480)
 8291 2680 0E94 0000 		call uart_getchar_timeout
 8292 2684 9C01      		movw r18,r24
 8293 2686 6C01      		movw r12,r24
 8294               	.LM1217:
 8295 2688 41E0      		ldi r20,hi8(256)
 8296 268a 8030      		cpi r24,lo8(256)
 8297 268c 9407      		cpc r25,r20
 8298 268e 01F4      		brne .L730
 8299               	.LVL489:
 8300               	.L729:
 8301               	.LBB1146:
 8302               	.LBB1147:
 8303               	.LM1218:
 8304 2690 8091 B109 		lds r24,2481
 8305 2694 85FF      		sbrs r24,5
 8306 2696 00C0      		rjmp .L729
 8307               	.LM1219:
 8308 2698 8092 B009 		sts 2480,r8
 8309               	.L659:
 8310               	.LBE1147:
 8311               	.LBE1146:
 8312               	.LBB1148:
 8313               	.LBB1149:
 8314               	.LM1220:
 8315 269c 8091 B109 		lds r24,2481
 8316 26a0 85FF      		sbrs r24,5
 8317 26a2 00C0      		rjmp .L659
 8318               	.LM1221:
 8319 26a4 9092 B009 		sts 2480,r9
 8320               	.L660:
 8321               	.LBE1149:
 8322               	.LBE1148:
 8323               	.LBB1150:
 8324               	.LBB1151:
 8325               	.LM1222:
 8326 26a8 8091 B109 		lds r24,2481
 8327 26ac 85FF      		sbrs r24,5
 8328 26ae 00C0      		rjmp .L660
 8329 26b0 00C0      		rjmp .L1018
 8330               	.LVL490:
 8331               	.L730:
 8332               	.LBE1151:
 8333               	.LBE1150:
 8334               	.LBB1152:
 8335               	.LBB1153:
 8336 26b2 8091 B109 		lds r24,2481
 8337 26b6 85FF      		sbrs r24,5
 8338 26b8 00C0      		rjmp .L730
 8339               	.LM1223:
 8340 26ba 2093 B009 		sts 2480,r18
 8341               	.LBE1153:
 8342               	.LBE1152:
 8343               	.LM1224:
 8344 26be 902F      		mov r25,r16
 8345 26c0 8827      		clr r24
 8346 26c2 280F      		add r18,r24
 8347 26c4 391F      		adc r19,r25
 8348               	.LVL491:
 8349               	.LBB1154:
 8350               	.LBB1155:
 8351               	.LM1225:
 8352 26c6 8091 010A 		lds r24,2561
 8353 26ca 8068      		ori r24,lo8(-128)
 8354 26cc F201      		movw r30,r4
 8355 26ce 8183      		std Z+1,r24
 8356               	.LM1226:
 8357 26d0 F8E0      		ldi r31,lo8(8)
 8358 26d2 F093 8106 		sts 1665,r31
 8359               	.LM1227:
 8360 26d6 F201      		movw r30,r4
 8361 26d8 26A7      		std Z+46,r18
 8362 26da 37A7      		std Z+47,r19
 8363 26dc 00C0      		rjmp .L432
 8364               	.LVL492:
 8365               	.L451:
 8366               	.LBE1155:
 8367               	.LBE1154:
 8368               	.LM1228:
 8369 26de 80EB      		ldi r24,lo8(2480)
 8370 26e0 99E0      		ldi r25,hi8(2480)
 8371 26e2 0E94 0000 		call uart_getchar_timeout
 8372               	.LVL493:
 8373 26e6 9C01      		movw r18,r24
 8374               	.LM1229:
 8375 26e8 F1E0      		ldi r31,hi8(256)
 8376 26ea 8030      		cpi r24,lo8(256)
 8377 26ec 9F07      		cpc r25,r31
 8378 26ee 01F4      		brne .L722
 8379               	.LVL494:
 8380               	.L719:
 8381               	.LBB1156:
 8382               	.LBB1157:
 8383               	.LM1230:
 8384 26f0 8091 B109 		lds r24,2481
 8385               	.LVL495:
 8386 26f4 85FF      		sbrs r24,5
 8387 26f6 00C0      		rjmp .L719
 8388               	.LM1231:
 8389 26f8 8092 B009 		sts 2480,r8
 8390               	.L663:
 8391               	.LBE1157:
 8392               	.LBE1156:
 8393               	.LBB1158:
 8394               	.LBB1159:
 8395               	.LM1232:
 8396 26fc 8091 B109 		lds r24,2481
 8397 2700 85FF      		sbrs r24,5
 8398 2702 00C0      		rjmp .L663
 8399               	.LM1233:
 8400 2704 9092 B009 		sts 2480,r9
 8401               	.L664:
 8402               	.LBE1159:
 8403               	.LBE1158:
 8404               	.LBB1160:
 8405               	.LBB1161:
 8406               	.LM1234:
 8407 2708 8091 B109 		lds r24,2481
 8408 270c 85FF      		sbrs r24,5
 8409 270e 00C0      		rjmp .L664
 8410 2710 00C0      		rjmp .L1018
 8411               	.LVL496:
 8412               	.L722:
 8413               	.LBE1161:
 8414               	.LBE1160:
 8415               	.LBB1162:
 8416               	.LBB1163:
 8417 2712 8091 B109 		lds r24,2481
 8418               	.LVL497:
 8419 2716 85FF      		sbrs r24,5
 8420 2718 00C0      		rjmp .L722
 8421               	.LM1235:
 8422 271a 2093 B009 		sts 2480,r18
 8423               	.LBE1163:
 8424               	.LBE1162:
 8425               	.LM1236:
 8426 271e 2033      		cpi r18,48
 8427 2720 3105      		cpc r19,__zero_reg__
 8428 2722 01F4      		brne .L665
 8429               	.LVL498:
 8430               	.LM1237:
 8431 2724 80EB      		ldi r24,lo8(2480)
 8432 2726 99E0      		ldi r25,hi8(2480)
 8433 2728 0E94 0000 		call uart_getchar_timeout
 8434               	.LVL499:
 8435               	.LM1238:
 8436 272c 41E0      		ldi r20,hi8(256)
 8437 272e 8030      		cpi r24,lo8(256)
 8438 2730 9407      		cpc r25,r20
 8439 2732 01F4      		brne .L666
 8440               	.LVL500:
 8441               	.L720:
 8442               	.LBB1164:
 8443               	.LBB1165:
 8444               	.LM1239:
 8445 2734 8091 B109 		lds r24,2481
 8446               	.LVL501:
 8447 2738 85FF      		sbrs r24,5
 8448 273a 00C0      		rjmp .L720
 8449               	.LM1240:
 8450 273c 8092 B009 		sts 2480,r8
 8451               	.L668:
 8452               	.LBE1165:
 8453               	.LBE1164:
 8454               	.LBB1166:
 8455               	.LBB1167:
 8456               	.LM1241:
 8457 2740 8091 B109 		lds r24,2481
 8458 2744 85FF      		sbrs r24,5
 8459 2746 00C0      		rjmp .L668
 8460               	.LM1242:
 8461 2748 9092 B009 		sts 2480,r9
 8462               	.L669:
 8463               	.LBE1167:
 8464               	.LBE1166:
 8465               	.LBB1168:
 8466               	.LBB1169:
 8467               	.LM1243:
 8468 274c 8091 B109 		lds r24,2481
 8469 2750 85FF      		sbrs r24,5
 8470 2752 00C0      		rjmp .L669
 8471 2754 00C0      		rjmp .L1018
 8472               	.LVL502:
 8473               	.L666:
 8474               	.LBE1169:
 8475               	.LBE1168:
 8476               	.LM1244:
 8477 2756 982F      		mov r25,r24
 8478               	.L670:
 8479               	.LBB1170:
 8480               	.LBB1171:
 8481               	.LM1245:
 8482 2758 8091 B109 		lds r24,2481
 8483               	.LVL503:
 8484 275c 85FF      		sbrs r24,5
 8485 275e 00C0      		rjmp .L670
 8486               	.LM1246:
 8487 2760 9093 B009 		sts 2480,r25
 8488               	.LBE1171:
 8489               	.LBE1170:
 8490               	.LBB1172:
 8491               	.LBB1173:
 8492               	.LM1247:
 8493 2764 8091 2003 		lds r24,800
 8494 2768 8460      		ori r24,lo8(4)
 8495 276a 8093 2003 		sts 800,r24
 8496               	.L671:
 8497               	.LM1248:
 8498 276e 8091 2503 		lds r24,805
 8499 2772 80FF      		sbrs r24,0
 8500 2774 00C0      		rjmp .L671
 8501               	.LM1249:
 8502 2776 9093 3903 		sts 825,r25
 8503 277a 00C0      		rjmp .L432
 8504               	.LVL504:
 8505               	.L665:
 8506               	.LBE1173:
 8507               	.LBE1172:
 8508               	.LM1250:
 8509 277c 2133      		cpi r18,49
 8510 277e 3105      		cpc r19,__zero_reg__
 8511 2780 01F0      		breq .+2
 8512 2782 00C0      		rjmp .L432
 8513               	.LM1251:
 8514 2784 80EB      		ldi r24,lo8(2480)
 8515 2786 99E0      		ldi r25,hi8(2480)
 8516 2788 0E94 0000 		call uart_getchar_timeout
 8517               	.LVL505:
 8518               	.LM1252:
 8519 278c 51E0      		ldi r21,hi8(256)
 8520 278e 8030      		cpi r24,lo8(256)
 8521 2790 9507      		cpc r25,r21
 8522 2792 01F4      		brne .L672
 8523               	.LVL506:
 8524               	.L721:
 8525               	.LBB1174:
 8526               	.LBB1175:
 8527               	.LM1253:
 8528 2794 8091 B109 		lds r24,2481
 8529               	.LVL507:
 8530 2798 85FF      		sbrs r24,5
 8531 279a 00C0      		rjmp .L721
 8532               	.LM1254:
 8533 279c 8092 B009 		sts 2480,r8
 8534               	.L674:
 8535               	.LBE1175:
 8536               	.LBE1174:
 8537               	.LBB1176:
 8538               	.LBB1177:
 8539               	.LM1255:
 8540 27a0 8091 B109 		lds r24,2481
 8541 27a4 85FF      		sbrs r24,5
 8542 27a6 00C0      		rjmp .L674
 8543               	.LM1256:
 8544 27a8 9092 B009 		sts 2480,r9
 8545               	.L675:
 8546               	.LBE1177:
 8547               	.LBE1176:
 8548               	.LBB1178:
 8549               	.LBB1179:
 8550               	.LM1257:
 8551 27ac 8091 B109 		lds r24,2481
 8552 27b0 85FF      		sbrs r24,5
 8553 27b2 00C0      		rjmp .L675
 8554 27b4 00C0      		rjmp .L1018
 8555               	.LVL508:
 8556               	.L672:
 8557               	.LBE1179:
 8558               	.LBE1178:
 8559               	.LM1258:
 8560 27b6 982F      		mov r25,r24
 8561               	.L676:
 8562               	.LBB1180:
 8563               	.LBB1181:
 8564               	.LM1259:
 8565 27b8 8091 B109 		lds r24,2481
 8566               	.LVL509:
 8567 27bc 85FF      		sbrs r24,5
 8568 27be 00C0      		rjmp .L676
 8569               	.LM1260:
 8570 27c0 9093 B009 		sts 2480,r25
 8571               	.LBE1181:
 8572               	.LBE1180:
 8573               	.LBB1182:
 8574               	.LBB1183:
 8575               	.LM1261:
 8576 27c4 8091 2003 		lds r24,800
 8577 27c8 8860      		ori r24,lo8(8)
 8578 27ca 8093 2003 		sts 800,r24
 8579               	.L677:
 8580               	.LM1262:
 8581 27ce 8091 2503 		lds r24,805
 8582 27d2 81FF      		sbrs r24,1
 8583 27d4 00C0      		rjmp .L677
 8584               	.LM1263:
 8585 27d6 9093 3B03 		sts 827,r25
 8586 27da 00C0      		rjmp .L432
 8587               	.LVL510:
 8588               	.L438:
 8589               	.LBE1183:
 8590               	.LBE1182:
 8591               	.LM1264:
 8592 27dc 80EB      		ldi r24,lo8(2480)
 8593 27de 99E0      		ldi r25,hi8(2480)
 8594 27e0 0E94 0000 		call uart_getchar_timeout
 8595               	.LVL511:
 8596 27e4 7C01      		movw r14,r24
 8597               	.LVL512:
 8598               	.LM1265:
 8599 27e6 61E0      		ldi r22,hi8(256)
 8600 27e8 8030      		cpi r24,lo8(256)
 8601 27ea 9607      		cpc r25,r22
 8602 27ec 01F4      		brne .L786
 8603               	.LVL513:
 8604               	.L782:
 8605               	.LBB1184:
 8606               	.LBB1185:
 8607               	.LM1266:
 8608 27ee 8091 B109 		lds r24,2481
 8609               	.LVL514:
 8610 27f2 85FF      		sbrs r24,5
 8611 27f4 00C0      		rjmp .L782
 8612               	.LM1267:
 8613 27f6 8092 B009 		sts 2480,r8
 8614               	.L680:
 8615               	.LBE1185:
 8616               	.LBE1184:
 8617               	.LBB1186:
 8618               	.LBB1187:
 8619               	.LM1268:
 8620 27fa 8091 B109 		lds r24,2481
 8621 27fe 85FF      		sbrs r24,5
 8622 2800 00C0      		rjmp .L680
 8623               	.LM1269:
 8624 2802 9092 B009 		sts 2480,r9
 8625               	.L681:
 8626               	.LBE1187:
 8627               	.LBE1186:
 8628               	.LBB1188:
 8629               	.LBB1189:
 8630               	.LM1270:
 8631 2806 8091 B109 		lds r24,2481
 8632 280a 85FF      		sbrs r24,5
 8633 280c 00C0      		rjmp .L681
 8634 280e 00C0      		rjmp .L1018
 8635               	.LVL515:
 8636               	.L786:
 8637               	.LBE1189:
 8638               	.LBE1188:
 8639               	.LBB1190:
 8640               	.LBB1191:
 8641 2810 8091 B109 		lds r24,2481
 8642               	.LVL516:
 8643 2814 85FF      		sbrs r24,5
 8644 2816 00C0      		rjmp .L786
 8645               	.LM1271:
 8646 2818 E092 B009 		sts 2480,r14
 8647               	.LBE1191:
 8648               	.LBE1190:
 8649               	.LM1272:
 8650 281c 80EB      		ldi r24,lo8(2480)
 8651 281e 99E0      		ldi r25,hi8(2480)
 8652 2820 0E94 0000 		call uart_getchar_timeout
 8653 2824 8C01      		movw r16,r24
 8654               	.LVL517:
 8655 2826 6C01      		movw r12,r24
 8656               	.LM1273:
 8657 2828 81E0      		ldi r24,hi8(256)
 8658 282a 0030      		cpi r16,lo8(256)
 8659 282c 1807      		cpc r17,r24
 8660 282e 01F4      		brne .L785
 8661               	.LVL518:
 8662               	.L783:
 8663               	.LBB1192:
 8664               	.LBB1193:
 8665               	.LM1274:
 8666 2830 8091 B109 		lds r24,2481
 8667 2834 85FF      		sbrs r24,5
 8668 2836 00C0      		rjmp .L783
 8669               	.LM1275:
 8670 2838 8092 B009 		sts 2480,r8
 8671               	.L684:
 8672               	.LBE1193:
 8673               	.LBE1192:
 8674               	.LBB1194:
 8675               	.LBB1195:
 8676               	.LM1276:
 8677 283c 8091 B109 		lds r24,2481
 8678 2840 85FF      		sbrs r24,5
 8679 2842 00C0      		rjmp .L684
 8680               	.LM1277:
 8681 2844 9092 B009 		sts 2480,r9
 8682               	.L685:
 8683               	.LBE1195:
 8684               	.LBE1194:
 8685               	.LBB1196:
 8686               	.LBB1197:
 8687               	.LM1278:
 8688 2848 8091 B109 		lds r24,2481
 8689 284c 85FF      		sbrs r24,5
 8690 284e 00C0      		rjmp .L685
 8691 2850 00C0      		rjmp .L1018
 8692               	.L785:
 8693               	.LBE1197:
 8694               	.LBE1196:
 8695               	.LBB1198:
 8696               	.LBB1199:
 8697 2852 8091 B109 		lds r24,2481
 8698 2856 85FF      		sbrs r24,5
 8699 2858 00C0      		rjmp .L785
 8700               	.LM1279:
 8701 285a 0093 B009 		sts 2480,r16
 8702               	.LBE1199:
 8703               	.LBE1198:
 8704               	.LM1280:
 8705 285e 80EB      		ldi r24,lo8(2480)
 8706 2860 99E0      		ldi r25,hi8(2480)
 8707 2862 0E94 0000 		call uart_getchar_timeout
 8708 2866 9C01      		movw r18,r24
 8709               	.LM1281:
 8710 2868 91E0      		ldi r25,hi8(256)
 8711 286a 2030      		cpi r18,lo8(256)
 8712 286c 3907      		cpc r19,r25
 8713 286e 01F4      		brne .L686
 8714               	.LVL519:
 8715               	.L784:
 8716               	.LBB1200:
 8717               	.LBB1201:
 8718               	.LM1282:
 8719 2870 8091 B109 		lds r24,2481
 8720 2874 85FF      		sbrs r24,5
 8721 2876 00C0      		rjmp .L784
 8722               	.LM1283:
 8723 2878 8092 B009 		sts 2480,r8
 8724               	.L688:
 8725               	.LBE1201:
 8726               	.LBE1200:
 8727               	.LBB1202:
 8728               	.LBB1203:
 8729               	.LM1284:
 8730 287c 8091 B109 		lds r24,2481
 8731 2880 85FF      		sbrs r24,5
 8732 2882 00C0      		rjmp .L688
 8733               	.LM1285:
 8734 2884 9092 B009 		sts 2480,r9
 8735               	.L689:
 8736               	.LBE1203:
 8737               	.LBE1202:
 8738               	.LBB1204:
 8739               	.LBB1205:
 8740               	.LM1286:
 8741 2888 8091 B109 		lds r24,2481
 8742 288c 85FF      		sbrs r24,5
 8743 288e 00C0      		rjmp .L689
 8744               	.LM1287:
 8745 2890 9092 B009 		sts 2480,r9
 8746 2894 00C0      		rjmp .L1019
 8747               	.L686:
 8748               	.LBE1205:
 8749               	.LBE1204:
 8750               	.LM1288:
 8751 2896 422F      		mov r20,r18
 8752               	.L690:
 8753               	.LBB1206:
 8754               	.LBB1207:
 8755               	.LM1289:
 8756 2898 8091 B109 		lds r24,2481
 8757 289c 85FF      		sbrs r24,5
 8758 289e 00C0      		rjmp .L690
 8759               	.LM1290:
 8760 28a0 4093 B009 		sts 2480,r20
 8761               	.L691:
 8762               	.LBE1207:
 8763               	.LBE1206:
 8764               	.LBB1208:
 8765               	.LBB1209:
 8766               	.LM1291:
 8767 28a4 8091 B109 		lds r24,2481
 8768 28a8 85FF      		sbrs r24,5
 8769 28aa 00C0      		rjmp .L691
 8770               	.LBE1209:
 8771               	.LBE1208:
 8772               	.LM1292:
 8773 28ac 9E2D      		mov r25,r14
 8774 28ae 8827      		clr r24
 8775               	.LVL520:
 8776 28b0 800F      		add r24,r16
 8777 28b2 911F      		adc r25,r17
 8778               	.LBB1211:
 8779               	.LBB1210:
 8780               	.LM1293:
 8781 28b4 4093 B009 		sts 2480,r20
 8782               	.LBE1210:
 8783               	.LBE1211:
 8784               	.LBB1212:
 8785               	.LBB1213:
 8786               	.LM1294:
 8787 28b8 8093 A608 		sts 2214,r24
 8788 28bc 4295      		swap r20
 8789 28be 407F      		andi r20,lo8(-16)
 8790 28c0 892F      		mov r24,r25
 8791 28c2 990F      		lsl r25
 8792 28c4 990B      		sbc r25,r25
 8793               	.LVL521:
 8794 28c6 482B      		or r20,r24
 8795 28c8 4093 A708 		sts 2215,r20
 8796               	.LVL522:
 8797               	.L1019:
 8798 28cc 6901      		movw r12,r18
 8799 28ce 00C0      		rjmp .L432
 8800               	.LVL523:
 8801               	.L693:
 8802               	.LBE1213:
 8803               	.LBE1212:
 8804               	.LBB1214:
 8805               	.LBB1215:
 8806               	.LM1295:
 8807 28d0 E091 0000 		lds r30,AUX_data+259
 8808 28d4 F0E0      		ldi r31,lo8(0)
 8809 28d6 E050      		subi r30,lo8(-(AUX_data))
 8810 28d8 F040      		sbci r31,hi8(-(AUX_data))
 8811 28da 9281      		ldd r25,Z+2
 8812               	.LVL524:
 8813               	.LM1296:
 8814 28dc 8091 0000 		lds r24,AUX_data+259
 8815               	.LVL525:
 8816 28e0 8F5F      		subi r24,lo8(-(1))
 8817 28e2 8093 0000 		sts AUX_data+259,r24
 8818               	.L692:
 8819               	.LBE1215:
 8820               	.LBE1214:
 8821               	.LBB1216:
 8822               	.LBB1217:
 8823               	.LM1297:
 8824 28e6 8091 B109 		lds r24,2481
 8825 28ea 85FF      		sbrs r24,5
 8826 28ec 00C0      		rjmp .L692
 8827               	.LM1298:
 8828 28ee 9093 B009 		sts 2480,r25
 8829               	.LVL526:
 8830               	.L1014:
 8831               	.LBE1217:
 8832               	.LBE1216:
 8833               	.LBB1218:
 8834               	.LBB1219:
 8835               	.LM1299:
 8836 28f2 9091 0000 		lds r25,AUX_data+258
 8837               	.LVL527:
 8838               	.LM1300:
 8839 28f6 8091 0000 		lds r24,AUX_data+259
 8840               	.LVL528:
 8841               	.LBE1219:
 8842               	.LBE1218:
 8843               	.LM1301:
 8844 28fa 9817      		cp r25,r24
 8845 28fc 01F4      		brne .L693
 8846 28fe 00C0      		rjmp .L1017
 8847               	.LVL529:
 8848               	.L696:
 8849               	.LBB1220:
 8850               	.LBB1221:
 8851               	.LM1302:
 8852 2900 E091 0000 		lds r30,BT_data+259
 8853 2904 F0E0      		ldi r31,lo8(0)
 8854 2906 E050      		subi r30,lo8(-(BT_data))
 8855 2908 F040      		sbci r31,hi8(-(BT_data))
 8856 290a 9281      		ldd r25,Z+2
 8857               	.LVL530:
 8858               	.LM1303:
 8859 290c 8091 0000 		lds r24,BT_data+259
 8860               	.LVL531:
 8861 2910 8F5F      		subi r24,lo8(-(1))
 8862 2912 8093 0000 		sts BT_data+259,r24
 8863               	.L695:
 8864               	.LBE1221:
 8865               	.LBE1220:
 8866               	.LBB1222:
 8867               	.LBB1223:
 8868               	.LM1304:
 8869 2916 8091 A108 		lds r24,2209
 8870 291a 85FF      		sbrs r24,5
 8871 291c 00C0      		rjmp .L695
 8872               	.LM1305:
 8873 291e 9093 A008 		sts 2208,r25
 8874               	.LVL532:
 8875               	.L1017:
 8876               	.LBE1223:
 8877               	.LBE1222:
 8878               	.LBB1224:
 8879               	.LBB1225:
 8880               	.LM1306:
 8881 2922 9091 0000 		lds r25,BT_data+258
 8882               	.LVL533:
 8883               	.LM1307:
 8884 2926 8091 0000 		lds r24,BT_data+259
 8885               	.LVL534:
 8886               	.LBE1225:
 8887               	.LBE1224:
 8888               	.LM1308:
 8889 292a 9817      		cp r25,r24
 8890 292c 01F4      		brne .L696
 8891 292e 00C0      		rjmp .L1014
 8892               	.LVL535:
 8893               	.L697:
 8894               	.LBB1226:
 8895               	.LBB1227:
 8896               	.LM1309:
 8897 2930 E091 0000 		lds r30,AUX_data+259
 8898 2934 F0E0      		ldi r31,lo8(0)
 8899 2936 E050      		subi r30,lo8(-(AUX_data))
 8900 2938 F040      		sbci r31,hi8(-(AUX_data))
 8901 293a 9281      		ldd r25,Z+2
 8902               	.LVL536:
 8903               	.LM1310:
 8904 293c 8091 0000 		lds r24,AUX_data+259
 8905               	.LVL537:
 8906 2940 8F5F      		subi r24,lo8(-(1))
 8907 2942 8093 0000 		sts AUX_data+259,r24
 8908               	.LBE1227:
 8909               	.LBE1226:
 8910               	.LM1311:
 8911 2946 E1E0      		ldi r30,lo8(1)
 8912 2948 F0E0      		ldi r31,hi8(1)
 8913 294a EC0F      		add r30,r28
 8914 294c FD1F      		adc r31,r29
 8915 294e E20F      		add r30,r18
 8916 2950 F11D      		adc r31,__zero_reg__
 8917 2952 9083      		st Z,r25
 8918               	.LM1312:
 8919 2954 2F5F      		subi r18,lo8(-(1))
 8920               	.LVL538:
 8921               	.L466:
 8922               	.LBB1228:
 8923               	.LBB1229:
 8924               	.LM1313:
 8925 2956 9091 0000 		lds r25,AUX_data+258
 8926               	.LVL539:
 8927               	.LM1314:
 8928 295a 8091 0000 		lds r24,AUX_data+259
 8929               	.LVL540:
 8930               	.LBE1229:
 8931               	.LBE1228:
 8932               	.LM1315:
 8933 295e 9817      		cp r25,r24
 8934 2960 01F4      		brne .L697
 8935               	.L739:
 8936               	.LBB1230:
 8937               	.LBB1231:
 8938               	.LM1316:
 8939 2962 8091 B109 		lds r24,2481
 8940               	.LVL541:
 8941 2966 85FF      		sbrs r24,5
 8942 2968 00C0      		rjmp .L739
 8943               	.LBE1231:
 8944               	.LBE1230:
 8945               	.LM1317:
 8946 296a 2F5F      		subi r18,lo8(-(1))
 8947               	.LBB1233:
 8948               	.LBB1232:
 8949               	.LM1318:
 8950 296c 2093 B009 		sts 2480,r18
 8951 2970 2150      		subi r18,lo8(-(-1))
 8952 2972 FE01      		movw r30,r28
 8953 2974 3196      		adiw r30,1
 8954               	.LBE1232:
 8955               	.LBE1233:
 8956               	.LBB1234:
 8957               	.LM1319:
 8958 2976 AF01      		movw r20,r30
 8959 2978 420F      		add r20,r18
 8960 297a 511D      		adc r21,__zero_reg__
 8961 297c 9A01      		movw r18,r20
 8962               	.LVL542:
 8963 297e 00C0      		rjmp .L699
 8964               	.L701:
 8965               	.LM1320:
 8966 2980 9081      		ld r25,Z
 8967               	.LVL543:
 8968               	.L700:
 8969               	.LBB1235:
 8970               	.LBB1236:
 8971               	.LM1321:
 8972 2982 8091 B109 		lds r24,2481
 8973 2986 85FF      		sbrs r24,5
 8974 2988 00C0      		rjmp .L700
 8975               	.LM1322:
 8976 298a 9093 B009 		sts 2480,r25
 8977 298e 3196      		adiw r30,1
 8978               	.LVL544:
 8979               	.L699:
 8980               	.LBE1236:
 8981               	.LBE1235:
 8982               	.LM1323:
 8983 2990 E217      		cp r30,r18
 8984 2992 F307      		cpc r31,r19
 8985 2994 01F4      		brne .L701
 8986 2996 00C0      		rjmp .L432
 8987               	.LVL545:
 8988               	.L457:
 8989               	.LBE1234:
 8990               	.LM1324:
 8991 2998 80EB      		ldi r24,lo8(2480)
 8992 299a 99E0      		ldi r25,hi8(2480)
 8993 299c 0E94 0000 		call uart_getchar_timeout
 8994               	.LVL546:
 8995 29a0 8C01      		movw r16,r24
 8996               	.LVL547:
 8997               	.L702:
 8998               	.LBB1237:
 8999               	.LBB1238:
 9000               	.LM1325:
 9001 29a2 8091 B109 		lds r24,2481
 9002 29a6 85FF      		sbrs r24,5
 9003 29a8 00C0      		rjmp .L702
 9004               	.LM1326:
 9005 29aa 0093 B009 		sts 2480,r16
 9006 29ae EE24      		clr r14
 9007 29b0 FF24      		clr r15
 9008 29b2 00C0      		rjmp .L703
 9009               	.LVL548:
 9010               	.L710:
 9011               	.LBE1238:
 9012               	.LBE1237:
 9013               	.LBB1239:
 9014               	.LM1327:
 9015 29b4 80EB      		ldi r24,lo8(2480)
 9016 29b6 99E0      		ldi r25,hi8(2480)
 9017 29b8 0E94 0000 		call uart_getchar_timeout
 9018 29bc 6C01      		movw r12,r24
 9019               	.LM1328:
 9020 29be 51E0      		ldi r21,hi8(256)
 9021 29c0 8030      		cpi r24,lo8(256)
 9022 29c2 9507      		cpc r25,r21
 9023 29c4 01F4      		brne .L704
 9024               	.L738:
 9025               	.LBB1240:
 9026               	.LBB1241:
 9027               	.LM1329:
 9028 29c6 8091 B109 		lds r24,2481
 9029 29ca 85FF      		sbrs r24,5
 9030 29cc 00C0      		rjmp .L738
 9031               	.LM1330:
 9032 29ce 8092 B009 		sts 2480,r8
 9033               	.L706:
 9034               	.LBE1241:
 9035               	.LBE1240:
 9036               	.LBB1242:
 9037               	.LBB1243:
 9038               	.LM1331:
 9039 29d2 8091 B109 		lds r24,2481
 9040 29d6 85FF      		sbrs r24,5
 9041 29d8 00C0      		rjmp .L706
 9042               	.LM1332:
 9043 29da 9092 B009 		sts 2480,r9
 9044               	.L707:
 9045               	.LBE1243:
 9046               	.LBE1242:
 9047               	.LBB1244:
 9048               	.LBB1245:
 9049               	.LM1333:
 9050 29de 8091 B109 		lds r24,2481
 9051 29e2 85FF      		sbrs r24,5
 9052 29e4 00C0      		rjmp .L707
 9053               	.LVL549:
 9054               	.L1018:
 9055               	.LM1334:
 9056 29e6 9092 B009 		sts 2480,r9
 9057 29ea 00C0      		rjmp .L432
 9058               	.LVL550:
 9059               	.L704:
 9060               	.LBE1245:
 9061               	.LBE1244:
 9062               	.LM1335:
 9063 29ec 982F      		mov r25,r24
 9064               	.LVL551:
 9065               	.L708:
 9066               	.LBB1246:
 9067               	.LBB1247:
 9068               	.LM1336:
 9069 29ee 8091 B109 		lds r24,2481
 9070 29f2 85FF      		sbrs r24,5
 9071 29f4 00C0      		rjmp .L708
 9072               	.LM1337:
 9073 29f6 9093 B009 		sts 2480,r25
 9074               	.L709:
 9075               	.LBE1247:
 9076               	.LBE1246:
 9077               	.LBB1248:
 9078               	.LBB1249:
 9079               	.LM1338:
 9080 29fa 8091 A108 		lds r24,2209
 9081 29fe 85FF      		sbrs r24,5
 9082 2a00 00C0      		rjmp .L709
 9083               	.LM1339:
 9084 2a02 9093 A008 		sts 2208,r25
 9085               	.LBE1249:
 9086               	.LBE1248:
 9087               	.LM1340:
 9088 2a06 0894      		sec
 9089 2a08 E11C      		adc r14,__zero_reg__
 9090 2a0a F11C      		adc r15,__zero_reg__
 9091               	.L703:
 9092 2a0c E016      		cp r14,r16
 9093 2a0e F106      		cpc r15,r17
 9094 2a10 00F0      		brlo .L710
 9095               	.LVL552:
 9096               	.L432:
 9097 2a12 80E0      		ldi r24,lo8(0)
 9098 2a14 90E0      		ldi r25,hi8(0)
 9099 2a16 A0E0      		ldi r26,hlo8(0)
 9100 2a18 B0E0      		ldi r27,hhi8(0)
 9101               	.LVL553:
 9102 2a1a 00C0      		rjmp .L472
 9103               	.LVL554:
 9104               	.L430:
 9105 2a1c 88A1      		ldd r24,Y+32
 9106 2a1e 99A1      		ldd r25,Y+33
 9107 2a20 AAA1      		ldd r26,Y+34
 9108 2a22 BBA1      		ldd r27,Y+35
 9109               	.LVL555:
 9110               	.L472:
 9111               	.LBE1239:
 9112               	.LM1341:
 9113 2a24 28A1      		ldd r18,Y+32
 9114 2a26 39A1      		ldd r19,Y+33
 9115 2a28 4AA1      		ldd r20,Y+34
 9116 2a2a 5BA1      		ldd r21,Y+35
 9117 2a2c 2158      		subi r18,lo8(33840001)
 9118 2a2e 3B45      		sbci r19,hi8(33840001)
 9119 2a30 4440      		sbci r20,hlo8(33840001)
 9120 2a32 5240      		sbci r21,hhi8(33840001)
 9121 2a34 04F0      		brlt .+4
 9122 2a36 0C94 0000 		jmp .L1016
 9123               	.LVL556:
 9124 2a3a 0C94 0000 		jmp .L711
 9125               	.LFE89:
 9127               	.global	pwm_frequency
 9128               	.global	pwm_frequency
 9129               		.section .bss
 9132               	pwm_frequency:
 9133 0000 0000      		.skip 2,0
 9134               	.global	signal_count
 9135               	.global	signal_count
 9138               	signal_count:
 9139 0002 00        		.skip 1,0
 9140               	.global	ir_read_time_out
 9141               	.global	ir_read_time_out
 9144               	ir_read_time_out:
 9145 0003 00        		.skip 1,0
 9146               	.global	ir_read_flag
 9147               	.global	ir_read_flag
 9150               	ir_read_flag:
 9151 0004 00        		.skip 1,0
 9152               		.comm bt,14,1
 9153               		.comm aux,14,1
 9154               		.comm BT_data,260,1
 9155               		.comm AUX_data,260,1
 9156               		.comm robotData,240,1
 9157               		.comm startUpCounter,2,1
 9158               		.comm bitCounter,1,1
 9159               		.comm onOffTracker,2,1
 9160               		.comm captured_signal,191,1
 9161               		.comm twiMaster,17,1
 9162               		.comm _acc,4,1
 9843               	.Letext0:
DEFINED SYMBOLS
                            *ABS*:00000000 mainFirmware.c
C:\Users\ALEXAN~1\AppData\Local\Temp/ccVOaCht.s:2      *ABS*:0000003f __SREG__
C:\Users\ALEXAN~1\AppData\Local\Temp/ccVOaCht.s:3      *ABS*:0000003e __SP_H__
C:\Users\ALEXAN~1\AppData\Local\Temp/ccVOaCht.s:4      *ABS*:0000003d __SP_L__
C:\Users\ALEXAN~1\AppData\Local\Temp/ccVOaCht.s:5      *ABS*:00000034 __CCP__
C:\Users\ALEXAN~1\AppData\Local\Temp/ccVOaCht.s:6      *ABS*:00000000 __tmp_reg__
C:\Users\ALEXAN~1\AppData\Local\Temp/ccVOaCht.s:7      *ABS*:00000001 __zero_reg__
C:\Users\ALEXAN~1\AppData\Local\Temp/ccVOaCht.s:18     .text:00000000 init_clock
C:\Users\ALEXAN~1\AppData\Local\Temp/ccVOaCht.s:46     .text:00000022 init_led
C:\Users\ALEXAN~1\AppData\Local\Temp/ccVOaCht.s:95     .text:0000005a set_led
C:\Users\ALEXAN~1\AppData\Local\Temp/ccVOaCht.s:122    .text:0000006e init_bt_uart
                            *COM*:00000104 BT_data
C:\Users\ALEXAN~1\AppData\Local\Temp/ccVOaCht.s:185    .text:000000c0 init_aux_uart
                            *COM*:00000104 AUX_data
C:\Users\ALEXAN~1\AppData\Local\Temp/ccVOaCht.s:255    .text:0000011a set_aux_baud_rate
C:\Users\ALEXAN~1\AppData\Local\Temp/ccVOaCht.s:281    .text:00000130 uart_putchar
C:\Users\ALEXAN~1\AppData\Local\Temp/ccVOaCht.s:303    .text:0000013c uart_getchar_nb
C:\Users\ALEXAN~1\AppData\Local\Temp/ccVOaCht.s:341    .text:00000160 uart_getchar
C:\Users\ALEXAN~1\AppData\Local\Temp/ccVOaCht.s:385    .text:00000184 uart_getchar_timeout
C:\Users\ALEXAN~1\AppData\Local\Temp/ccVOaCht.s:490    .text:000001d8 aux_uart_getchar
C:\Users\ALEXAN~1\AppData\Local\Temp/ccVOaCht.s:521    .text:000001f2 USART_InterruptDriver_Initialize
C:\Users\ALEXAN~1\AppData\Local\Temp/ccVOaCht.s:546    .text:00000202 USART_RXBufferData_Available
C:\Users\ALEXAN~1\AppData\Local\Temp/ccVOaCht.s:575    .text:00000216 USART_RXBuffer_GetByte
C:\Users\ALEXAN~1\AppData\Local\Temp/ccVOaCht.s:604    .text:0000022e USART_RXComplete
C:\Users\ALEXAN~1\AppData\Local\Temp/ccVOaCht.s:664    .text:0000026c __vector_91
C:\Users\ALEXAN~1\AppData\Local\Temp/ccVOaCht.s:726    .text:000002bc __vector_25
C:\Users\ALEXAN~1\AppData\Local\Temp/ccVOaCht.s:788    .text:0000030c init_adc
C:\Users\ALEXAN~1\AppData\Local\Temp/ccVOaCht.s:866    .text:00000364 read_analog
C:\Users\ALEXAN~1\AppData\Local\Temp/ccVOaCht.s:907    .text:00000396 read_internal_temperature
C:\Users\ALEXAN~1\AppData\Local\Temp/ccVOaCht.s:938    .text:000003ba init_ir
C:\Users\ALEXAN~1\AppData\Local\Temp/ccVOaCht.s:974    .text:000003e0 set_ir50
C:\Users\ALEXAN~1\AppData\Local\Temp/ccVOaCht.s:1007   .text:000003f6 set_ir100
C:\Users\ALEXAN~1\AppData\Local\Temp/ccVOaCht.s:1038   .text:00000408 set_ir0
C:\Users\ALEXAN~1\AppData\Local\Temp/ccVOaCht.s:1067   .text:00000416 set_ir_carrier
C:\Users\ALEXAN~1\AppData\Local\Temp/ccVOaCht.s:1098   .text:00000424 start_ir_timer
                            *COM*:00000002 startUpCounter
                            *COM*:00000002 onOffTracker
                            *COM*:00000001 bitCounter
C:\Users\ALEXAN~1\AppData\Local\Temp/ccVOaCht.s:1146   .text:00000458 stop_ir_timer
C:\Users\ALEXAN~1\AppData\Local\Temp/ccVOaCht.s:1183   .text:0000046c __vector_20
                            *COM*:000000f0 robotData
C:\Users\ALEXAN~1\AppData\Local\Temp/ccVOaCht.s:1569   .text:000006e0 BT_default_reset
C:\Users\ALEXAN~1\AppData\Local\Temp/ccVOaCht.s:1677   .text:00000730 BT_reset
C:\Users\ALEXAN~1\AppData\Local\Temp/ccVOaCht.s:1728   .text:00000754 init_BT
C:\Users\ALEXAN~1\AppData\Local\Temp/ccVOaCht.s:1765   .text:00000782 TWI_MasterInit
C:\Users\ALEXAN~1\AppData\Local\Temp/ccVOaCht.s:1799   .text:000007a2 TWI_MasterState
C:\Users\ALEXAN~1\AppData\Local\Temp/ccVOaCht.s:1820   .text:000007b0 TWI_MasterReady
C:\Users\ALEXAN~1\AppData\Local\Temp/ccVOaCht.s:1838   .text:000007b8 TWI_MasterWriteRead
C:\Users\ALEXAN~1\AppData\Local\Temp/ccVOaCht.s:1971   .text:0000085a TWI_MasterRead
C:\Users\ALEXAN~1\AppData\Local\Temp/ccVOaCht.s:1995   .text:0000086c TWI_MasterWrite
C:\Users\ALEXAN~1\AppData\Local\Temp/ccVOaCht.s:2014   .text:00000878 TWI_MasterArbitrationLostBusErrorHandler
C:\Users\ALEXAN~1\AppData\Local\Temp/ccVOaCht.s:2058   .text:000008a2 TWI_MasterWriteHandler
C:\Users\ALEXAN~1\AppData\Local\Temp/ccVOaCht.s:2163   .text:0000091a TWI_MasterReadHandler
C:\Users\ALEXAN~1\AppData\Local\Temp/ccVOaCht.s:2261   .text:0000098c TWI_MasterInterruptHandler
C:\Users\ALEXAN~1\AppData\Local\Temp/ccVOaCht.s:2329   .text:000009d2 TWI_MasterTransactionFinished
C:\Users\ALEXAN~1\AppData\Local\Temp/ccVOaCht.s:2347   .text:000009da getAccelData
                            *COM*:00000004 _acc
C:\Users\ALEXAN~1\AppData\Local\Temp/ccVOaCht.s:2364   .text:000009ec newAccelData
                            *COM*:00000011 twiMaster
C:\Users\ALEXAN~1\AppData\Local\Temp/ccVOaCht.s:2395   .text:00000a10 updateAccel
C:\Users\ALEXAN~1\AppData\Local\Temp/ccVOaCht.s:2449   .text:00000a68 initAccel
C:\Users\ALEXAN~1\AppData\Local\Temp/ccVOaCht.s:2654   .text:00000ba2 __vector_46
C:\Users\ALEXAN~1\AppData\Local\Temp/ccVOaCht.s:2703   .text:00000bee init_dac
C:\Users\ALEXAN~1\AppData\Local\Temp/ccVOaCht.s:2763   .text:00000c36 set_dac0
C:\Users\ALEXAN~1\AppData\Local\Temp/ccVOaCht.s:2791   .text:00000c52 set_dac1
C:\Users\ALEXAN~1\AppData\Local\Temp/ccVOaCht.s:2819   .text:00000c6e disable_dac0
C:\Users\ALEXAN~1\AppData\Local\Temp/ccVOaCht.s:2837   .text:00000c7a disable_dac1
C:\Users\ALEXAN~1\AppData\Local\Temp/ccVOaCht.s:2855   .text:00000c86 init_buzzer
C:\Users\ALEXAN~1\AppData\Local\Temp/ccVOaCht.s:2885   .text:00000ca4 set_buzzer
C:\Users\ALEXAN~1\AppData\Local\Temp/ccVOaCht.s:2922   .text:00000cbc turn_off_buzzer
C:\Users\ALEXAN~1\AppData\Local\Temp/ccVOaCht.s:2946   .text:00000cd2 set_pwm
C:\Users\ALEXAN~1\AppData\Local\Temp/ccVOaCht.s:9132   .bss:00000000 pwm_frequency
C:\Users\ALEXAN~1\AppData\Local\Temp/ccVOaCht.s:2973   .text:00000cee turn_off_pwm0
C:\Users\ALEXAN~1\AppData\Local\Temp/ccVOaCht.s:2991   .text:00000cfa turn_off_pwm1
C:\Users\ALEXAN~1\AppData\Local\Temp/ccVOaCht.s:3009   .text:00000d06 set_pwm0
C:\Users\ALEXAN~1\AppData\Local\Temp/ccVOaCht.s:3042   .text:00000d2a set_pwm1
C:\Users\ALEXAN~1\AppData\Local\Temp/ccVOaCht.s:3075   .text:00000d4e set_output
C:\Users\ALEXAN~1\AppData\Local\Temp/ccVOaCht.s:3258   .text:00000e1c read_input
C:\Users\ALEXAN~1\AppData\Local\Temp/ccVOaCht.s:3503   .text:00000f74 init_ir_read
C:\Users\ALEXAN~1\AppData\Local\Temp/ccVOaCht.s:9150   .bss:00000004 ir_read_flag
C:\Users\ALEXAN~1\AppData\Local\Temp/ccVOaCht.s:9138   .bss:00000002 signal_count
C:\Users\ALEXAN~1\AppData\Local\Temp/ccVOaCht.s:9144   .bss:00000003 ir_read_time_out
C:\Users\ALEXAN~1\AppData\Local\Temp/ccVOaCht.s:3569   .text:00000fd0 ir_fail
C:\Users\ALEXAN~1\AppData\Local\Temp/ccVOaCht.s:3619   .text:00001000 disable_ir_read
C:\Users\ALEXAN~1\AppData\Local\Temp/ccVOaCht.s:3645   .text:00001014 dump_data
                            *COM*:000000bf captured_signal
C:\Users\ALEXAN~1\AppData\Local\Temp/ccVOaCht.s:3714   .text:0000105e __vector_47
C:\Users\ALEXAN~1\AppData\Local\Temp/ccVOaCht.s:3782   .text:000010ce __vector_49
C:\Users\ALEXAN~1\AppData\Local\Temp/ccVOaCht.s:3897   .text:0000119e read_data_from_serial
C:\Users\ALEXAN~1\AppData\Local\Temp/ccVOaCht.s:4003   .text:0000121a EEPROM_ReadByte
C:\Users\ALEXAN~1\AppData\Local\Temp/ccVOaCht.s:4082   .text:00001274 print_data_from_eeprom
C:\Users\ALEXAN~1\AppData\Local\Temp/ccVOaCht.s:4240   .text:0000133c read_data_from_eeprom
C:\Users\ALEXAN~1\AppData\Local\Temp/ccVOaCht.s:4407   .text:00001422 EEPROM_WaitForNVM
C:\Users\ALEXAN~1\AppData\Local\Temp/ccVOaCht.s:4424   .text:0000142c EEPROM_FlushBuffer
C:\Users\ALEXAN~1\AppData\Local\Temp/ccVOaCht.s:4473   .text:00001462 EEPROM_WriteByte
C:\Users\ALEXAN~1\AppData\Local\Temp/ccVOaCht.s:4561   .text:000014cc write_data_to_eeprom
C:\Users\ALEXAN~1\AppData\Local\Temp/ccVOaCht.s:4709   .text:000015a6 EEPROM_LoadByte
C:\Users\ALEXAN~1\AppData\Local\Temp/ccVOaCht.s:4746   .text:000015c4 EEPROM_LoadPage
C:\Users\ALEXAN~1\AppData\Local\Temp/ccVOaCht.s:4793   .text:000015ec EEPROM_AtomicWritePage
C:\Users\ALEXAN~1\AppData\Local\Temp/ccVOaCht.s:4862   .text:00001636 EEPROM_ErasePage
C:\Users\ALEXAN~1\AppData\Local\Temp/ccVOaCht.s:4931   .text:00001680 EEPROM_SplitWritePage
C:\Users\ALEXAN~1\AppData\Local\Temp/ccVOaCht.s:5000   .text:000016ca EEPROM_EraseAll
C:\Users\ALEXAN~1\AppData\Local\Temp/ccVOaCht.s:5046   .text:000016f8 main
                            *COM*:0000000e bt
                            *COM*:0000000e aux

UNDEFINED SYMBOLS
__divmodhi4
__do_clear_bss
