   1               		.file	"mainFirmware.c"
   2               	__SREG__ = 0x3f
   3               	__SP_H__ = 0x3e
   4               	__SP_L__ = 0x3d
   5               	__CCP__  = 0x34
   6               	__tmp_reg__ = 0
   7               	__zero_reg__ = 1
  15               	.Ltext0:
  16               	.global	init_clock
  18               	init_clock:
  19               	.LFB7:
  20               	.LM1:
  21               	/* prologue: function */
  22               	/* frame size = 0 */
  23               	.LM2:
  24 0000 8091 5000 		lds r24,80
  25 0004 8260      		ori r24,lo8(2)
  26 0006 8093 5000 		sts 80,r24
  27               	.L2:
  28               	.LM3:
  29 000a 8091 5100 		lds r24,81
  30 000e 81FF      		sbrs r24,1
  31 0010 00C0      		rjmp .L2
  32               	.LM4:
  33 0012 88ED      		ldi r24,lo8(-40)
  34 0014 84BF      		out 52-0,r24
  35               	.LM5:
  36 0016 8091 4000 		lds r24,64
  37 001a 8160      		ori r24,lo8(1)
  38 001c 8093 4000 		sts 64,r24
  39               	/* epilogue start */
  40               	.LM6:
  41 0020 0895      		ret
  42               	.LFE7:
  44               	.global	init_led
  46               	init_led:
  47               	.LFB8:
  48               	.LM7:
  49               	/* prologue: function */
  50               	/* frame size = 0 */
  51               	.LM8:
  52 0022 A0E0      		ldi r26,lo8(2304)
  53 0024 B9E0      		ldi r27,hi8(2304)
  54 0026 84E0      		ldi r24,lo8(4)
  55 0028 8C93      		st X,r24
  56               	.LM9:
  57 002a 83E7      		ldi r24,lo8(115)
  58 002c 1196      		adiw r26,1
  59 002e 8C93      		st X,r24
  60 0030 1197      		sbiw r26,1
  61               	.LM10:
  62 0032 8FEF      		ldi r24,lo8(-1)
  63 0034 9FEF      		ldi r25,hi8(-1)
  64 0036 D696      		adiw r26,54
  65 0038 8D93      		st X+,r24
  66 003a 9C93      		st X,r25
  67 003c D797      		sbiw r26,54+1
  68               	.LM11:
  69 003e E0E6      		ldi r30,lo8(1632)
  70 0040 F6E0      		ldi r31,hi8(1632)
  71 0042 8181      		ldd r24,Z+1
  72 0044 8760      		ori r24,lo8(7)
  73 0046 8183      		std Z+1,r24
  74               	.LBB606:
  75               	.LBB607:
  76               	.LM12:
  77 0048 8FEF      		ldi r24,lo8(-1)
  78 004a D996      		adiw r26,57
  79 004c 8C93      		st X,r24
  80 004e D997      		sbiw r26,57
  81               	.LM13:
  82 0050 DB96      		adiw r26,59
  83 0052 8C93      		st X,r24
  84               	.LM14:
  85 0054 8093 3D09 		sts 2365,r24
  86               	/* epilogue start */
  87               	.LBE607:
  88               	.LBE606:
  89               	.LM15:
  90 0058 0895      		ret
  91               	.LFE8:
  93               	.global	set_led
  95               	set_led:
  96               	.LFB9:
  97               	.LM16:
  98               	.LVL0:
  99               	/* prologue: function */
 100               	/* frame size = 0 */
 101               	.LM17:
 102 005a 8095      		com r24
 103               	.LVL1:
 104 005c E0E0      		ldi r30,lo8(2304)
 105 005e F9E0      		ldi r31,hi8(2304)
 106 0060 81AF      		std Z+57,r24
 107               	.LM18:
 108 0062 4095      		com r20
 109               	.LVL2:
 110 0064 43AF      		std Z+59,r20
 111               	.LM19:
 112 0066 6095      		com r22
 113               	.LVL3:
 114 0068 6093 3D09 		sts 2365,r22
 115               	/* epilogue start */
 116               	.LM20:
 117 006c 0895      		ret
 118               	.LFE9:
 120               	.global	init_bt_uart
 122               	init_bt_uart:
 123               	.LFB10:
 124               	.LM21:
 125               	/* prologue: function */
 126               	/* frame size = 0 */
 127               	.LM22:
 128 006e E0E6      		ldi r30,lo8(1632)
 129 0070 F6E0      		ldi r31,hi8(1632)
 130 0072 80E8      		ldi r24,lo8(-128)
 131 0074 8183      		std Z+1,r24
 132               	.LM23:
 133 0076 80E4      		ldi r24,lo8(64)
 134 0078 8283      		std Z+2,r24
 135               	.LM24:
 136 007a E0EB      		ldi r30,lo8(2480)
 137 007c F9E0      		ldi r31,hi8(2480)
 138 007e 83E0      		ldi r24,lo8(3)
 139 0080 8583      		std Z+5,r24
 140               	.LBB608:
 141               	.LBB609:
 142               	.LM25:
 143 0082 E093 0000 		sts BT_data,r30
 144 0086 F093 0000 		sts (BT_data)+1,r31
 145               	.LM26:
 146 008a 1092 0000 		sts BT_data+259,__zero_reg__
 147               	.LM27:
 148 008e 1092 0000 		sts BT_data+258,__zero_reg__
 149               	.LBE609:
 150               	.LBE608:
 151               	.LM28:
 152 0092 8381      		ldd r24,Z+3
 153 0094 8F7C      		andi r24,lo8(-49)
 154 0096 8062      		ori r24,lo8(32)
 155 0098 8383      		std Z+3,r24
 156               	.LM29:
 157 009a A0EA      		ldi r26,lo8(160)
 158 009c B0E0      		ldi r27,hi8(160)
 159 009e 1296      		adiw r26,2
 160 00a0 8C91      		ld r24,X
 161 00a2 1297      		sbiw r26,2
 162 00a4 8260      		ori r24,lo8(2)
 163 00a6 1296      		adiw r26,2
 164 00a8 8C93      		st X,r24
 165               	.LM30:
 166 00aa 83E8      		ldi r24,lo8(-125)
 167 00ac 8683      		std Z+6,r24
 168 00ae 80ED      		ldi r24,lo8(-48)
 169 00b0 8783      		std Z+7,r24
 170               	.LM31:
 171 00b2 8481      		ldd r24,Z+4
 172 00b4 8061      		ori r24,lo8(16)
 173 00b6 8483      		std Z+4,r24
 174               	.LM32:
 175 00b8 8481      		ldd r24,Z+4
 176 00ba 8860      		ori r24,lo8(8)
 177 00bc 8483      		std Z+4,r24
 178               	/* epilogue start */
 179               	.LM33:
 180 00be 0895      		ret
 181               	.LFE10:
 183               	.global	init_aux_uart
 185               	init_aux_uart:
 186               	.LFB11:
 187               	.LM34:
 188               	.LVL4:
 189               	/* prologue: function */
 190               	/* frame size = 0 */
 191               	.LM35:
 192 00c0 E0E4      		ldi r30,lo8(1600)
 193 00c2 F6E0      		ldi r31,hi8(1600)
 194 00c4 28E0      		ldi r18,lo8(8)
 195 00c6 2183      		std Z+1,r18
 196               	.LM36:
 197 00c8 24E0      		ldi r18,lo8(4)
 198 00ca 2283      		std Z+2,r18
 199               	.LM37:
 200 00cc E0EA      		ldi r30,lo8(2208)
 201 00ce F8E0      		ldi r31,hi8(2208)
 202 00d0 23E0      		ldi r18,lo8(3)
 203 00d2 2583      		std Z+5,r18
 204               	.LBB610:
 205               	.LBB611:
 206               	.LM38:
 207 00d4 E093 0000 		sts AUX_data,r30
 208 00d8 F093 0000 		sts (AUX_data)+1,r31
 209               	.LM39:
 210 00dc 1092 0000 		sts AUX_data+259,__zero_reg__
 211               	.LM40:
 212 00e0 1092 0000 		sts AUX_data+258,__zero_reg__
 213               	.LBE611:
 214               	.LBE610:
 215               	.LM41:
 216 00e4 2381      		ldd r18,Z+3
 217 00e6 2F7C      		andi r18,lo8(-49)
 218 00e8 2062      		ori r18,lo8(32)
 219 00ea 2383      		std Z+3,r18
 220               	.LM42:
 221 00ec A0EA      		ldi r26,lo8(160)
 222 00ee B0E0      		ldi r27,hi8(160)
 223 00f0 1296      		adiw r26,2
 224 00f2 2C91      		ld r18,X
 225 00f4 1297      		sbiw r26,2
 226 00f6 2260      		ori r18,lo8(2)
 227 00f8 1296      		adiw r26,2
 228 00fa 2C93      		st X,r18
 229               	.LM43:
 230 00fc 8683      		std Z+6,r24
 231 00fe 6295      		swap r22
 232               	.LVL5:
 233 0100 607F      		andi r22,lo8(-16)
 234 0102 892F      		mov r24,r25
 235 0104 990F      		lsl r25
 236 0106 990B      		sbc r25,r25
 237               	.LVL6:
 238 0108 682B      		or r22,r24
 239 010a 6783      		std Z+7,r22
 240               	.LM44:
 241 010c 8481      		ldd r24,Z+4
 242 010e 8061      		ori r24,lo8(16)
 243 0110 8483      		std Z+4,r24
 244               	.LM45:
 245 0112 8481      		ldd r24,Z+4
 246 0114 8860      		ori r24,lo8(8)
 247 0116 8483      		std Z+4,r24
 248               	/* epilogue start */
 249               	.LM46:
 250 0118 0895      		ret
 251               	.LFE11:
 253               	.global	set_aux_baud_rate
 255               	set_aux_baud_rate:
 256               	.LFB12:
 257               	.LM47:
 258               	.LVL7:
 259               	/* prologue: function */
 260               	/* frame size = 0 */
 261               	.LM48:
 262 011a E0EA      		ldi r30,lo8(2208)
 263 011c F8E0      		ldi r31,hi8(2208)
 264 011e 8683      		std Z+6,r24
 265 0120 6295      		swap r22
 266               	.LVL8:
 267 0122 607F      		andi r22,lo8(-16)
 268 0124 892F      		mov r24,r25
 269 0126 990F      		lsl r25
 270 0128 990B      		sbc r25,r25
 271               	.LVL9:
 272 012a 682B      		or r22,r24
 273 012c 6783      		std Z+7,r22
 274               	/* epilogue start */
 275               	.LM49:
 276 012e 0895      		ret
 277               	.LFE12:
 279               	.global	uart_putchar
 281               	uart_putchar:
 282               	.LFB13:
 283               	.LM50:
 284               	.LVL10:
 285               	/* prologue: function */
 286               	/* frame size = 0 */
 287 0130 FC01      		movw r30,r24
 288               	.LVL11:
 289               	.L16:
 290               	.LM51:
 291 0132 8181      		ldd r24,Z+1
 292 0134 85FF      		sbrs r24,5
 293 0136 00C0      		rjmp .L16
 294               	.LM52:
 295 0138 6083      		st Z,r22
 296               	/* epilogue start */
 297               	.LM53:
 298 013a 0895      		ret
 299               	.LFE13:
 301               	.global	uart_getchar_nb
 303               	uart_getchar_nb:
 304               	.LFB14:
 305               	.LM54:
 306               	.LVL12:
 307               	/* prologue: function */
 308               	/* frame size = 0 */
 309 013c FC01      		movw r30,r24
 310               	.LM55:
 311 013e 28EE      		ldi r18,lo8(1000)
 312 0140 33E0      		ldi r19,hi8(1000)
 313               	.LVL13:
 314               	.L21:
 315               	.LM56:
 316 0142 2150      		subi r18,lo8(-(-1))
 317 0144 3040      		sbci r19,hi8(-(-1))
 318               	.LM57:
 319 0146 8181      		ldd r24,Z+1
 320 0148 87FD      		sbrc r24,7
 321 014a 00C0      		rjmp .L20
 322 014c 2115      		cp r18,__zero_reg__
 323 014e 3105      		cpc r19,__zero_reg__
 324 0150 01F4      		brne .L21
 325 0152 00C0      		rjmp .L22
 326               	.L20:
 327               	.LM58:
 328 0154 232B      		or r18,r19
 329 0156 01F0      		breq .L22
 330               	.LM59:
 331 0158 8081      		ld r24,Z
 332 015a 0895      		ret
 333               	.L22:
 334 015c 80E0      		ldi r24,lo8(0)
 335               	.LM60:
 336 015e 0895      		ret
 337               	.LFE14:
 339               	.global	uart_getchar
 341               	uart_getchar:
 342               	.LFB15:
 343               	.LM61:
 344               	/* prologue: function */
 345               	/* frame size = 0 */
 346               	.LVL14:
 347               	.L27:
 348               	.LBB612:
 349               	.LBB613:
 350               	.LM62:
 351 0160 9091 0000 		lds r25,BT_data+258
 352               	.LVL15:
 353               	.LM63:
 354 0164 8091 0000 		lds r24,BT_data+259
 355               	.LVL16:
 356               	.LBE613:
 357               	.LBE612:
 358               	.LM64:
 359 0168 9817      		cp r25,r24
 360 016a 01F0      		breq .L27
 361               	.LBB614:
 362               	.LBB615:
 363               	.LM65:
 364 016c E091 0000 		lds r30,BT_data+259
 365 0170 F0E0      		ldi r31,lo8(0)
 366 0172 E050      		subi r30,lo8(-(BT_data))
 367 0174 F040      		sbci r31,hi8(-(BT_data))
 368 0176 8281      		ldd r24,Z+2
 369               	.LVL17:
 370               	.LM66:
 371 0178 9091 0000 		lds r25,BT_data+259
 372               	.LVL18:
 373 017c 9F5F      		subi r25,lo8(-(1))
 374 017e 9093 0000 		sts BT_data+259,r25
 375               	.LVL19:
 376               	/* epilogue start */
 377               	.LBE615:
 378               	.LBE614:
 379               	.LM67:
 380 0182 0895      		ret
 381               	.LFE15:
 383               	.global	uart_getchar_timeout
 385               	uart_getchar_timeout:
 386               	.LFB16:
 387               	.LM68:
 388               	.LVL20:
 389               	/* prologue: function */
 390               	/* frame size = 0 */
 391               	.LM69:
 392 0184 20E0      		ldi r18,lo8(0)
 393 0186 30E0      		ldi r19,hi8(0)
 394               	.LVL21:
 395               	.LBB616:
 396               	.LBB617:
 397               	.LBB618:
 398               	.LBB619:
 399               	.LM70:
 400 0188 40E4      		ldi r20,lo8(8000)
 401 018a 5FE1      		ldi r21,hi8(8000)
 402 018c 00C0      		rjmp .L31
 403               	.LVL22:
 404               	.L33:
 405               	.LBE619:
 406               	.LBE618:
 407               	.LBE617:
 408               	.LBE616:
 409               	.LM71:
 410 018e 2F5F      		subi r18,lo8(-(1))
 411 0190 3F4F      		sbci r19,hi8(-(1))
 412               	.LBB623:
 413               	.LBB622:
 414               	.LBB621:
 415               	.LBB620:
 416               	.LM72:
 417 0192 CA01      		movw r24,r20
 418               	.LVL23:
 419               	/* #APP */
 420               	 ;  105 "c:/winavr-20100110/lib/gcc/../../avr/include/util/delay_basic.h" 1
 421 0194 0197      		1: sbiw r24,1
 422 0196 01F4      		brne 1b
 423               	 ;  0 "" 2
 424               	.LVL24:
 425               	/* #NOAPP */
 426               	.L31:
 427               	.LBE620:
 428               	.LBE621:
 429               	.LBE622:
 430               	.LBE623:
 431               	.LBB624:
 432               	.LBB625:
 433               	.LM73:
 434 0198 9091 0000 		lds r25,BT_data+258
 435               	.LM74:
 436 019c 8091 0000 		lds r24,BT_data+259
 437               	.LVL25:
 438               	.LBE625:
 439               	.LBE624:
 440               	.LM75:
 441 01a0 9817      		cp r25,r24
 442 01a2 01F4      		brne .L32
 443 01a4 81E0      		ldi r24,hi8(500)
 444 01a6 243F      		cpi r18,lo8(500)
 445 01a8 3807      		cpc r19,r24
 446               	.LVL26:
 447 01aa 01F4      		brne .L33
 448 01ac 00C0      		rjmp .L34
 449               	.LVL27:
 450               	.L32:
 451               	.LM76:
 452 01ae 245F      		subi r18,lo8(500)
 453 01b0 3140      		sbci r19,hi8(500)
 454               	.LVL28:
 455 01b2 04F4      		brge .L34
 456               	.LBB626:
 457               	.LBB627:
 458               	.LM77:
 459 01b4 E091 0000 		lds r30,BT_data+259
 460 01b8 F0E0      		ldi r31,lo8(0)
 461 01ba E050      		subi r30,lo8(-(BT_data))
 462 01bc F040      		sbci r31,hi8(-(BT_data))
 463 01be 9281      		ldd r25,Z+2
 464               	.LVL29:
 465               	.LM78:
 466 01c0 8091 0000 		lds r24,BT_data+259
 467 01c4 8F5F      		subi r24,lo8(-(1))
 468 01c6 8093 0000 		sts BT_data+259,r24
 469               	.LBE627:
 470               	.LBE626:
 471               	.LM79:
 472 01ca 292F      		mov r18,r25
 473               	.LVL30:
 474 01cc 30E0      		ldi r19,lo8(0)
 475 01ce 00C0      		rjmp .L35
 476               	.LVL31:
 477               	.L34:
 478 01d0 20E0      		ldi r18,lo8(256)
 479 01d2 31E0      		ldi r19,hi8(256)
 480               	.LVL32:
 481               	.L35:
 482               	.LM80:
 483 01d4 C901      		movw r24,r18
 484               	/* epilogue start */
 485 01d6 0895      		ret
 486               	.LFE16:
 488               	.global	aux_uart_getchar
 490               	aux_uart_getchar:
 491               	.LFB17:
 492               	.LM81:
 493               	.LVL33:
 494               	/* prologue: function */
 495               	/* frame size = 0 */
 496               	.LBB628:
 497               	.LBB629:
 498               	.LM82:
 499 01d8 8091 0000 		lds r24,AUX_data+259
 500               	.LVL34:
 501 01dc E0E0      		ldi r30,lo8(AUX_data)
 502 01de F0E0      		ldi r31,hi8(AUX_data)
 503 01e0 E80F      		add r30,r24
 504 01e2 F11D      		adc r31,__zero_reg__
 505 01e4 8281      		ldd r24,Z+2
 506               	.LVL35:
 507               	.LM83:
 508 01e6 9091 0000 		lds r25,AUX_data+259
 509 01ea 9F5F      		subi r25,lo8(-(1))
 510 01ec 9093 0000 		sts AUX_data+259,r25
 511               	.LVL36:
 512               	/* epilogue start */
 513               	.LBE629:
 514               	.LBE628:
 515               	.LM84:
 516 01f0 0895      		ret
 517               	.LFE17:
 519               	.global	USART_InterruptDriver_Initialize
 521               	USART_InterruptDriver_Initialize:
 522               	.LFB18:
 523               	.LM85:
 524               	.LVL37:
 525               	/* prologue: function */
 526               	/* frame size = 0 */
 527 01f2 FC01      		movw r30,r24
 528               	.LM86:
 529 01f4 6083      		st Z,r22
 530 01f6 7183      		std Z+1,r23
 531               	.LM87:
 532 01f8 ED5F      		subi r30,lo8(-(259))
 533 01fa FE4F      		sbci r31,hi8(-(259))
 534               	.LVL38:
 535 01fc 1082      		st Z,__zero_reg__
 536               	.LM88:
 537 01fe 1292      		st -Z,__zero_reg__
 538               	.LVL39:
 539               	/* epilogue start */
 540               	.LM89:
 541 0200 0895      		ret
 542               	.LFE18:
 544               	.global	USART_RXBufferData_Available
 546               	USART_RXBufferData_Available:
 547               	.LFB19:
 548               	.LM90:
 549               	.LVL40:
 550               	/* prologue: function */
 551               	/* frame size = 0 */
 552 0202 FC01      		movw r30,r24
 553               	.LM91:
 554 0204 EE5F      		subi r30,lo8(-(258))
 555 0206 FE4F      		sbci r31,hi8(-(258))
 556               	.LVL41:
 557 0208 9191      		ld r25,Z+
 558               	.LVL42:
 559               	.LM92:
 560 020a 8081      		ld r24,Z
 561               	.LVL43:
 562 020c 20E0      		ldi r18,lo8(0)
 563 020e 9813      		cpse r25,r24
 564 0210 21E0      		ldi r18,lo8(1)
 565               	.L42:
 566               	.LM93:
 567 0212 822F      		mov r24,r18
 568               	.LVL44:
 569               	/* epilogue start */
 570 0214 0895      		ret
 571               	.LFE19:
 573               	.global	USART_RXBuffer_GetByte
 575               	USART_RXBuffer_GetByte:
 576               	.LFB20:
 577               	.LM94:
 578               	.LVL45:
 579               	/* prologue: function */
 580               	/* frame size = 0 */
 581 0216 FC01      		movw r30,r24
 582               	.LM95:
 583 0218 DC01      		movw r26,r24
 584 021a AD5F      		subi r26,lo8(-(259))
 585 021c BE4F      		sbci r27,hi8(-(259))
 586 021e 8C91      		ld r24,X
 587               	.LVL46:
 588 0220 E80F      		add r30,r24
 589 0222 F11D      		adc r31,__zero_reg__
 590 0224 8281      		ldd r24,Z+2
 591               	.LVL47:
 592               	.LM96:
 593 0226 9C91      		ld r25,X
 594 0228 9F5F      		subi r25,lo8(-(1))
 595 022a 9C93      		st X,r25
 596               	.LVL48:
 597               	/* epilogue start */
 598               	.LM97:
 599 022c 0895      		ret
 600               	.LFE20:
 602               	.global	USART_RXComplete
 604               	USART_RXComplete:
 605               	.LFB21:
 606               	.LM98:
 607               	.LVL49:
 608 022e CF93      		push r28
 609 0230 DF93      		push r29
 610               	/* prologue: function */
 611               	/* frame size = 0 */
 612 0232 DC01      		movw r26,r24
 613               	.LM99:
 614 0234 EC01      		movw r28,r24
 615 0236 CE5F      		subi r28,lo8(-(258))
 616 0238 DE4F      		sbci r29,hi8(-(258))
 617 023a 9881      		ld r25,Y
 618               	.LVL50:
 619 023c 9F5F      		subi r25,lo8(-(1))
 620               	.LM100:
 621 023e AD5F      		subi r26,lo8(-(259))
 622 0240 BE4F      		sbci r27,hi8(-(259))
 623               	.LVL51:
 624 0242 8C91      		ld r24,X
 625               	.LVL52:
 626 0244 A350      		subi r26,lo8(-(-259))
 627 0246 B140      		sbci r27,hi8(-(-259))
 628               	.LM101:
 629 0248 ED91      		ld r30,X+
 630 024a FC91      		ld r31,X
 631 024c 1197      		sbiw r26,1
 632 024e E081      		ld r30,Z
 633               	.LVL53:
 634               	.LM102:
 635 0250 9817      		cp r25,r24
 636 0252 01F4      		brne .L47
 637 0254 80E0      		ldi r24,lo8(0)
 638               	.LVL54:
 639 0256 00C0      		rjmp .L48
 640               	.LVL55:
 641               	.L47:
 642               	.LM103:
 643 0258 8881      		ld r24,Y
 644               	.LVL56:
 645 025a A80F      		add r26,r24
 646 025c B11D      		adc r27,__zero_reg__
 647 025e 1296      		adiw r26,2
 648 0260 EC93      		st X,r30
 649               	.LM104:
 650 0262 9883      		st Y,r25
 651 0264 81E0      		ldi r24,lo8(1)
 652               	.LVL57:
 653               	.L48:
 654               	.LVL58:
 655               	/* epilogue start */
 656               	.LM105:
 657 0266 DF91      		pop r29
 658 0268 CF91      		pop r28
 659 026a 0895      		ret
 660               	.LFE21:
 662               	.global	__vector_91
 664               	__vector_91:
 665               	.LFB22:
 666               	.LM106:
 667 026c 1F92      		push __zero_reg__
 668 026e 0F92      		push r0
 669 0270 0FB6      		in r0,__SREG__
 670 0272 0F92      		push r0
 671 0274 1124      		clr __zero_reg__
 672 0276 2F93      		push r18
 673 0278 8F93      		push r24
 674 027a 9F93      		push r25
 675 027c EF93      		push r30
 676 027e FF93      		push r31
 677               	/* prologue: Signal */
 678               	/* frame size = 0 */
 679               	.LBB630:
 680               	.LBB631:
 681               	.LM107:
 682 0280 9091 0000 		lds r25,BT_data+258
 683               	.LVL59:
 684 0284 9F5F      		subi r25,lo8(-(1))
 685               	.LM108:
 686 0286 8091 0000 		lds r24,BT_data+259
 687               	.LVL60:
 688               	.LM109:
 689 028a E091 0000 		lds r30,BT_data
 690 028e F091 0000 		lds r31,(BT_data)+1
 691 0292 2081      		ld r18,Z
 692               	.LVL61:
 693               	.LM110:
 694 0294 9817      		cp r25,r24
 695 0296 01F0      		breq .L52
 696               	.LM111:
 697 0298 E091 0000 		lds r30,BT_data+258
 698 029c F0E0      		ldi r31,lo8(0)
 699 029e E050      		subi r30,lo8(-(BT_data))
 700 02a0 F040      		sbci r31,hi8(-(BT_data))
 701 02a2 2283      		std Z+2,r18
 702               	.LM112:
 703 02a4 9093 0000 		sts BT_data+258,r25
 704               	.L52:
 705               	/* epilogue start */
 706               	.LBE631:
 707               	.LBE630:
 708               	.LM113:
 709 02a8 FF91      		pop r31
 710 02aa EF91      		pop r30
 711 02ac 9F91      		pop r25
 712               	.LVL62:
 713 02ae 8F91      		pop r24
 714               	.LVL63:
 715 02b0 2F91      		pop r18
 716               	.LVL64:
 717 02b2 0F90      		pop r0
 718 02b4 0FBE      		out __SREG__,r0
 719 02b6 0F90      		pop r0
 720 02b8 1F90      		pop __zero_reg__
 721 02ba 1895      		reti
 722               	.LFE22:
 724               	.global	__vector_25
 726               	__vector_25:
 727               	.LFB23:
 728               	.LM114:
 729 02bc 1F92      		push __zero_reg__
 730 02be 0F92      		push r0
 731 02c0 0FB6      		in r0,__SREG__
 732 02c2 0F92      		push r0
 733 02c4 1124      		clr __zero_reg__
 734 02c6 2F93      		push r18
 735 02c8 8F93      		push r24
 736 02ca 9F93      		push r25
 737 02cc EF93      		push r30
 738 02ce FF93      		push r31
 739               	/* prologue: Signal */
 740               	/* frame size = 0 */
 741               	.LBB632:
 742               	.LBB633:
 743               	.LM115:
 744 02d0 9091 0000 		lds r25,AUX_data+258
 745               	.LVL65:
 746 02d4 9F5F      		subi r25,lo8(-(1))
 747               	.LM116:
 748 02d6 8091 0000 		lds r24,AUX_data+259
 749               	.LVL66:
 750               	.LM117:
 751 02da E091 0000 		lds r30,AUX_data
 752 02de F091 0000 		lds r31,(AUX_data)+1
 753 02e2 2081      		ld r18,Z
 754               	.LVL67:
 755               	.LM118:
 756 02e4 9817      		cp r25,r24
 757 02e6 01F0      		breq .L55
 758               	.LM119:
 759 02e8 E091 0000 		lds r30,AUX_data+258
 760 02ec F0E0      		ldi r31,lo8(0)
 761 02ee E050      		subi r30,lo8(-(AUX_data))
 762 02f0 F040      		sbci r31,hi8(-(AUX_data))
 763 02f2 2283      		std Z+2,r18
 764               	.LM120:
 765 02f4 9093 0000 		sts AUX_data+258,r25
 766               	.L55:
 767               	/* epilogue start */
 768               	.LBE633:
 769               	.LBE632:
 770               	.LM121:
 771 02f8 FF91      		pop r31
 772 02fa EF91      		pop r30
 773 02fc 9F91      		pop r25
 774               	.LVL68:
 775 02fe 8F91      		pop r24
 776               	.LVL69:
 777 0300 2F91      		pop r18
 778               	.LVL70:
 779 0302 0F90      		pop r0
 780 0304 0FBE      		out __SREG__,r0
 781 0306 0F90      		pop r0
 782 0308 1F90      		pop __zero_reg__
 783 030a 1895      		reti
 784               	.LFE23:
 786               	.global	init_adc
 788               	init_adc:
 789               	.LFB24:
 790               	.LM122:
 791 030c CF93      		push r28
 792 030e DF93      		push r29
 793               	/* prologue: function */
 794               	/* frame size = 0 */
 795               	.LM123:
 796 0310 E0E0      		ldi r30,lo8(512)
 797 0312 F2E0      		ldi r31,hi8(512)
 798 0314 8181      		ldd r24,Z+1
 799 0316 897E      		andi r24,lo8(-23)
 800 0318 8460      		ori r24,lo8(4)
 801 031a 8183      		std Z+1,r24
 802               	.LM124:
 803 031c 8481      		ldd r24,Z+4
 804 031e 8760      		ori r24,lo8(7)
 805 0320 8483      		std Z+4,r24
 806               	.LM125:
 807 0322 8281      		ldd r24,Z+2
 808 0324 8063      		ori r24,lo8(48)
 809 0326 8283      		std Z+2,r24
 810               	.LM126:
 811 0328 28E2      		ldi r18,lo8(552)
 812 032a 32E0      		ldi r19,hi8(552)
 813 032c D901      		movw r26,r18
 814 032e 8C91      		ld r24,X
 815 0330 807E      		andi r24,lo8(-32)
 816 0332 8C93      		st X,r24
 817               	.LM127:
 818 0334 A0E3      		ldi r26,lo8(560)
 819 0336 B2E0      		ldi r27,hi8(560)
 820 0338 8C91      		ld r24,X
 821 033a 807E      		andi r24,lo8(-32)
 822 033c 8160      		ori r24,lo8(1)
 823 033e 8C93      		st X,r24
 824               	.LM128:
 825 0340 E901      		movw r28,r18
 826 0342 1982      		std Y+1,__zero_reg__
 827               	.LM129:
 828 0344 88E3      		ldi r24,lo8(56)
 829 0346 1196      		adiw r26,1
 830 0348 8C93      		st X,r24
 831               	.LM130:
 832 034a 8281      		ldd r24,Z+2
 833 034c 8160      		ori r24,lo8(1)
 834 034e 8283      		std Z+2,r24
 835               	.LM131:
 836 0350 8081      		ld r24,Z
 837 0352 8160      		ori r24,lo8(1)
 838 0354 8083      		st Z,r24
 839               	.LBB634:
 840               	.LBB635:
 841               	.LBB636:
 842               	.LBB637:
 843               	.LM132:
 844 0356 80E4      		ldi r24,lo8(8000)
 845 0358 9FE1      		ldi r25,hi8(8000)
 846               	.LVL71:
 847               	/* #APP */
 848               	 ;  105 "c:/winavr-20100110/lib/gcc/../../avr/include/util/delay_basic.h" 1
 849 035a 0197      		1: sbiw r24,1
 850 035c 01F4      		brne 1b
 851               	 ;  0 "" 2
 852               	/* epilogue start */
 853               	/* #NOAPP */
 854               	.LBE637:
 855               	.LBE636:
 856               	.LBE635:
 857               	.LBE634:
 858               	.LM133:
 859 035e DF91      		pop r29
 860 0360 CF91      		pop r28
 861 0362 0895      		ret
 862               	.LFE24:
 864               	.global	read_analog
 866               	read_analog:
 867               	.LFB25:
 868               	.LM134:
 869               	.LVL72:
 870               	/* prologue: function */
 871               	/* frame size = 0 */
 872               	.LM135:
 873 0364 E0E3      		ldi r30,lo8(560)
 874 0366 F2E0      		ldi r31,hi8(560)
 875 0368 8183      		std Z+1,r24
 876               	.LM136:
 877 036a 8091 3002 		lds r24,560
 878               	.LVL73:
 879 036e 8068      		ori r24,lo8(-128)
 880 0370 E0E0      		ldi r30,lo8(512)
 881 0372 F2E0      		ldi r31,hi8(512)
 882 0374 80AB      		std Z+48,r24
 883               	.L60:
 884               	.LM137:
 885 0376 8091 3302 		lds r24,563
 886 037a 80FD      		sbrc r24,0
 887 037c 00C0      		rjmp .L59
 888 037e 8091 0602 		lds r24,518
 889 0382 82FF      		sbrs r24,2
 890 0384 00C0      		rjmp .L60
 891               	.L59:
 892               	.LM138:
 893 0386 81E0      		ldi r24,lo8(1)
 894 0388 E0E0      		ldi r30,lo8(512)
 895 038a F2E0      		ldi r31,hi8(512)
 896 038c 83AB      		std Z+51,r24
 897               	.LM139:
 898 038e 8091 3402 		lds r24,564
 899               	.LM140:
 900 0392 90E0      		ldi r25,lo8(0)
 901               	/* epilogue start */
 902 0394 0895      		ret
 903               	.LFE25:
 905               	.global	read_internal_temperature
 907               	read_internal_temperature:
 908               	.LFB26:
 909               	.LM141:
 910               	/* prologue: function */
 911               	/* frame size = 0 */
 912               	.LM142:
 913 0396 8091 2802 		lds r24,552
 914 039a 8068      		ori r24,lo8(-128)
 915 039c E0E0      		ldi r30,lo8(512)
 916 039e F2E0      		ldi r31,hi8(512)
 917 03a0 80A7      		std Z+40,r24
 918               	.L64:
 919               	.LM143:
 920 03a2 8091 2B02 		lds r24,555
 921 03a6 80FF      		sbrs r24,0
 922 03a8 00C0      		rjmp .L64
 923               	.LM144:
 924 03aa 81E0      		ldi r24,lo8(1)
 925 03ac E0E0      		ldi r30,lo8(512)
 926 03ae F2E0      		ldi r31,hi8(512)
 927 03b0 83A7      		std Z+43,r24
 928               	.LM145:
 929 03b2 8091 2C02 		lds r24,556
 930               	.LM146:
 931 03b6 90E0      		ldi r25,lo8(0)
 932               	/* epilogue start */
 933 03b8 0895      		ret
 934               	.LFE26:
 936               	.global	init_ir
 938               	init_ir:
 939               	.LFB27:
 940               	.LM147:
 941               	/* prologue: function */
 942               	/* frame size = 0 */
 943               	.LM148:
 944 03ba E0E0      		ldi r30,lo8(2048)
 945 03bc F8E0      		ldi r31,hi8(2048)
 946 03be 21E0      		ldi r18,lo8(1)
 947 03c0 2083      		st Z,r18
 948               	.LM149:
 949 03c2 83E1      		ldi r24,lo8(19)
 950 03c4 8183      		std Z+1,r24
 951               	.LM150:
 952 03c6 89E4      		ldi r24,lo8(841)
 953 03c8 93E0      		ldi r25,hi8(841)
 954 03ca 86AB      		std Z+54,r24
 955 03cc 97AB      		std Z+55,r25
 956               	.LM151:
 957 03ce E0E4      		ldi r30,lo8(1600)
 958 03d0 F6E0      		ldi r31,hi8(1600)
 959 03d2 2183      		std Z+1,r18
 960               	.LM152:
 961 03d4 E0E4      		ldi r30,lo8(2112)
 962 03d6 F8E0      		ldi r31,hi8(2112)
 963 03d8 85E0      		ldi r24,lo8(5)
 964 03da 8083      		st Z,r24
 965               	.LM153:
 966 03dc 1682      		std Z+6,__zero_reg__
 967               	/* epilogue start */
 968               	.LM154:
 969 03de 0895      		ret
 970               	.LFE27:
 972               	.global	set_ir50
 974               	set_ir50:
 975               	.LFB28:
 976               	.LM155:
 977               	/* prologue: function */
 978               	/* frame size = 0 */
 979               	.LM156:
 980               	/* #APP */
 981               	 ;  27 "ir.c" 1
 982 03e0 F894      		cli
 983               	 ;  0 "" 2
 984               	.LM157:
 985               	/* #NOAPP */
 986 03e2 E0E0      		ldi r30,lo8(2048)
 987 03e4 F8E0      		ldi r31,hi8(2048)
 988 03e6 86A1      		ldd r24,Z+38
 989 03e8 97A1      		ldd r25,Z+39
 990 03ea 9695      		lsr r25
 991 03ec 8795      		ror r24
 992 03ee 80A7      		std Z+40,r24
 993 03f0 91A7      		std Z+41,r25
 994               	.LM158:
 995               	/* #APP */
 996               	 ;  29 "ir.c" 1
 997 03f2 7894      		sei
 998               	 ;  0 "" 2
 999               	/* epilogue start */
 1000               	.LM159:
 1001               	/* #NOAPP */
 1002 03f4 0895      		ret
 1003               	.LFE28:
 1005               	.global	set_ir100
 1007               	set_ir100:
 1008               	.LFB29:
 1009               	.LM160:
 1010               	/* prologue: function */
 1011               	/* frame size = 0 */
 1012               	.LM161:
 1013               	/* #APP */
 1014               	 ;  35 "ir.c" 1
 1015 03f6 F894      		cli
 1016               	 ;  0 "" 2
 1017               	.LM162:
 1018               	/* #NOAPP */
 1019 03f8 E0E0      		ldi r30,lo8(2048)
 1020 03fa F8E0      		ldi r31,hi8(2048)
 1021 03fc 86A1      		ldd r24,Z+38
 1022 03fe 97A1      		ldd r25,Z+39
 1023 0400 80A7      		std Z+40,r24
 1024 0402 91A7      		std Z+41,r25
 1025               	.LM163:
 1026               	/* #APP */
 1027               	 ;  37 "ir.c" 1
 1028 0404 7894      		sei
 1029               	 ;  0 "" 2
 1030               	/* epilogue start */
 1031               	.LM164:
 1032               	/* #NOAPP */
 1033 0406 0895      		ret
 1034               	.LFE29:
 1036               	.global	set_ir0
 1038               	set_ir0:
 1039               	.LFB30:
 1040               	.LM165:
 1041               	/* prologue: function */
 1042               	/* frame size = 0 */
 1043               	.LM166:
 1044               	/* #APP */
 1045               	 ;  42 "ir.c" 1
 1046 0408 F894      		cli
 1047               	 ;  0 "" 2
 1048               	.LM167:
 1049               	/* #NOAPP */
 1050 040a E0E0      		ldi r30,lo8(2048)
 1051 040c F8E0      		ldi r31,hi8(2048)
 1052 040e 10A6      		std Z+40,__zero_reg__
 1053 0410 11A6      		std Z+41,__zero_reg__
 1054               	.LM168:
 1055               	/* #APP */
 1056               	 ;  44 "ir.c" 1
 1057 0412 7894      		sei
 1058               	 ;  0 "" 2
 1059               	/* epilogue start */
 1060               	.LM169:
 1061               	/* #NOAPP */
 1062 0414 0895      		ret
 1063               	.LFE30:
 1065               	.global	set_ir_carrier
 1067               	set_ir_carrier:
 1068               	.LFB31:
 1069               	.LM170:
 1070               	.LVL74:
 1071               	/* prologue: function */
 1072               	/* frame size = 0 */
 1073               	.LM171:
 1074               	/* #APP */
 1075               	 ;  50 "ir.c" 1
 1076 0416 F894      		cli
 1077               	 ;  0 "" 2
 1078               	.LM172:
 1079               	/* #NOAPP */
 1080 0418 E0E0      		ldi r30,lo8(2048)
 1081 041a F8E0      		ldi r31,hi8(2048)
 1082 041c 86AB      		std Z+54,r24
 1083 041e 97AB      		std Z+55,r25
 1084               	.LVL75:
 1085               	.LM173:
 1086               	/* #APP */
 1087               	 ;  52 "ir.c" 1
 1088 0420 7894      		sei
 1089               	 ;  0 "" 2
 1090               	/* epilogue start */
 1091               	.LM174:
 1092               	/* #NOAPP */
 1093 0422 0895      		ret
 1094               	.LFE31:
 1096               	.global	start_ir_timer
 1098               	start_ir_timer:
 1099               	.LFB32:
 1100               	.LM175:
 1101               	/* prologue: function */
 1102               	/* frame size = 0 */
 1103               	.LM176:
 1104 0424 1092 0000 		sts startUpCounter,__zero_reg__
 1105 0428 1092 0000 		sts (startUpCounter)+1,__zero_reg__
 1106               	.LM177:
 1107 042c 1092 0000 		sts onOffTracker,__zero_reg__
 1108 0430 1092 0000 		sts (onOffTracker)+1,__zero_reg__
 1109               	.LM178:
 1110 0434 1092 0000 		sts bitCounter,__zero_reg__
 1111               	.LM179:
 1112               	/* #APP */
 1113               	 ;  62 "ir.c" 1
 1114 0438 F894      		cli
 1115               	 ;  0 "" 2
 1116               	.LM180:
 1117               	/* #NOAPP */
 1118 043a E0E4      		ldi r30,lo8(2112)
 1119 043c F8E0      		ldi r31,hi8(2112)
 1120 043e 10A2      		std Z+32,__zero_reg__
 1121 0440 11A2      		std Z+33,__zero_reg__
 1122               	.LM181:
 1123               	/* #APP */
 1124               	 ;  64 "ir.c" 1
 1125 0442 7894      		sei
 1126               	 ;  0 "" 2
 1127               	.LM182:
 1128               	/* #NOAPP */
 1129 0444 83E0      		ldi r24,lo8(3)
 1130 0446 E0E4      		ldi r30,lo8(2112)
 1131 0448 F8E0      		ldi r31,hi8(2112)
 1132 044a 8683      		std Z+6,r24
 1133               	.LM183:
 1134 044c E0EA      		ldi r30,lo8(160)
 1135 044e F0E0      		ldi r31,hi8(160)
 1136 0450 8281      		ldd r24,Z+2
 1137 0452 8460      		ori r24,lo8(4)
 1138 0454 8283      		std Z+2,r24
 1139               	/* epilogue start */
 1140               	.LM184:
 1141 0456 0895      		ret
 1142               	.LFE32:
 1144               	.global	stop_ir_timer
 1146               	stop_ir_timer:
 1147               	.LFB33:
 1148               	.LM185:
 1149               	/* prologue: function */
 1150               	/* frame size = 0 */
 1151               	.LM186:
 1152 0458 E0E4      		ldi r30,lo8(2112)
 1153 045a F8E0      		ldi r31,hi8(2112)
 1154 045c 1682      		std Z+6,__zero_reg__
 1155               	.LBB638:
 1156               	.LBB639:
 1157               	.LM187:
 1158               	/* #APP */
 1159               	 ;  42 "ir.c" 1
 1160 045e F894      		cli
 1161               	 ;  0 "" 2
 1162               	.LM188:
 1163               	/* #NOAPP */
 1164 0460 E0E0      		ldi r30,lo8(2048)
 1165 0462 F8E0      		ldi r31,hi8(2048)
 1166 0464 10A6      		std Z+40,__zero_reg__
 1167 0466 11A6      		std Z+41,__zero_reg__
 1168               	.LM189:
 1169               	/* #APP */
 1170               	 ;  44 "ir.c" 1
 1171 0468 7894      		sei
 1172               	 ;  0 "" 2
 1173               	/* epilogue start */
 1174               	/* #NOAPP */
 1175               	.LBE639:
 1176               	.LBE638:
 1177               	.LM190:
 1178 046a 0895      		ret
 1179               	.LFE33:
 1181               	.global	__vector_20
 1183               	__vector_20:
 1184               	.LFB34:
 1185               	.LM191:
 1186 046c 1F92      		push __zero_reg__
 1187 046e 0F92      		push r0
 1188 0470 0FB6      		in r0,__SREG__
 1189 0472 0F92      		push r0
 1190 0474 1124      		clr __zero_reg__
 1191 0476 2F93      		push r18
 1192 0478 3F93      		push r19
 1193 047a 4F93      		push r20
 1194 047c 5F93      		push r21
 1195 047e 6F93      		push r22
 1196 0480 7F93      		push r23
 1197 0482 8F93      		push r24
 1198 0484 9F93      		push r25
 1199 0486 AF93      		push r26
 1200 0488 BF93      		push r27
 1201 048a EF93      		push r30
 1202 048c FF93      		push r31
 1203               	/* prologue: Signal */
 1204               	/* frame size = 0 */
 1205               	.LM192:
 1206 048e 8091 0000 		lds r24,onOffTracker
 1207 0492 9091 0000 		lds r25,(onOffTracker)+1
 1208 0496 0197      		sbiw r24,1
 1209 0498 01F4      		brne .L82
 1210               	.LBB640:
 1211               	.LBB641:
 1212               	.LM193:
 1213               	/* #APP */
 1214               	 ;  42 "ir.c" 1
 1215 049a F894      		cli
 1216               	 ;  0 "" 2
 1217               	.LM194:
 1218               	/* #NOAPP */
 1219 049c E0E0      		ldi r30,lo8(2048)
 1220 049e F8E0      		ldi r31,hi8(2048)
 1221 04a0 10A6      		std Z+40,__zero_reg__
 1222 04a2 11A6      		std Z+41,__zero_reg__
 1223               	.LM195:
 1224               	/* #APP */
 1225               	 ;  44 "ir.c" 1
 1226 04a4 7894      		sei
 1227               	 ;  0 "" 2
 1228               	/* #NOAPP */
 1229               	.LBE641:
 1230               	.LBE640:
 1231               	.LM196:
 1232 04a6 1092 0000 		sts onOffTracker,__zero_reg__
 1233 04aa 1092 0000 		sts (onOffTracker)+1,__zero_reg__
 1234 04ae 00C0      		rjmp .L83
 1235               	.L82:
 1236               	.LM197:
 1237 04b0 0E94 0000 		call set_ir50
 1238               	.LM198:
 1239 04b4 81E0      		ldi r24,lo8(1)
 1240 04b6 90E0      		ldi r25,hi8(1)
 1241 04b8 8093 0000 		sts onOffTracker,r24
 1242 04bc 9093 0000 		sts (onOffTracker)+1,r25
 1243               	.L83:
 1244               	.LM199:
 1245 04c0 4091 0000 		lds r20,bitCounter
 1246 04c4 8091 0000 		lds r24,robotData+36
 1247 04c8 4817      		cp r20,r24
 1248 04ca 00F0      		brlo .L84
 1249 04cc 8091 0000 		lds r24,onOffTracker
 1250 04d0 9091 0000 		lds r25,(onOffTracker)+1
 1251 04d4 892B      		or r24,r25
 1252 04d6 01F0      		breq .L85
 1253 04d8 8091 0000 		lds r24,robotData+35
 1254 04dc 8330      		cpi r24,lo8(3)
 1255 04de 01F4      		brne .L84
 1256               	.L85:
 1257               	.LM200:
 1258 04e0 8091 0000 		lds r24,robotData+35
 1259 04e4 8330      		cpi r24,lo8(3)
 1260 04e6 01F4      		brne .L86
 1261               	.LBB642:
 1262               	.LBB643:
 1263               	.LM201:
 1264               	/* #APP */
 1265               	 ;  42 "ir.c" 1
 1266 04e8 F894      		cli
 1267               	 ;  0 "" 2
 1268               	.LM202:
 1269               	/* #NOAPP */
 1270 04ea E0E0      		ldi r30,lo8(2048)
 1271 04ec F8E0      		ldi r31,hi8(2048)
 1272 04ee 10A6      		std Z+40,__zero_reg__
 1273 04f0 11A6      		std Z+41,__zero_reg__
 1274               	.LM203:
 1275               	/* #APP */
 1276               	 ;  44 "ir.c" 1
 1277 04f2 7894      		sei
 1278               	 ;  0 "" 2
 1279               	/* #NOAPP */
 1280               	.L86:
 1281               	.LBE643:
 1282               	.LBE642:
 1283               	.LM204:
 1284 04f4 8091 0000 		lds r24,robotData+238
 1285 04f8 9091 0000 		lds r25,(robotData+238)+1
 1286 04fc 892B      		or r24,r25
 1287 04fe 01F4      		brne .L87
 1288               	.LBB644:
 1289               	.LBB645:
 1290               	.LM205:
 1291 0500 E0E4      		ldi r30,lo8(2112)
 1292 0502 F8E0      		ldi r31,hi8(2112)
 1293 0504 1682      		std Z+6,__zero_reg__
 1294               	.LBB646:
 1295               	.LBB647:
 1296               	.LM206:
 1297               	/* #APP */
 1298               	 ;  42 "ir.c" 1
 1299 0506 F894      		cli
 1300               	 ;  0 "" 2
 1301               	.LM207:
 1302               	/* #NOAPP */
 1303 0508 E0E0      		ldi r30,lo8(2048)
 1304 050a F8E0      		ldi r31,hi8(2048)
 1305 050c 10A6      		std Z+40,__zero_reg__
 1306 050e 11A6      		std Z+41,__zero_reg__
 1307               	.LM208:
 1308               	/* #APP */
 1309               	 ;  44 "ir.c" 1
 1310 0510 7894      		sei
 1311               	 ;  0 "" 2
 1312               	/* #NOAPP */
 1313 0512 00C0      		rjmp .L105
 1314               	.L87:
 1315               	.LBE647:
 1316               	.LBE646:
 1317               	.LBE645:
 1318               	.LBE644:
 1319               	.LM209:
 1320 0514 1092 0000 		sts startUpCounter,__zero_reg__
 1321 0518 1092 0000 		sts (startUpCounter)+1,__zero_reg__
 1322               	.LM210:
 1323 051c 1092 0000 		sts onOffTracker,__zero_reg__
 1324 0520 1092 0000 		sts (onOffTracker)+1,__zero_reg__
 1325               	.LM211:
 1326 0524 1092 0000 		sts bitCounter,__zero_reg__
 1327               	.LM212:
 1328 0528 8091 0000 		lds r24,robotData+236
 1329 052c 9091 0000 		lds r25,(robotData+236)+1
 1330 0530 00C0      		rjmp .L109
 1331               	.L84:
 1332               	.LM213:
 1333 0532 2091 0000 		lds r18,startUpCounter
 1334 0536 3091 0000 		lds r19,(startUpCounter)+1
 1335 053a 8091 0000 		lds r24,robotData+2
 1336 053e 90E0      		ldi r25,lo8(0)
 1337 0540 2817      		cp r18,r24
 1338 0542 3907      		cpc r19,r25
 1339 0544 04F4      		brge .L89
 1340               	.LM214:
 1341 0546 F901      		movw r30,r18
 1342 0548 EE0F      		lsl r30
 1343 054a FF1F      		rol r31
 1344 054c E050      		subi r30,lo8(-(robotData))
 1345 054e F040      		sbci r31,hi8(-(robotData))
 1346 0550 8381      		ldd r24,Z+3
 1347 0552 9481      		ldd r25,Z+4
 1348 0554 E0E4      		ldi r30,lo8(2112)
 1349 0556 F8E0      		ldi r31,hi8(2112)
 1350 0558 86A3      		std Z+38,r24
 1351 055a 97A3      		std Z+39,r25
 1352               	.LM215:
 1353 055c 2F5F      		subi r18,lo8(-(1))
 1354 055e 3F4F      		sbci r19,hi8(-(1))
 1355 0560 2093 0000 		sts startUpCounter,r18
 1356 0564 3093 0000 		sts (startUpCounter)+1,r19
 1357 0568 00C0      		rjmp .L105
 1358               	.L89:
 1359               	.LM216:
 1360 056a 8091 0000 		lds r24,robotData+35
 1361 056e 8823      		tst r24
 1362 0570 01F0      		breq .L114
 1363               	.L90:
 1364               	.LM217:
 1365 0572 8130      		cpi r24,lo8(1)
 1366 0574 01F4      		brne .L93
 1367               	.LM218:
 1368 0576 8091 0000 		lds r24,onOffTracker
 1369 057a 9091 0000 		lds r25,(onOffTracker)+1
 1370 057e 0197      		sbiw r24,1
 1371 0580 01F4      		brne .L94
 1372               	.L114:
 1373               	.LM219:
 1374 0582 E42F      		mov r30,r20
 1375 0584 E695      		lsr r30
 1376 0586 E695      		lsr r30
 1377 0588 E695      		lsr r30
 1378 058a F0E0      		ldi r31,lo8(0)
 1379 058c E050      		subi r30,lo8(-(robotData))
 1380 058e F040      		sbci r31,hi8(-(robotData))
 1381 0590 24A5      		ldd r18,Z+44
 1382 0592 30E0      		ldi r19,lo8(0)
 1383 0594 842F      		mov r24,r20
 1384 0596 90E0      		ldi r25,lo8(0)
 1385 0598 8095      		com r24
 1386 059a 9095      		com r25
 1387 059c 8770      		andi r24,lo8(7)
 1388 059e 9070      		andi r25,hi8(7)
 1389 05a0 00C0      		rjmp 2f
 1390 05a2 3595      	1:	asr r19
 1391 05a4 2795      		ror r18
 1392 05a6 8A95      	2:	dec r24
 1393 05a8 02F4      		brpl 1b
 1394 05aa 20FF      		sbrs r18,0
 1395 05ac 00C0      		rjmp .L112
 1396 05ae 00C0      		rjmp .L102
 1397               	.L94:
 1398               	.LM220:
 1399 05b0 8091 0000 		lds r24,robotData+42
 1400 05b4 9091 0000 		lds r25,(robotData+42)+1
 1401               	.L109:
 1402 05b8 E0E4      		ldi r30,lo8(2112)
 1403 05ba F8E0      		ldi r31,hi8(2112)
 1404 05bc 86A3      		std Z+38,r24
 1405 05be 97A3      		std Z+39,r25
 1406 05c0 00C0      		rjmp .L105
 1407               	.L93:
 1408               	.LM221:
 1409 05c2 8230      		cpi r24,lo8(2)
 1410 05c4 01F4      		brne .L97
 1411               	.LM222:
 1412 05c6 8091 0000 		lds r24,onOffTracker
 1413 05ca 9091 0000 		lds r25,(onOffTracker)+1
 1414 05ce 892B      		or r24,r25
 1415 05d0 01F4      		brne .L98
 1416               	.LM223:
 1417 05d2 E42F      		mov r30,r20
 1418 05d4 E695      		lsr r30
 1419 05d6 E695      		lsr r30
 1420 05d8 E695      		lsr r30
 1421 05da F0E0      		ldi r31,lo8(0)
 1422 05dc E050      		subi r30,lo8(-(robotData))
 1423 05de F040      		sbci r31,hi8(-(robotData))
 1424 05e0 24A5      		ldd r18,Z+44
 1425 05e2 30E0      		ldi r19,lo8(0)
 1426 05e4 842F      		mov r24,r20
 1427 05e6 90E0      		ldi r25,lo8(0)
 1428 05e8 8095      		com r24
 1429 05ea 9095      		com r25
 1430 05ec 8770      		andi r24,lo8(7)
 1431 05ee 9070      		andi r25,hi8(7)
 1432 05f0 00C0      		rjmp 2f
 1433 05f2 3595      	1:	asr r19
 1434 05f4 2795      		ror r18
 1435 05f6 8A95      	2:	dec r24
 1436 05f8 02F4      		brpl 1b
 1437 05fa 20FF      		sbrs r18,0
 1438 05fc 00C0      		rjmp .L104
 1439 05fe 00C0      		rjmp .L111
 1440               	.L98:
 1441               	.LM224:
 1442 0600 8091 0000 		lds r24,robotData+42
 1443 0604 9091 0000 		lds r25,(robotData+42)+1
 1444 0608 00C0      		rjmp .L108
 1445               	.L97:
 1446               	.LM225:
 1447 060a 8330      		cpi r24,lo8(3)
 1448 060c 01F0      		breq .+2
 1449 060e 00C0      		rjmp .L100
 1450               	.LM226:
 1451 0610 8091 0000 		lds r24,onOffTracker
 1452 0614 9091 0000 		lds r25,(onOffTracker)+1
 1453 0618 E42F      		mov r30,r20
 1454 061a E695      		lsr r30
 1455 061c E695      		lsr r30
 1456 061e E695      		lsr r30
 1457 0620 242F      		mov r18,r20
 1458 0622 30E0      		ldi r19,lo8(0)
 1459 0624 892B      		or r24,r25
 1460 0626 01F4      		brne .L101
 1461               	.LM227:
 1462 0628 F0E0      		ldi r31,lo8(0)
 1463 062a E050      		subi r30,lo8(-(robotData))
 1464 062c F040      		sbci r31,hi8(-(robotData))
 1465 062e 84A5      		ldd r24,Z+44
 1466 0630 90E0      		ldi r25,lo8(0)
 1467 0632 2095      		com r18
 1468 0634 3095      		com r19
 1469 0636 2770      		andi r18,lo8(7)
 1470 0638 3070      		andi r19,hi8(7)
 1471 063a 00C0      		rjmp 2f
 1472 063c 9595      	1:	asr r25
 1473 063e 8795      		ror r24
 1474 0640 2A95      	2:	dec r18
 1475 0642 02F4      		brpl 1b
 1476 0644 80FF      		sbrs r24,0
 1477 0646 00C0      		rjmp .L102
 1478               	.L112:
 1479               	.LM228:
 1480 0648 8091 0000 		lds r24,robotData+40
 1481 064c 9091 0000 		lds r25,(robotData+40)+1
 1482 0650 00C0      		rjmp .L108
 1483               	.L102:
 1484               	.LM229:
 1485 0652 8091 0000 		lds r24,robotData+38
 1486 0656 9091 0000 		lds r25,(robotData+38)+1
 1487               	.L108:
 1488 065a E0E4      		ldi r30,lo8(2112)
 1489 065c F8E0      		ldi r31,hi8(2112)
 1490 065e 86A3      		std Z+38,r24
 1491 0660 97A3      		std Z+39,r25
 1492               	.LM230:
 1493 0662 4F5F      		subi r20,lo8(-(1))
 1494 0664 00C0      		rjmp .L110
 1495               	.L101:
 1496               	.LM231:
 1497 0666 F0E0      		ldi r31,lo8(0)
 1498 0668 E050      		subi r30,lo8(-(robotData))
 1499 066a F040      		sbci r31,hi8(-(robotData))
 1500 066c 84A5      		ldd r24,Z+44
 1501 066e 90E0      		ldi r25,lo8(0)
 1502 0670 2095      		com r18
 1503 0672 3095      		com r19
 1504 0674 2770      		andi r18,lo8(7)
 1505 0676 3070      		andi r19,hi8(7)
 1506 0678 00C0      		rjmp 2f
 1507 067a 9595      	1:	asr r25
 1508 067c 8795      		ror r24
 1509 067e 2A95      	2:	dec r18
 1510 0680 02F4      		brpl 1b
 1511 0682 80FF      		sbrs r24,0
 1512 0684 00C0      		rjmp .L104
 1513               	.L111:
 1514               	.LM232:
 1515 0686 8091 0000 		lds r24,robotData+38
 1516 068a 9091 0000 		lds r25,(robotData+38)+1
 1517 068e 00C0      		rjmp .L109
 1518               	.L104:
 1519               	.LM233:
 1520 0690 8091 0000 		lds r24,robotData+40
 1521 0694 9091 0000 		lds r25,(robotData+40)+1
 1522 0698 00C0      		rjmp .L109
 1523               	.L100:
 1524               	.LM234:
 1525 069a 8430      		cpi r24,lo8(4)
 1526 069c 01F4      		brne .L105
 1527               	.LM235:
 1528 069e E42F      		mov r30,r20
 1529 06a0 F0E0      		ldi r31,lo8(0)
 1530 06a2 E050      		subi r30,lo8(-(robotData))
 1531 06a4 F040      		sbci r31,hi8(-(robotData))
 1532 06a6 25A5      		ldd r18,Z+45
 1533 06a8 94A5      		ldd r25,Z+44
 1534 06aa 80E0      		ldi r24,lo8(0)
 1535 06ac 820F      		add r24,r18
 1536 06ae 911D      		adc r25,__zero_reg__
 1537 06b0 E0E4      		ldi r30,lo8(2112)
 1538 06b2 F8E0      		ldi r31,hi8(2112)
 1539 06b4 86A3      		std Z+38,r24
 1540 06b6 97A3      		std Z+39,r25
 1541               	.LM236:
 1542 06b8 4E5F      		subi r20,lo8(-(2))
 1543               	.L110:
 1544 06ba 4093 0000 		sts bitCounter,r20
 1545               	.L105:
 1546               	/* epilogue start */
 1547               	.LM237:
 1548 06be FF91      		pop r31
 1549 06c0 EF91      		pop r30
 1550 06c2 BF91      		pop r27
 1551 06c4 AF91      		pop r26
 1552 06c6 9F91      		pop r25
 1553 06c8 8F91      		pop r24
 1554 06ca 7F91      		pop r23
 1555 06cc 6F91      		pop r22
 1556 06ce 5F91      		pop r21
 1557 06d0 4F91      		pop r20
 1558 06d2 3F91      		pop r19
 1559 06d4 2F91      		pop r18
 1560 06d6 0F90      		pop r0
 1561 06d8 0FBE      		out __SREG__,r0
 1562 06da 0F90      		pop r0
 1563 06dc 1F90      		pop __zero_reg__
 1564 06de 1895      		reti
 1565               	.LFE34:
 1567               	.global	BT_default_reset
 1569               	BT_default_reset:
 1570               	.LFB36:
 1571               	.LM238:
 1572               	/* prologue: function */
 1573               	/* frame size = 0 */
 1574               	.LM239:
 1575 06e0 80E2      		ldi r24,lo8(32)
 1576 06e2 E0E6      		ldi r30,lo8(1632)
 1577 06e4 F6E0      		ldi r31,hi8(1632)
 1578 06e6 8583      		std Z+5,r24
 1579 06e8 84E6      		ldi r24,lo8(100)
 1580 06ea 90E0      		ldi r25,hi8(100)
 1581               	.LVL76:
 1582               	.LBB648:
 1583               	.LBB649:
 1584               	.LBB650:
 1585               	.LBB651:
 1586               	.LM240:
 1587 06ec 20E2      		ldi r18,lo8(800)
 1588 06ee 33E0      		ldi r19,hi8(800)
 1589               	.L116:
 1590 06f0 F901      		movw r30,r18
 1591               	.LVL77:
 1592               	/* #APP */
 1593               	 ;  105 "c:/winavr-20100110/lib/gcc/../../avr/include/util/delay_basic.h" 1
 1594 06f2 3197      		1: sbiw r30,1
 1595 06f4 01F4      		brne 1b
 1596               	 ;  0 "" 2
 1597               	/* #NOAPP */
 1598               	.LBE651:
 1599               	.LBE650:
 1600               	.LM241:
 1601 06f6 0197      		sbiw r24,1
 1602               	.LM242:
 1603 06f8 01F4      		brne .L116
 1604 06fa 20E0      		ldi r18,lo8(0)
 1605 06fc 30E0      		ldi r19,hi8(0)
 1606               	.LVL78:
 1607               	.LBE649:
 1608               	.LBE648:
 1609               	.LBB652:
 1610               	.LM243:
 1611 06fe A0E6      		ldi r26,lo8(1632)
 1612 0700 B6E0      		ldi r27,hi8(1632)
 1613 0702 60E2      		ldi r22,lo8(32)
 1614               	.LBB653:
 1615               	.LBB654:
 1616               	.LBB655:
 1617               	.LBB656:
 1618               	.LM244:
 1619 0704 40E2      		ldi r20,lo8(800)
 1620 0706 53E0      		ldi r21,hi8(800)
 1621               	.LVL79:
 1622               	.L118:
 1623               	.LBE656:
 1624               	.LBE655:
 1625               	.LBE654:
 1626               	.LBE653:
 1627               	.LM245:
 1628 0708 1796      		adiw r26,7
 1629 070a 6C93      		st X,r22
 1630 070c 1797      		sbiw r26,7
 1631 070e 84E6      		ldi r24,lo8(100)
 1632 0710 90E0      		ldi r25,hi8(100)
 1633               	.LVL80:
 1634               	.L117:
 1635               	.LBB660:
 1636               	.LBB659:
 1637               	.LBB658:
 1638               	.LBB657:
 1639               	.LM246:
 1640 0712 FA01      		movw r30,r20
 1641               	.LVL81:
 1642               	/* #APP */
 1643               	 ;  105 "c:/winavr-20100110/lib/gcc/../../avr/include/util/delay_basic.h" 1
 1644 0714 3197      		1: sbiw r30,1
 1645 0716 01F4      		brne 1b
 1646               	 ;  0 "" 2
 1647               	/* #NOAPP */
 1648               	.LBE657:
 1649               	.LBE658:
 1650               	.LM247:
 1651 0718 0197      		sbiw r24,1
 1652               	.LM248:
 1653 071a 01F4      		brne .L117
 1654               	.LBE659:
 1655               	.LBE660:
 1656               	.LM249:
 1657 071c 2F5F      		subi r18,lo8(-(1))
 1658 071e 3F4F      		sbci r19,hi8(-(1))
 1659 0720 2630      		cpi r18,6
 1660 0722 3105      		cpc r19,__zero_reg__
 1661 0724 01F4      		brne .L118
 1662               	.LBE652:
 1663               	.LM250:
 1664 0726 80E2      		ldi r24,lo8(32)
 1665               	.LVL82:
 1666 0728 E0E6      		ldi r30,lo8(1632)
 1667 072a F6E0      		ldi r31,hi8(1632)
 1668               	.LVL83:
 1669 072c 8683      		std Z+6,r24
 1670               	/* epilogue start */
 1671               	.LM251:
 1672 072e 0895      		ret
 1673               	.LFE36:
 1675               	.global	BT_reset
 1677               	BT_reset:
 1678               	.LFB37:
 1679               	.LM252:
 1680               	/* prologue: function */
 1681               	/* frame size = 0 */
 1682               	.LM253:
 1683 0730 82E0      		ldi r24,lo8(2)
 1684 0732 E0E4      		ldi r30,lo8(1600)
 1685 0734 F6E0      		ldi r31,hi8(1600)
 1686 0736 8683      		std Z+6,r24
 1687 0738 84E6      		ldi r24,lo8(100)
 1688 073a 90E0      		ldi r25,hi8(100)
 1689               	.LVL84:
 1690               	.LBB661:
 1691               	.LBB662:
 1692               	.LBB663:
 1693               	.LBB664:
 1694               	.LM254:
 1695 073c 20E2      		ldi r18,lo8(800)
 1696 073e 33E0      		ldi r19,hi8(800)
 1697               	.L124:
 1698 0740 F901      		movw r30,r18
 1699               	.LVL85:
 1700               	/* #APP */
 1701               	 ;  105 "c:/winavr-20100110/lib/gcc/../../avr/include/util/delay_basic.h" 1
 1702 0742 3197      		1: sbiw r30,1
 1703 0744 01F4      		brne 1b
 1704               	 ;  0 "" 2
 1705               	/* #NOAPP */
 1706               	.LBE664:
 1707               	.LBE663:
 1708               	.LM255:
 1709 0746 0197      		sbiw r24,1
 1710               	.LM256:
 1711 0748 01F4      		brne .L124
 1712               	.LBE662:
 1713               	.LBE661:
 1714               	.LM257:
 1715 074a 82E0      		ldi r24,lo8(2)
 1716               	.LVL86:
 1717 074c E0E4      		ldi r30,lo8(1600)
 1718 074e F6E0      		ldi r31,hi8(1600)
 1719               	.LVL87:
 1720 0750 8583      		std Z+5,r24
 1721               	/* epilogue start */
 1722               	.LM258:
 1723 0752 0895      		ret
 1724               	.LFE37:
 1726               	.global	init_BT
 1728               	init_BT:
 1729               	.LFB35:
 1730               	.LM259:
 1731 0754 FF92      		push r15
 1732 0756 0F93      		push r16
 1733 0758 1F93      		push r17
 1734               	/* prologue: function */
 1735               	/* frame size = 0 */
 1736               	.LM260:
 1737 075a 82E0      		ldi r24,lo8(2)
 1738 075c E0E4      		ldi r30,lo8(1600)
 1739 075e F6E0      		ldi r31,hi8(1600)
 1740 0760 8183      		std Z+1,r24
 1741               	.LM261:
 1742 0762 00E6      		ldi r16,lo8(1632)
 1743 0764 16E0      		ldi r17,hi8(1632)
 1744 0766 60E2      		ldi r22,lo8(32)
 1745 0768 F62E      		mov r15,r22
 1746 076a F801      		movw r30,r16
 1747 076c F182      		std Z+1,r15
 1748               	.LM262:
 1749 076e 0E94 0000 		call BT_reset
 1750               	.LM263:
 1751 0772 F801      		movw r30,r16
 1752 0774 F682      		std Z+6,r15
 1753               	.LM264:
 1754 0776 0E94 0000 		call init_bt_uart
 1755               	/* epilogue start */
 1756               	.LM265:
 1757 077a 1F91      		pop r17
 1758 077c 0F91      		pop r16
 1759 077e FF90      		pop r15
 1760 0780 0895      		ret
 1761               	.LFE35:
 1763               	.global	TWI_MasterInit
 1765               	TWI_MasterInit:
 1766               	.LFB38:
 1767               	.LM266:
 1768               	.LVL88:
 1769               	/* prologue: function */
 1770               	/* frame size = 0 */
 1771 0782 DC01      		movw r26,r24
 1772 0784 FB01      		movw r30,r22
 1773               	.LM267:
 1774 0786 6D93      		st X+,r22
 1775 0788 7C93      		st X,r23
 1776 078a 1197      		sbiw r26,1
 1777               	.LM268:
 1778 078c 4863      		ori r20,lo8(56)
 1779               	.LVL89:
 1780 078e 4183      		std Z+1,r20
 1781               	.LM269:
 1782 0790 ED91      		ld r30,X+
 1783 0792 FC91      		ld r31,X
 1784 0794 1197      		sbiw r26,1
 1785 0796 2583      		std Z+5,r18
 1786               	.LM270:
 1787 0798 ED91      		ld r30,X+
 1788 079a FC91      		ld r31,X
 1789 079c 81E0      		ldi r24,lo8(1)
 1790               	.LVL90:
 1791 079e 8483      		std Z+4,r24
 1792               	/* epilogue start */
 1793               	.LM271:
 1794 07a0 0895      		ret
 1795               	.LFE38:
 1797               	.global	TWI_MasterState
 1799               	TWI_MasterState:
 1800               	.LFB39:
 1801               	.LM272:
 1802               	.LVL91:
 1803               	/* prologue: function */
 1804               	/* frame size = 0 */
 1805 07a2 FC01      		movw r30,r24
 1806               	.LM273:
 1807 07a4 0190      		ld __tmp_reg__,Z+
 1808 07a6 F081      		ld r31,Z
 1809 07a8 E02D      		mov r30,__tmp_reg__
 1810 07aa 8481      		ldd r24,Z+4
 1811               	.LVL92:
 1812               	.LM274:
 1813 07ac 8370      		andi r24,lo8(3)
 1814               	/* epilogue start */
 1815 07ae 0895      		ret
 1816               	.LFE39:
 1818               	.global	TWI_MasterReady
 1820               	TWI_MasterReady:
 1821               	.LFB40:
 1822               	.LM275:
 1823               	.LVL93:
 1824               	/* prologue: function */
 1825               	/* frame size = 0 */
 1826 07b0 FC01      		movw r30,r24
 1827               	.LM276:
 1828 07b2 8785      		ldd r24,Z+15
 1829               	.LVL94:
 1830               	.LM277:
 1831 07b4 80E0      		ldi r24,lo8(0)
 1832               	/* epilogue start */
 1833 07b6 0895      		ret
 1834               	.LFE40:
 1836               	.global	TWI_MasterWriteRead
 1838               	TWI_MasterWriteRead:
 1839               	.LFB43:
 1840               	.LM278:
 1841               	.LVL95:
 1842 07b8 0F93      		push r16
 1843               	.LVL96:
 1844 07ba CF93      		push r28
 1845 07bc DF93      		push r29
 1846               	/* prologue: function */
 1847               	/* frame size = 0 */
 1848 07be DC01      		movw r26,r24
 1849 07c0 722F      		mov r23,r18
 1850               	.LM279:
 1851 07c2 2530      		cpi r18,lo8(5)
 1852 07c4 00F0      		brlo .+2
 1853 07c6 00C0      		rjmp .L136
 1854               	.LVL97:
 1855               	.LM280:
 1856 07c8 0530      		cpi r16,lo8(5)
 1857               	.LVL98:
 1858 07ca 00F0      		brlo .+2
 1859 07cc 00C0      		rjmp .L136
 1860               	.LM281:
 1861 07ce 1F96      		adiw r26,15
 1862 07d0 8C91      		ld r24,X
 1863 07d2 1F97      		sbiw r26,15
 1864 07d4 8823      		tst r24
 1865 07d6 01F4      		brne .L136
 1866               	.LM282:
 1867 07d8 81E0      		ldi r24,lo8(1)
 1868 07da 1F96      		adiw r26,15
 1869 07dc 8C93      		st X,r24
 1870 07de 1F97      		sbiw r26,15
 1871               	.LM283:
 1872 07e0 5096      		adiw r26,16
 1873 07e2 1C92      		st X,__zero_reg__
 1874 07e4 5097      		sbiw r26,16
 1875               	.LM284:
 1876 07e6 660F      		lsl r22
 1877               	.LVL99:
 1878 07e8 1296      		adiw r26,2
 1879 07ea 6C93      		st X,r22
 1880 07ec 1297      		sbiw r26,2
 1881 07ee EA01      		movw r28,r20
 1882               	.LVL100:
 1883 07f0 20E0      		ldi r18,lo8(0)
 1884 07f2 30E0      		ldi r19,hi8(0)
 1885               	.LVL101:
 1886 07f4 00C0      		rjmp .L137
 1887               	.L138:
 1888               	.LBB665:
 1889               	.LM285:
 1890 07f6 8991      		ld r24,Y+
 1891 07f8 FD01      		movw r30,r26
 1892 07fa E20F      		add r30,r18
 1893 07fc F31F      		adc r31,r19
 1894 07fe 8383      		std Z+3,r24
 1895 0800 2F5F      		subi r18,lo8(-(1))
 1896 0802 3F4F      		sbci r19,hi8(-(1))
 1897               	.L137:
 1898               	.LM286:
 1899 0804 2717      		cp r18,r23
 1900 0806 00F0      		brlo .L138
 1901               	.LBE665:
 1902               	.LM287:
 1903 0808 1B96      		adiw r26,11
 1904 080a 7C93      		st X,r23
 1905 080c 1B97      		sbiw r26,11
 1906               	.LM288:
 1907 080e 1C96      		adiw r26,12
 1908 0810 0C93      		st X,r16
 1909 0812 1C97      		sbiw r26,12
 1910               	.LM289:
 1911 0814 1D96      		adiw r26,13
 1912 0816 1C92      		st X,__zero_reg__
 1913 0818 1D97      		sbiw r26,13
 1914               	.LM290:
 1915 081a 1E96      		adiw r26,14
 1916 081c 1C92      		st X,__zero_reg__
 1917 081e 1E97      		sbiw r26,14
 1918               	.LM291:
 1919 0820 1B96      		adiw r26,11
 1920 0822 8C91      		ld r24,X
 1921 0824 1B97      		sbiw r26,11
 1922 0826 8823      		tst r24
 1923 0828 01F0      		breq .L139
 1924               	.LBB666:
 1925               	.LM292:
 1926 082a 1296      		adiw r26,2
 1927 082c 8C91      		ld r24,X
 1928 082e 1297      		sbiw r26,2
 1929 0830 8E7F      		andi r24,lo8(-2)
 1930 0832 00C0      		rjmp .L145
 1931               	.L139:
 1932               	.LBE666:
 1933               	.LM293:
 1934 0834 1C96      		adiw r26,12
 1935 0836 8C91      		ld r24,X
 1936 0838 1C97      		sbiw r26,12
 1937 083a 8823      		tst r24
 1938 083c 01F0      		breq .L144
 1939               	.L141:
 1940               	.LBB667:
 1941               	.LM294:
 1942 083e 1296      		adiw r26,2
 1943 0840 8C91      		ld r24,X
 1944 0842 1297      		sbiw r26,2
 1945 0844 8160      		ori r24,lo8(1)
 1946               	.L145:
 1947               	.LM295:
 1948 0846 ED91      		ld r30,X+
 1949 0848 FC91      		ld r31,X
 1950 084a 8683      		std Z+6,r24
 1951               	.L144:
 1952 084c 81E0      		ldi r24,lo8(1)
 1953 084e 00C0      		rjmp .L140
 1954               	.LVL102:
 1955               	.L136:
 1956 0850 80E0      		ldi r24,lo8(0)
 1957               	.LVL103:
 1958               	.L140:
 1959               	/* epilogue start */
 1960               	.LBE667:
 1961               	.LM296:
 1962 0852 DF91      		pop r29
 1963 0854 CF91      		pop r28
 1964 0856 0F91      		pop r16
 1965               	.LVL104:
 1966 0858 0895      		ret
 1967               	.LFE43:
 1969               	.global	TWI_MasterRead
 1971               	TWI_MasterRead:
 1972               	.LFB42:
 1973               	.LM297:
 1974               	.LVL105:
 1975 085a 0F93      		push r16
 1976               	/* prologue: function */
 1977               	/* frame size = 0 */
 1978 085c 042F      		mov r16,r20
 1979               	.LM298:
 1980 085e 40E0      		ldi r20,lo8(0)
 1981 0860 50E0      		ldi r21,hi8(0)
 1982               	.LVL106:
 1983 0862 20E0      		ldi r18,lo8(0)
 1984 0864 0E94 0000 		call TWI_MasterWriteRead
 1985               	.LVL107:
 1986               	/* epilogue start */
 1987               	.LM299:
 1988 0868 0F91      		pop r16
 1989               	.LVL108:
 1990 086a 0895      		ret
 1991               	.LFE42:
 1993               	.global	TWI_MasterWrite
 1995               	TWI_MasterWrite:
 1996               	.LFB41:
 1997               	.LM300:
 1998               	.LVL109:
 1999 086c 0F93      		push r16
 2000               	/* prologue: function */
 2001               	/* frame size = 0 */
 2002               	.LM301:
 2003 086e 00E0      		ldi r16,lo8(0)
 2004 0870 0E94 0000 		call TWI_MasterWriteRead
 2005               	.LVL110:
 2006               	/* epilogue start */
 2007               	.LM302:
 2008 0874 0F91      		pop r16
 2009 0876 0895      		ret
 2010               	.LFE41:
 2012               	.global	TWI_MasterArbitrationLostBusErrorHandler
 2014               	TWI_MasterArbitrationLostBusErrorHandler:
 2015               	.LFB45:
 2016               	.LM303:
 2017               	.LVL111:
 2018               	/* prologue: function */
 2019               	/* frame size = 0 */
 2020 0878 DC01      		movw r26,r24
 2021               	.LM304:
 2022 087a ED91      		ld r30,X+
 2023 087c FC91      		ld r31,X
 2024 087e 1197      		sbiw r26,1
 2025 0880 9481      		ldd r25,Z+4
 2026               	.LVL112:
 2027               	.LM305:
 2028 0882 92FF      		sbrs r25,2
 2029 0884 00C0      		rjmp .L151
 2030               	.LVL113:
 2031               	.LM306:
 2032 0886 84E0      		ldi r24,lo8(4)
 2033 0888 00C0      		rjmp .L154
 2034               	.LVL114:
 2035               	.L151:
 2036               	.LM307:
 2037 088a 83E0      		ldi r24,lo8(3)
 2038               	.L154:
 2039 088c 5096      		adiw r26,16
 2040 088e 8C93      		st X,r24
 2041 0890 5097      		sbiw r26,16
 2042               	.LM308:
 2043 0892 ED91      		ld r30,X+
 2044 0894 FC91      		ld r31,X
 2045 0896 1197      		sbiw r26,1
 2046 0898 9860      		ori r25,lo8(8)
 2047 089a 9483      		std Z+4,r25
 2048               	.LM309:
 2049 089c 1F96      		adiw r26,15
 2050 089e 1C92      		st X,__zero_reg__
 2051               	/* epilogue start */
 2052               	.LM310:
 2053 08a0 0895      		ret
 2054               	.LFE45:
 2056               	.global	TWI_MasterWriteHandler
 2058               	TWI_MasterWriteHandler:
 2059               	.LFB46:
 2060               	.LM311:
 2061               	.LVL115:
 2062 08a2 CF93      		push r28
 2063 08a4 DF93      		push r29
 2064               	/* prologue: function */
 2065               	/* frame size = 0 */
 2066 08a6 DC01      		movw r26,r24
 2067               	.LM312:
 2068 08a8 1B96      		adiw r26,11
 2069 08aa 9C91      		ld r25,X
 2070 08ac 1B97      		sbiw r26,11
 2071               	.LVL116:
 2072               	.LM313:
 2073 08ae 1C96      		adiw r26,12
 2074 08b0 2C91      		ld r18,X
 2075 08b2 1C97      		sbiw r26,12
 2076               	.LVL117:
 2077               	.LM314:
 2078 08b4 CD91      		ld r28,X+
 2079 08b6 DC91      		ld r29,X
 2080 08b8 1197      		sbiw r26,1
 2081 08ba 8C81      		ldd r24,Y+4
 2082               	.LVL118:
 2083 08bc 84FF      		sbrs r24,4
 2084 08be 00C0      		rjmp .L156
 2085               	.LM315:
 2086 08c0 83E0      		ldi r24,lo8(3)
 2087 08c2 8B83      		std Y+3,r24
 2088               	.LM316:
 2089 08c4 85E0      		ldi r24,lo8(5)
 2090 08c6 00C0      		rjmp .L161
 2091               	.L156:
 2092               	.LM317:
 2093 08c8 1D96      		adiw r26,13
 2094 08ca 8C91      		ld r24,X
 2095 08cc 1D97      		sbiw r26,13
 2096 08ce 8917      		cp r24,r25
 2097 08d0 00F4      		brsh .L158
 2098               	.LBB668:
 2099               	.LM318:
 2100 08d2 1D96      		adiw r26,13
 2101 08d4 8C91      		ld r24,X
 2102 08d6 1D97      		sbiw r26,13
 2103 08d8 FD01      		movw r30,r26
 2104 08da E80F      		add r30,r24
 2105 08dc F11D      		adc r31,__zero_reg__
 2106 08de 8381      		ldd r24,Z+3
 2107               	.LVL119:
 2108               	.LM319:
 2109 08e0 8F83      		std Y+7,r24
 2110               	.LM320:
 2111 08e2 1D96      		adiw r26,13
 2112 08e4 8C91      		ld r24,X
 2113 08e6 1D97      		sbiw r26,13
 2114               	.LVL120:
 2115 08e8 8F5F      		subi r24,lo8(-(1))
 2116 08ea 1D96      		adiw r26,13
 2117 08ec 8C93      		st X,r24
 2118 08ee 00C0      		rjmp .L160
 2119               	.L158:
 2120               	.LBE668:
 2121               	.LM321:
 2122 08f0 1E96      		adiw r26,14
 2123 08f2 8C91      		ld r24,X
 2124 08f4 1E97      		sbiw r26,14
 2125 08f6 8217      		cp r24,r18
 2126 08f8 00F4      		brsh .L159
 2127               	.LBB669:
 2128               	.LM322:
 2129 08fa 1296      		adiw r26,2
 2130 08fc 8C91      		ld r24,X
 2131 08fe 8160      		ori r24,lo8(1)
 2132               	.LM323:
 2133 0900 8E83      		std Y+6,r24
 2134 0902 00C0      		rjmp .L160
 2135               	.L159:
 2136               	.LBE669:
 2137               	.LM324:
 2138 0904 83E0      		ldi r24,lo8(3)
 2139 0906 8B83      		std Y+3,r24
 2140               	.LBB670:
 2141               	.LBB671:
 2142               	.LM325:
 2143 0908 81E0      		ldi r24,lo8(1)
 2144               	.L161:
 2145 090a 5096      		adiw r26,16
 2146 090c 8C93      		st X,r24
 2147 090e 5097      		sbiw r26,16
 2148               	.LM326:
 2149 0910 1F96      		adiw r26,15
 2150 0912 1C92      		st X,__zero_reg__
 2151               	.L160:
 2152               	/* epilogue start */
 2153               	.LBE671:
 2154               	.LBE670:
 2155               	.LM327:
 2156 0914 DF91      		pop r29
 2157 0916 CF91      		pop r28
 2158 0918 0895      		ret
 2159               	.LFE46:
 2161               	.global	TWI_MasterReadHandler
 2163               	TWI_MasterReadHandler:
 2164               	.LFB47:
 2165               	.LM328:
 2166               	.LVL121:
 2167               	/* prologue: function */
 2168               	/* frame size = 0 */
 2169 091a DC01      		movw r26,r24
 2170               	.LM329:
 2171 091c 1E96      		adiw r26,14
 2172 091e 8C91      		ld r24,X
 2173 0920 1E97      		sbiw r26,14
 2174               	.LVL122:
 2175 0922 ED91      		ld r30,X+
 2176 0924 FC91      		ld r31,X
 2177 0926 1197      		sbiw r26,1
 2178 0928 8430      		cpi r24,lo8(4)
 2179 092a 00F4      		brsh .L163
 2180               	.LBB672:
 2181               	.LM330:
 2182 092c 9781      		ldd r25,Z+7
 2183               	.LVL123:
 2184               	.LM331:
 2185 092e 1E96      		adiw r26,14
 2186 0930 8C91      		ld r24,X
 2187 0932 1E97      		sbiw r26,14
 2188 0934 FD01      		movw r30,r26
 2189 0936 E80F      		add r30,r24
 2190 0938 F11D      		adc r31,__zero_reg__
 2191 093a 9783      		std Z+7,r25
 2192               	.LM332:
 2193 093c 1E96      		adiw r26,14
 2194 093e 8C91      		ld r24,X
 2195 0940 1E97      		sbiw r26,14
 2196 0942 8F5F      		subi r24,lo8(-(1))
 2197 0944 1E96      		adiw r26,14
 2198 0946 8C93      		st X,r24
 2199 0948 1E97      		sbiw r26,14
 2200 094a 00C0      		rjmp .L164
 2201               	.LVL124:
 2202               	.L163:
 2203               	.LBE672:
 2204               	.LM333:
 2205 094c 83E0      		ldi r24,lo8(3)
 2206 094e 8383      		std Z+3,r24
 2207               	.LBB673:
 2208               	.LBB674:
 2209               	.LM334:
 2210 0950 82E0      		ldi r24,lo8(2)
 2211 0952 5096      		adiw r26,16
 2212 0954 8C93      		st X,r24
 2213 0956 5097      		sbiw r26,16
 2214               	.LM335:
 2215 0958 1F96      		adiw r26,15
 2216 095a 1C92      		st X,__zero_reg__
 2217 095c 1F97      		sbiw r26,15
 2218               	.LVL125:
 2219               	.L164:
 2220               	.LBE674:
 2221               	.LBE673:
 2222               	.LM336:
 2223 095e 1C96      		adiw r26,12
 2224 0960 9C91      		ld r25,X
 2225 0962 1C97      		sbiw r26,12
 2226               	.LVL126:
 2227               	.LM337:
 2228 0964 1E96      		adiw r26,14
 2229 0966 8C91      		ld r24,X
 2230 0968 1E97      		sbiw r26,14
 2231 096a ED91      		ld r30,X+
 2232 096c FC91      		ld r31,X
 2233 096e 1197      		sbiw r26,1
 2234 0970 8917      		cp r24,r25
 2235 0972 00F4      		brsh .L165
 2236               	.LM338:
 2237 0974 82E0      		ldi r24,lo8(2)
 2238 0976 8383      		std Z+3,r24
 2239 0978 0895      		ret
 2240               	.L165:
 2241               	.LM339:
 2242 097a 87E0      		ldi r24,lo8(7)
 2243 097c 8383      		std Z+3,r24
 2244               	.LBB675:
 2245               	.LBB676:
 2246               	.LM340:
 2247 097e 81E0      		ldi r24,lo8(1)
 2248 0980 5096      		adiw r26,16
 2249 0982 8C93      		st X,r24
 2250 0984 5097      		sbiw r26,16
 2251               	.LM341:
 2252 0986 1F96      		adiw r26,15
 2253 0988 1C92      		st X,__zero_reg__
 2254 098a 0895      		ret
 2255               	.LBE676:
 2256               	.LBE675:
 2257               	.LFE47:
 2259               	.global	TWI_MasterInterruptHandler
 2261               	TWI_MasterInterruptHandler:
 2262               	.LFB44:
 2263               	.LM342:
 2264               	.LVL127:
 2265               	/* prologue: function */
 2266               	/* frame size = 0 */
 2267 098c DC01      		movw r26,r24
 2268               	.LM343:
 2269 098e ED91      		ld r30,X+
 2270 0990 FC91      		ld r31,X
 2271 0992 1197      		sbiw r26,1
 2272 0994 4481      		ldd r20,Z+4
 2273               	.LVL128:
 2274               	.LM344:
 2275 0996 242F      		mov r18,r20
 2276 0998 30E0      		ldi r19,lo8(0)
 2277 099a C901      		movw r24,r18
 2278               	.LVL129:
 2279 099c 8C70      		andi r24,lo8(12)
 2280 099e 9070      		andi r25,hi8(12)
 2281 09a0 892B      		or r24,r25
 2282 09a2 01F0      		breq .L169
 2283               	.LM345:
 2284 09a4 CD01      		movw r24,r26
 2285 09a6 0E94 0000 		call TWI_MasterArbitrationLostBusErrorHandler
 2286               	.LVL130:
 2287 09aa 0895      		ret
 2288               	.LVL131:
 2289               	.L169:
 2290               	.LM346:
 2291 09ac 46FF      		sbrs r20,6
 2292 09ae 00C0      		rjmp .L171
 2293               	.LVL132:
 2294               	.LM347:
 2295 09b0 CD01      		movw r24,r26
 2296 09b2 0E94 0000 		call TWI_MasterWriteHandler
 2297               	.LVL133:
 2298 09b6 0895      		ret
 2299               	.LVL134:
 2300               	.L171:
 2301               	.LM348:
 2302 09b8 47FF      		sbrs r20,7
 2303 09ba 00C0      		rjmp .L172
 2304               	.LVL135:
 2305               	.LM349:
 2306 09bc CD01      		movw r24,r26
 2307 09be 0E94 0000 		call TWI_MasterReadHandler
 2308               	.LVL136:
 2309 09c2 0895      		ret
 2310               	.LVL137:
 2311               	.L172:
 2312               	.LBB677:
 2313               	.LBB678:
 2314               	.LM350:
 2315 09c4 86E0      		ldi r24,lo8(6)
 2316 09c6 5096      		adiw r26,16
 2317 09c8 8C93      		st X,r24
 2318 09ca 5097      		sbiw r26,16
 2319               	.LM351:
 2320 09cc 1F96      		adiw r26,15
 2321 09ce 1C92      		st X,__zero_reg__
 2322 09d0 0895      		ret
 2323               	.LBE678:
 2324               	.LBE677:
 2325               	.LFE44:
 2327               	.global	TWI_MasterTransactionFinished
 2329               	TWI_MasterTransactionFinished:
 2330               	.LFB48:
 2331               	.LM352:
 2332               	.LVL138:
 2333               	/* prologue: function */
 2334               	/* frame size = 0 */
 2335 09d2 FC01      		movw r30,r24
 2336               	.LM353:
 2337 09d4 608B      		std Z+16,r22
 2338               	.LM354:
 2339 09d6 1786      		std Z+15,__zero_reg__
 2340               	/* epilogue start */
 2341               	.LM355:
 2342 09d8 0895      		ret
 2343               	.LFE48:
 2345               	.global	getAccelData
 2347               	getAccelData:
 2348               	.LFB49:
 2349               	.LM356:
 2350               	/* prologue: function */
 2351               	/* frame size = 0 */
 2352               	.LM357:
 2353 09da 6091 0000 		lds r22,_acc
 2354 09de 7091 0000 		lds r23,_acc+1
 2355               	.LM358:
 2356 09e2 8091 0000 		lds r24,_acc+2
 2357 09e6 9091 0000 		lds r25,_acc+3
 2358               	/* epilogue start */
 2359 09ea 0895      		ret
 2360               	.LFE49:
 2362               	.global	newAccelData
 2364               	newAccelData:
 2365               	.LFB50:
 2366               	.LM359:
 2367               	/* prologue: function */
 2368               	/* frame size = 0 */
 2369               	.LM360:
 2370 09ec 8091 0000 		lds r24,twiMaster+16
 2371 09f0 8130      		cpi r24,lo8(1)
 2372 09f2 01F0      		breq .L179
 2373 09f4 20E0      		ldi r18,lo8(0)
 2374 09f6 30E0      		ldi r19,hi8(0)
 2375 09f8 00C0      		rjmp .L180
 2376               	.L179:
 2377 09fa 8091 0000 		lds r24,twiMaster+15
 2378 09fe 90E0      		ldi r25,lo8(0)
 2379 0a00 8111      		cpse r24,__zero_reg__
 2380 0a02 91E0      		ldi r25,lo8(1)
 2381               	.L181:
 2382 0a04 81E0      		ldi r24,lo8(1)
 2383 0a06 9827      		eor r25,r24
 2384 0a08 292F      		mov r18,r25
 2385 0a0a 30E0      		ldi r19,lo8(0)
 2386               	.L180:
 2387               	.LM361:
 2388 0a0c C901      		movw r24,r18
 2389               	/* epilogue start */
 2390 0a0e 0895      		ret
 2391               	.LFE50:
 2393               	.global	updateAccel
 2395               	updateAccel:
 2396               	.LFB51:
 2397               	.LM362:
 2398 0a10 0F93      		push r16
 2399 0a12 DF93      		push r29
 2400 0a14 CF93      		push r28
 2401 0a16 0F92      		push __tmp_reg__
 2402 0a18 CDB7      		in r28,__SP_L__
 2403 0a1a DEB7      		in r29,__SP_H__
 2404               	/* prologue: function */
 2405               	/* frame size = 1 */
 2406               	.LM363:
 2407 0a1c 1982      		std Y+1,__zero_reg__
 2408               	.LVL139:
 2409               	.LM364:
 2410 0a1e 80E0      		ldi r24,lo8(twiMaster)
 2411 0a20 90E0      		ldi r25,hi8(twiMaster)
 2412 0a22 6CE4      		ldi r22,lo8(76)
 2413 0a24 AE01      		movw r20,r28
 2414 0a26 4F5F      		subi r20,lo8(-(1))
 2415 0a28 5F4F      		sbci r21,hi8(-(1))
 2416 0a2a 21E0      		ldi r18,lo8(1)
 2417 0a2c 04E0      		ldi r16,lo8(4)
 2418 0a2e 0E94 0000 		call TWI_MasterWriteRead
 2419               	.L184:
 2420               	.LM365:
 2421 0a32 8091 0000 		lds r24,twiMaster+15
 2422 0a36 8823      		tst r24
 2423 0a38 01F4      		brne .L184
 2424               	.LM366:
 2425 0a3a 8091 0000 		lds r24,twiMaster+7
 2426 0a3e 8093 0000 		sts _acc,r24
 2427               	.LM367:
 2428 0a42 8091 0000 		lds r24,twiMaster+8
 2429 0a46 8093 0000 		sts _acc+1,r24
 2430               	.LM368:
 2431 0a4a 8091 0000 		lds r24,twiMaster+9
 2432 0a4e 8093 0000 		sts _acc+2,r24
 2433               	.LM369:
 2434 0a52 8091 0000 		lds r24,twiMaster+10
 2435 0a56 8093 0000 		sts _acc+3,r24
 2436               	.LM370:
 2437 0a5a 1092 0000 		sts twiMaster+16,__zero_reg__
 2438               	/* epilogue start */
 2439               	.LM371:
 2440 0a5e 0F90      		pop __tmp_reg__
 2441 0a60 CF91      		pop r28
 2442 0a62 DF91      		pop r29
 2443 0a64 0F91      		pop r16
 2444 0a66 0895      		ret
 2445               	.LFE51:
 2447               	.global	initAccel
 2449               	initAccel:
 2450               	.LFB52:
 2451               	.LM372:
 2452 0a68 0F93      		push r16
 2453 0a6a DF93      		push r29
 2454 0a6c CF93      		push r28
 2455 0a6e 00D0      		rcall .
 2456 0a70 CDB7      		in r28,__SP_L__
 2457 0a72 DEB7      		in r29,__SP_H__
 2458               	/* prologue: function */
 2459               	/* frame size = 2 */
 2460               	.LM373:
 2461               	/* #APP */
 2462               	 ;  54 "accelerometer.c" 1
 2463 0a74 F894      		cli
 2464               	 ;  0 "" 2
 2465               	/* #NOAPP */
 2466               	.LBB679:
 2467               	.LBB680:
 2468               	.LM374:
 2469 0a76 E0EA      		ldi r30,lo8(1184)
 2470 0a78 F4E0      		ldi r31,hi8(1184)
 2471 0a7a E093 0000 		sts twiMaster,r30
 2472 0a7e F093 0000 		sts (twiMaster)+1,r31
 2473               	.LM375:
 2474 0a82 88E7      		ldi r24,lo8(120)
 2475 0a84 8183      		std Z+1,r24
 2476               	.LM376:
 2477 0a86 8BE9      		ldi r24,lo8(-101)
 2478 0a88 8583      		std Z+5,r24
 2479               	.LM377:
 2480 0a8a 81E0      		ldi r24,lo8(1)
 2481 0a8c 8483      		std Z+4,r24
 2482               	.LBE680:
 2483               	.LBE679:
 2484               	.LM378:
 2485 0a8e 8091 A200 		lds r24,162
 2486 0a92 8160      		ori r24,lo8(1)
 2487 0a94 E0EA      		ldi r30,lo8(160)
 2488 0a96 F0E0      		ldi r31,hi8(160)
 2489 0a98 8283      		std Z+2,r24
 2490               	.LM379:
 2491               	/* #APP */
 2492               	 ;  64 "accelerometer.c" 1
 2493 0a9a 7894      		sei
 2494               	 ;  0 "" 2
 2495               	.LM380:
 2496               	/* #NOAPP */
 2497 0a9c 87E0      		ldi r24,lo8(7)
 2498 0a9e 8983      		std Y+1,r24
 2499               	.LM381:
 2500 0aa0 80E5      		ldi r24,lo8(80)
 2501 0aa2 8A83      		std Y+2,r24
 2502               	.LM382:
 2503 0aa4 80E0      		ldi r24,lo8(twiMaster)
 2504 0aa6 90E0      		ldi r25,hi8(twiMaster)
 2505 0aa8 6CE4      		ldi r22,lo8(76)
 2506 0aaa AE01      		movw r20,r28
 2507 0aac 4F5F      		subi r20,lo8(-(1))
 2508 0aae 5F4F      		sbci r21,hi8(-(1))
 2509 0ab0 22E0      		ldi r18,lo8(2)
 2510 0ab2 00E0      		ldi r16,lo8(0)
 2511 0ab4 0E94 0000 		call TWI_MasterWriteRead
 2512               	.L188:
 2513               	.LM383:
 2514 0ab8 8091 0000 		lds r24,twiMaster+15
 2515 0abc 8823      		tst r24
 2516 0abe 01F4      		brne .L188
 2517               	.LM384:
 2518 0ac0 85E0      		ldi r24,lo8(5)
 2519 0ac2 8983      		std Y+1,r24
 2520               	.LM385:
 2521 0ac4 1A82      		std Y+2,__zero_reg__
 2522               	.LM386:
 2523 0ac6 80E0      		ldi r24,lo8(twiMaster)
 2524 0ac8 90E0      		ldi r25,hi8(twiMaster)
 2525 0aca 6CE4      		ldi r22,lo8(76)
 2526 0acc AE01      		movw r20,r28
 2527 0ace 4F5F      		subi r20,lo8(-(1))
 2528 0ad0 5F4F      		sbci r21,hi8(-(1))
 2529 0ad2 22E0      		ldi r18,lo8(2)
 2530 0ad4 00E0      		ldi r16,lo8(0)
 2531 0ad6 0E94 0000 		call TWI_MasterWriteRead
 2532               	.L189:
 2533               	.LM387:
 2534 0ada 8091 0000 		lds r24,twiMaster+15
 2535 0ade 8823      		tst r24
 2536 0ae0 01F4      		brne .L189
 2537               	.LM388:
 2538 0ae2 86E0      		ldi r24,lo8(6)
 2539 0ae4 8983      		std Y+1,r24
 2540               	.LM389:
 2541 0ae6 84EE      		ldi r24,lo8(-28)
 2542 0ae8 8A83      		std Y+2,r24
 2543               	.LM390:
 2544 0aea 80E0      		ldi r24,lo8(twiMaster)
 2545 0aec 90E0      		ldi r25,hi8(twiMaster)
 2546 0aee 6CE4      		ldi r22,lo8(76)
 2547 0af0 AE01      		movw r20,r28
 2548 0af2 4F5F      		subi r20,lo8(-(1))
 2549 0af4 5F4F      		sbci r21,hi8(-(1))
 2550 0af6 22E0      		ldi r18,lo8(2)
 2551 0af8 00E0      		ldi r16,lo8(0)
 2552 0afa 0E94 0000 		call TWI_MasterWriteRead
 2553               	.L190:
 2554               	.LM391:
 2555 0afe 8091 0000 		lds r24,twiMaster+15
 2556 0b02 8823      		tst r24
 2557 0b04 01F4      		brne .L190
 2558               	.LM392:
 2559 0b06 88E0      		ldi r24,lo8(8)
 2560 0b08 8983      		std Y+1,r24
 2561               	.LM393:
 2562 0b0a 80EE      		ldi r24,lo8(-32)
 2563 0b0c 8A83      		std Y+2,r24
 2564               	.LM394:
 2565 0b0e 80E0      		ldi r24,lo8(twiMaster)
 2566 0b10 90E0      		ldi r25,hi8(twiMaster)
 2567 0b12 6CE4      		ldi r22,lo8(76)
 2568 0b14 AE01      		movw r20,r28
 2569 0b16 4F5F      		subi r20,lo8(-(1))
 2570 0b18 5F4F      		sbci r21,hi8(-(1))
 2571 0b1a 22E0      		ldi r18,lo8(2)
 2572 0b1c 00E0      		ldi r16,lo8(0)
 2573 0b1e 0E94 0000 		call TWI_MasterWriteRead
 2574               	.L191:
 2575               	.LM395:
 2576 0b22 8091 0000 		lds r24,twiMaster+15
 2577 0b26 8823      		tst r24
 2578 0b28 01F4      		brne .L191
 2579               	.LM396:
 2580 0b2a 89E0      		ldi r24,lo8(9)
 2581 0b2c 8983      		std Y+1,r24
 2582               	.LM397:
 2583 0b2e 88E0      		ldi r24,lo8(8)
 2584 0b30 8A83      		std Y+2,r24
 2585               	.LM398:
 2586 0b32 80E0      		ldi r24,lo8(twiMaster)
 2587 0b34 90E0      		ldi r25,hi8(twiMaster)
 2588 0b36 6CE4      		ldi r22,lo8(76)
 2589 0b38 AE01      		movw r20,r28
 2590 0b3a 4F5F      		subi r20,lo8(-(1))
 2591 0b3c 5F4F      		sbci r21,hi8(-(1))
 2592 0b3e 22E0      		ldi r18,lo8(2)
 2593 0b40 00E0      		ldi r16,lo8(0)
 2594 0b42 0E94 0000 		call TWI_MasterWriteRead
 2595               	.L192:
 2596               	.LM399:
 2597 0b46 8091 0000 		lds r24,twiMaster+15
 2598 0b4a 8823      		tst r24
 2599 0b4c 01F4      		brne .L192
 2600               	.LM400:
 2601 0b4e 8AE0      		ldi r24,lo8(10)
 2602 0b50 8983      		std Y+1,r24
 2603               	.LM401:
 2604 0b52 80E1      		ldi r24,lo8(16)
 2605 0b54 8A83      		std Y+2,r24
 2606               	.LM402:
 2607 0b56 80E0      		ldi r24,lo8(twiMaster)
 2608 0b58 90E0      		ldi r25,hi8(twiMaster)
 2609 0b5a 6CE4      		ldi r22,lo8(76)
 2610 0b5c AE01      		movw r20,r28
 2611 0b5e 4F5F      		subi r20,lo8(-(1))
 2612 0b60 5F4F      		sbci r21,hi8(-(1))
 2613 0b62 22E0      		ldi r18,lo8(2)
 2614 0b64 00E0      		ldi r16,lo8(0)
 2615 0b66 0E94 0000 		call TWI_MasterWriteRead
 2616               	.L193:
 2617               	.LM403:
 2618 0b6a 8091 0000 		lds r24,twiMaster+15
 2619 0b6e 8823      		tst r24
 2620 0b70 01F4      		brne .L193
 2621               	.LM404:
 2622 0b72 87E0      		ldi r24,lo8(7)
 2623 0b74 8983      		std Y+1,r24
 2624               	.LM405:
 2625 0b76 81E5      		ldi r24,lo8(81)
 2626 0b78 8A83      		std Y+2,r24
 2627               	.LM406:
 2628 0b7a 80E0      		ldi r24,lo8(twiMaster)
 2629 0b7c 90E0      		ldi r25,hi8(twiMaster)
 2630 0b7e 6CE4      		ldi r22,lo8(76)
 2631 0b80 AE01      		movw r20,r28
 2632 0b82 4F5F      		subi r20,lo8(-(1))
 2633 0b84 5F4F      		sbci r21,hi8(-(1))
 2634 0b86 22E0      		ldi r18,lo8(2)
 2635 0b88 00E0      		ldi r16,lo8(0)
 2636 0b8a 0E94 0000 		call TWI_MasterWriteRead
 2637               	.L194:
 2638               	.LM407:
 2639 0b8e 8091 0000 		lds r24,twiMaster+15
 2640 0b92 8823      		tst r24
 2641 0b94 01F4      		brne .L194
 2642               	/* epilogue start */
 2643               	.LM408:
 2644 0b96 0F90      		pop __tmp_reg__
 2645 0b98 0F90      		pop __tmp_reg__
 2646 0b9a CF91      		pop r28
 2647 0b9c DF91      		pop r29
 2648 0b9e 0F91      		pop r16
 2649 0ba0 0895      		ret
 2650               	.LFE52:
 2652               	.global	__vector_46
 2654               	__vector_46:
 2655               	.LFB53:
 2656               	.LM409:
 2657 0ba2 1F92      		push __zero_reg__
 2658 0ba4 0F92      		push r0
 2659 0ba6 0FB6      		in r0,__SREG__
 2660 0ba8 0F92      		push r0
 2661 0baa 1124      		clr __zero_reg__
 2662 0bac 2F93      		push r18
 2663 0bae 3F93      		push r19
 2664 0bb0 4F93      		push r20
 2665 0bb2 5F93      		push r21
 2666 0bb4 6F93      		push r22
 2667 0bb6 7F93      		push r23
 2668 0bb8 8F93      		push r24
 2669 0bba 9F93      		push r25
 2670 0bbc AF93      		push r26
 2671 0bbe BF93      		push r27
 2672 0bc0 EF93      		push r30
 2673 0bc2 FF93      		push r31
 2674               	/* prologue: Signal */
 2675               	/* frame size = 0 */
 2676               	.LM410:
 2677 0bc4 80E0      		ldi r24,lo8(twiMaster)
 2678 0bc6 90E0      		ldi r25,hi8(twiMaster)
 2679 0bc8 0E94 0000 		call TWI_MasterInterruptHandler
 2680               	/* epilogue start */
 2681               	.LM411:
 2682 0bcc FF91      		pop r31
 2683 0bce EF91      		pop r30
 2684 0bd0 BF91      		pop r27
 2685 0bd2 AF91      		pop r26
 2686 0bd4 9F91      		pop r25
 2687 0bd6 8F91      		pop r24
 2688 0bd8 7F91      		pop r23
 2689 0bda 6F91      		pop r22
 2690 0bdc 5F91      		pop r21
 2691 0bde 4F91      		pop r20
 2692 0be0 3F91      		pop r19
 2693 0be2 2F91      		pop r18
 2694 0be4 0F90      		pop r0
 2695 0be6 0FBE      		out __SREG__,r0
 2696 0be8 0F90      		pop r0
 2697 0bea 1F90      		pop __zero_reg__
 2698 0bec 1895      		reti
 2699               	.LFE53:
 2701               	.global	init_dac
 2703               	init_dac:
 2704               	.LFB54:
 2705               	.LM412:
 2706               	/* prologue: function */
 2707               	/* frame size = 0 */
 2708               	.LM413:
 2709 0bee E0E2      		ldi r30,lo8(800)
 2710 0bf0 F3E0      		ldi r31,hi8(800)
 2711 0bf2 80E4      		ldi r24,lo8(64)
 2712 0bf4 8183      		std Z+1,r24
 2713               	.LM414:
 2714 0bf6 89E0      		ldi r24,lo8(9)
 2715 0bf8 8283      		std Z+2,r24
 2716               	.LM415:
 2717 0bfa 82E5      		ldi r24,lo8(82)
 2718 0bfc 8483      		std Z+4,r24
 2719               	.LM416:
 2720 0bfe 81E0      		ldi r24,lo8(1)
 2721 0c00 8093 2003 		sts 800,r24
 2722               	.LBB681:
 2723               	.LBB682:
 2724               	.LM417:
 2725 0c04 8091 2003 		lds r24,800
 2726 0c08 8460      		ori r24,lo8(4)
 2727 0c0a 8093 2003 		sts 800,r24
 2728               	.L206:
 2729               	.LM418:
 2730 0c0e 8091 2503 		lds r24,805
 2731 0c12 80FF      		sbrs r24,0
 2732 0c14 00C0      		rjmp .L206
 2733               	.LM419:
 2734 0c16 E0E2      		ldi r30,lo8(800)
 2735 0c18 F3E0      		ldi r31,hi8(800)
 2736 0c1a 118E      		std Z+25,__zero_reg__
 2737               	.LBE682:
 2738               	.LBE681:
 2739               	.LBB683:
 2740               	.LBB684:
 2741               	.LM420:
 2742 0c1c 8091 2003 		lds r24,800
 2743 0c20 8860      		ori r24,lo8(8)
 2744 0c22 8093 2003 		sts 800,r24
 2745               	.L207:
 2746               	.LM421:
 2747 0c26 8091 2503 		lds r24,805
 2748 0c2a 81FF      		sbrs r24,1
 2749 0c2c 00C0      		rjmp .L207
 2750               	.LM422:
 2751 0c2e E0E2      		ldi r30,lo8(800)
 2752 0c30 F3E0      		ldi r31,hi8(800)
 2753 0c32 138E      		std Z+27,__zero_reg__
 2754               	/* epilogue start */
 2755               	.LBE684:
 2756               	.LBE683:
 2757               	.LM423:
 2758 0c34 0895      		ret
 2759               	.LFE54:
 2761               	.global	set_dac0
 2763               	set_dac0:
 2764               	.LFB55:
 2765               	.LM424:
 2766               	.LVL140:
 2767               	/* prologue: function */
 2768               	/* frame size = 0 */
 2769 0c36 982F      		mov r25,r24
 2770               	.LM425:
 2771 0c38 8091 2003 		lds r24,800
 2772               	.LVL141:
 2773 0c3c 8460      		ori r24,lo8(4)
 2774 0c3e 8093 2003 		sts 800,r24
 2775               	.L212:
 2776               	.LM426:
 2777 0c42 8091 2503 		lds r24,805
 2778 0c46 80FF      		sbrs r24,0
 2779 0c48 00C0      		rjmp .L212
 2780               	.LM427:
 2781 0c4a E0E2      		ldi r30,lo8(800)
 2782 0c4c F3E0      		ldi r31,hi8(800)
 2783 0c4e 918F      		std Z+25,r25
 2784               	/* epilogue start */
 2785               	.LM428:
 2786 0c50 0895      		ret
 2787               	.LFE55:
 2789               	.global	set_dac1
 2791               	set_dac1:
 2792               	.LFB56:
 2793               	.LM429:
 2794               	.LVL142:
 2795               	/* prologue: function */
 2796               	/* frame size = 0 */
 2797 0c52 982F      		mov r25,r24
 2798               	.LM430:
 2799 0c54 8091 2003 		lds r24,800
 2800               	.LVL143:
 2801 0c58 8860      		ori r24,lo8(8)
 2802 0c5a 8093 2003 		sts 800,r24
 2803               	.L216:
 2804               	.LM431:
 2805 0c5e 8091 2503 		lds r24,805
 2806 0c62 81FF      		sbrs r24,1
 2807 0c64 00C0      		rjmp .L216
 2808               	.LM432:
 2809 0c66 E0E2      		ldi r30,lo8(800)
 2810 0c68 F3E0      		ldi r31,hi8(800)
 2811 0c6a 938F      		std Z+27,r25
 2812               	/* epilogue start */
 2813               	.LM433:
 2814 0c6c 0895      		ret
 2815               	.LFE56:
 2817               	.global	disable_dac0
 2819               	disable_dac0:
 2820               	.LFB57:
 2821               	.LM434:
 2822               	/* prologue: function */
 2823               	/* frame size = 0 */
 2824               	.LM435:
 2825 0c6e E0E2      		ldi r30,lo8(800)
 2826 0c70 F3E0      		ldi r31,hi8(800)
 2827 0c72 8081      		ld r24,Z
 2828 0c74 8B7F      		andi r24,lo8(-5)
 2829 0c76 8083      		st Z,r24
 2830               	/* epilogue start */
 2831               	.LM436:
 2832 0c78 0895      		ret
 2833               	.LFE57:
 2835               	.global	disable_dac1
 2837               	disable_dac1:
 2838               	.LFB58:
 2839               	.LM437:
 2840               	/* prologue: function */
 2841               	/* frame size = 0 */
 2842               	.LM438:
 2843 0c7a E0E2      		ldi r30,lo8(800)
 2844 0c7c F3E0      		ldi r31,hi8(800)
 2845 0c7e 8081      		ld r24,Z
 2846 0c80 877F      		andi r24,lo8(-9)
 2847 0c82 8083      		st Z,r24
 2848               	/* epilogue start */
 2849               	.LM439:
 2850 0c84 0895      		ret
 2851               	.LFE58:
 2853               	.global	init_buzzer
 2855               	init_buzzer:
 2856               	.LFB59:
 2857               	.LM440:
 2858               	/* prologue: function */
 2859               	/* frame size = 0 */
 2860               	.LM441:
 2861 0c86 E0E4      		ldi r30,lo8(2368)
 2862 0c88 F9E0      		ldi r31,hi8(2368)
 2863 0c8a 86E0      		ldi r24,lo8(6)
 2864 0c8c 8083      		st Z,r24
 2865               	.LM442:
 2866 0c8e 81E0      		ldi r24,lo8(1)
 2867 0c90 8183      		std Z+1,r24
 2868               	.LM443:
 2869 0c92 E0E6      		ldi r30,lo8(1632)
 2870 0c94 F6E0      		ldi r31,hi8(1632)
 2871 0c96 8181      		ldd r24,Z+1
 2872 0c98 8061      		ori r24,lo8(16)
 2873 0c9a 8183      		std Z+1,r24
 2874               	.LM444:
 2875 0c9c 8681      		ldd r24,Z+6
 2876 0c9e 8061      		ori r24,lo8(16)
 2877 0ca0 8683      		std Z+6,r24
 2878               	/* epilogue start */
 2879               	.LM445:
 2880 0ca2 0895      		ret
 2881               	.LFE59:
 2883               	.global	set_buzzer
 2885               	set_buzzer:
 2886               	.LFB60:
 2887               	.LM446:
 2888               	.LVL144:
 2889               	/* prologue: function */
 2890               	/* frame size = 0 */
 2891               	.LM447:
 2892 0ca4 E0E4      		ldi r30,lo8(2368)
 2893 0ca6 F9E0      		ldi r31,hi8(2368)
 2894 0ca8 2181      		ldd r18,Z+1
 2895 0caa 2061      		ori r18,lo8(16)
 2896 0cac 2183      		std Z+1,r18
 2897               	.LM448:
 2898               	/* #APP */
 2899               	 ;  20 "buzzer.c" 1
 2900 0cae F894      		cli
 2901               	 ;  0 "" 2
 2902               	.LM449:
 2903               	/* #NOAPP */
 2904 0cb0 E0E4      		ldi r30,lo8(2368)
 2905 0cb2 F9E0      		ldi r31,hi8(2368)
 2906 0cb4 80A7      		std Z+40,r24
 2907 0cb6 91A7      		std Z+41,r25
 2908               	.LVL145:
 2909               	.LM450:
 2910               	/* #APP */
 2911               	 ;  22 "buzzer.c" 1
 2912 0cb8 7894      		sei
 2913               	 ;  0 "" 2
 2914               	/* epilogue start */
 2915               	.LM451:
 2916               	/* #NOAPP */
 2917 0cba 0895      		ret
 2918               	.LFE60:
 2920               	.global	turn_off_buzzer
 2922               	turn_off_buzzer:
 2923               	.LFB61:
 2924               	.LM452:
 2925               	/* prologue: function */
 2926               	/* frame size = 0 */
 2927               	.LM453:
 2928 0cbc E0E4      		ldi r30,lo8(2368)
 2929 0cbe F9E0      		ldi r31,hi8(2368)
 2930 0cc0 8181      		ldd r24,Z+1
 2931 0cc2 8F7E      		andi r24,lo8(-17)
 2932 0cc4 8183      		std Z+1,r24
 2933               	.LM454:
 2934 0cc6 E0E6      		ldi r30,lo8(1632)
 2935 0cc8 F6E0      		ldi r31,hi8(1632)
 2936 0cca 8681      		ldd r24,Z+6
 2937 0ccc 8061      		ori r24,lo8(16)
 2938 0cce 8683      		std Z+6,r24
 2939               	/* epilogue start */
 2940               	.LM455:
 2941 0cd0 0895      		ret
 2942               	.LFE61:
 2944               	.global	set_pwm
 2946               	set_pwm:
 2947               	.LFB62:
 2948               	.LM456:
 2949               	/* prologue: function */
 2950               	/* frame size = 0 */
 2951               	.LM457:
 2952 0cd2 E0E0      		ldi r30,lo8(2560)
 2953 0cd4 FAE0      		ldi r31,hi8(2560)
 2954 0cd6 81E0      		ldi r24,lo8(1)
 2955 0cd8 8083      		st Z,r24
 2956               	.LM458:
 2957 0cda 83E0      		ldi r24,lo8(3)
 2958 0cdc 8183      		std Z+1,r24
 2959               	.LM459:
 2960 0cde 1382      		std Z+3,__zero_reg__
 2961               	.LM460:
 2962 0ce0 8091 0000 		lds r24,pwm_frequency
 2963 0ce4 9091 0000 		lds r25,(pwm_frequency)+1
 2964 0ce8 86AB      		std Z+54,r24
 2965 0cea 97AB      		std Z+55,r25
 2966               	/* epilogue start */
 2967               	.LM461:
 2968 0cec 0895      		ret
 2969               	.LFE62:
 2971               	.global	turn_off_pwm0
 2973               	turn_off_pwm0:
 2974               	.LFB63:
 2975               	.LM462:
 2976               	/* prologue: function */
 2977               	/* frame size = 0 */
 2978               	.LM463:
 2979 0cee E0E0      		ldi r30,lo8(2560)
 2980 0cf0 FAE0      		ldi r31,hi8(2560)
 2981 0cf2 8181      		ldd r24,Z+1
 2982 0cf4 8F7B      		andi r24,lo8(-65)
 2983 0cf6 8183      		std Z+1,r24
 2984               	/* epilogue start */
 2985               	.LM464:
 2986 0cf8 0895      		ret
 2987               	.LFE63:
 2989               	.global	turn_off_pwm1
 2991               	turn_off_pwm1:
 2992               	.LFB64:
 2993               	.LM465:
 2994               	/* prologue: function */
 2995               	/* frame size = 0 */
 2996               	.LM466:
 2997 0cfa E0E0      		ldi r30,lo8(2560)
 2998 0cfc FAE0      		ldi r31,hi8(2560)
 2999 0cfe 8181      		ldd r24,Z+1
 3000 0d00 8F77      		andi r24,lo8(127)
 3001 0d02 8183      		std Z+1,r24
 3002               	/* epilogue start */
 3003               	.LM467:
 3004 0d04 0895      		ret
 3005               	.LFE64:
 3007               	.global	set_pwm0
 3009               	set_pwm0:
 3010               	.LFB65:
 3011               	.LM468:
 3012               	.LVL146:
 3013               	/* prologue: function */
 3014               	/* frame size = 0 */
 3015               	.LM469:
 3016 0d06 A0E0      		ldi r26,lo8(2560)
 3017 0d08 BAE0      		ldi r27,hi8(2560)
 3018 0d0a 1196      		adiw r26,1
 3019 0d0c 2C91      		ld r18,X
 3020 0d0e 1197      		sbiw r26,1
 3021 0d10 2064      		ori r18,lo8(64)
 3022 0d12 1196      		adiw r26,1
 3023 0d14 2C93      		st X,r18
 3024 0d16 1197      		sbiw r26,1
 3025               	.LM470:
 3026 0d18 24E0      		ldi r18,lo8(4)
 3027 0d1a E0E8      		ldi r30,lo8(1664)
 3028 0d1c F6E0      		ldi r31,hi8(1664)
 3029 0d1e 2183      		std Z+1,r18
 3030               	.LM471:
 3031 0d20 9C96      		adiw r26,44
 3032 0d22 8D93      		st X+,r24
 3033 0d24 9C93      		st X,r25
 3034 0d26 9D97      		sbiw r26,44+1
 3035               	/* epilogue start */
 3036               	.LM472:
 3037 0d28 0895      		ret
 3038               	.LFE65:
 3040               	.global	set_pwm1
 3042               	set_pwm1:
 3043               	.LFB66:
 3044               	.LM473:
 3045               	.LVL147:
 3046               	/* prologue: function */
 3047               	/* frame size = 0 */
 3048               	.LM474:
 3049 0d2a A0E0      		ldi r26,lo8(2560)
 3050 0d2c BAE0      		ldi r27,hi8(2560)
 3051 0d2e 1196      		adiw r26,1
 3052 0d30 2C91      		ld r18,X
 3053 0d32 1197      		sbiw r26,1
 3054 0d34 2068      		ori r18,lo8(-128)
 3055 0d36 1196      		adiw r26,1
 3056 0d38 2C93      		st X,r18
 3057 0d3a 1197      		sbiw r26,1
 3058               	.LM475:
 3059 0d3c 28E0      		ldi r18,lo8(8)
 3060 0d3e E0E8      		ldi r30,lo8(1664)
 3061 0d40 F6E0      		ldi r31,hi8(1664)
 3062 0d42 2183      		std Z+1,r18
 3063               	.LM476:
 3064 0d44 9E96      		adiw r26,46
 3065 0d46 8D93      		st X+,r24
 3066 0d48 9C93      		st X,r25
 3067 0d4a 9F97      		sbiw r26,46+1
 3068               	/* epilogue start */
 3069               	.LM477:
 3070 0d4c 0895      		ret
 3071               	.LFE66:
 3073               	.global	set_output
 3075               	set_output:
 3076               	.LFB67:
 3077               	.LM478:
 3078               	.LVL148:
 3079               	/* prologue: function */
 3080               	/* frame size = 0 */
 3081               	.LM479:
 3082 0d4e 8433      		cpi r24,lo8(52)
 3083 0d50 01F0      		breq .L245
 3084 0d52 8533      		cpi r24,lo8(53)
 3085 0d54 00F4      		brsh .L251
 3086 0d56 8133      		cpi r24,lo8(49)
 3087 0d58 01F0      		breq .L242
 3088 0d5a 8233      		cpi r24,lo8(50)
 3089 0d5c 00F4      		brsh .L252
 3090 0d5e 8033      		cpi r24,lo8(48)
 3091 0d60 01F0      		breq .+2
 3092 0d62 00C0      		rjmp .L264
 3093 0d64 00C0      		rjmp .L277
 3094               	.L252:
 3095 0d66 8233      		cpi r24,lo8(50)
 3096 0d68 01F0      		breq .L243
 3097 0d6a 8333      		cpi r24,lo8(51)
 3098 0d6c 01F0      		breq .+2
 3099 0d6e 00C0      		rjmp .L264
 3100 0d70 00C0      		rjmp .L278
 3101               	.L251:
 3102 0d72 8733      		cpi r24,lo8(55)
 3103 0d74 01F0      		breq .L248
 3104 0d76 8833      		cpi r24,lo8(56)
 3105 0d78 00F4      		brsh .L253
 3106 0d7a 8533      		cpi r24,lo8(53)
 3107 0d7c 01F0      		breq .L246
 3108 0d7e 8633      		cpi r24,lo8(54)
 3109 0d80 01F0      		breq .+2
 3110 0d82 00C0      		rjmp .L264
 3111 0d84 00C0      		rjmp .L279
 3112               	.L253:
 3113 0d86 8833      		cpi r24,lo8(56)
 3114 0d88 01F0      		breq .L249
 3115 0d8a 8933      		cpi r24,lo8(57)
 3116 0d8c 01F0      		breq .+2
 3117 0d8e 00C0      		rjmp .L264
 3118 0d90 00C0      		rjmp .L280
 3119               	.L277:
 3120               	.LM480:
 3121 0d92 E0E0      		ldi r30,lo8(1536)
 3122 0d94 F6E0      		ldi r31,hi8(1536)
 3123 0d96 81E0      		ldi r24,lo8(1)
 3124               	.LVL149:
 3125 0d98 00C0      		rjmp .L267
 3126               	.LVL150:
 3127               	.L242:
 3128               	.LM481:
 3129 0d9a E0E0      		ldi r30,lo8(1536)
 3130 0d9c F6E0      		ldi r31,hi8(1536)
 3131 0d9e 82E0      		ldi r24,lo8(2)
 3132               	.LVL151:
 3133 0da0 00C0      		rjmp .L267
 3134               	.LVL152:
 3135               	.L243:
 3136               	.LM482:
 3137 0da2 E0E0      		ldi r30,lo8(1536)
 3138 0da4 F6E0      		ldi r31,hi8(1536)
 3139 0da6 00C0      		rjmp .L275
 3140               	.L278:
 3141               	.LM483:
 3142 0da8 E0E0      		ldi r30,lo8(1536)
 3143 0daa F6E0      		ldi r31,hi8(1536)
 3144 0dac 00C0      		rjmp .L276
 3145               	.L245:
 3146               	.LM484:
 3147 0dae E0E0      		ldi r30,lo8(1536)
 3148 0db0 F6E0      		ldi r31,hi8(1536)
 3149 0db2 80E1      		ldi r24,lo8(16)
 3150               	.LVL153:
 3151 0db4 00C0      		rjmp .L267
 3152               	.LVL154:
 3153               	.L246:
 3154               	.LM485:
 3155 0db6 E0E0      		ldi r30,lo8(1536)
 3156 0db8 F6E0      		ldi r31,hi8(1536)
 3157 0dba 80E2      		ldi r24,lo8(32)
 3158               	.LVL155:
 3159 0dbc 00C0      		rjmp .L267
 3160               	.LVL156:
 3161               	.L279:
 3162               	.LBB685:
 3163               	.LBB686:
 3164               	.LM486:
 3165 0dbe 8091 2003 		lds r24,800
 3166               	.LVL157:
 3167 0dc2 8B7F      		andi r24,lo8(-5)
 3168 0dc4 8093 2003 		sts 800,r24
 3169               	.LBE686:
 3170               	.LBE685:
 3171               	.LM487:
 3172 0dc8 E0E2      		ldi r30,lo8(1568)
 3173 0dca F6E0      		ldi r31,hi8(1568)
 3174 0dcc 00C0      		rjmp .L275
 3175               	.LVL158:
 3176               	.L248:
 3177               	.LBB687:
 3178               	.LBB688:
 3179               	.LM488:
 3180 0dce 8091 2003 		lds r24,800
 3181               	.LVL159:
 3182 0dd2 877F      		andi r24,lo8(-9)
 3183 0dd4 8093 2003 		sts 800,r24
 3184               	.LBE688:
 3185               	.LBE687:
 3186               	.LM489:
 3187 0dd8 E0E2      		ldi r30,lo8(1568)
 3188 0dda F6E0      		ldi r31,hi8(1568)
 3189               	.LVL160:
 3190               	.L276:
 3191 0ddc 88E0      		ldi r24,lo8(8)
 3192               	.LVL161:
 3193 0dde 00C0      		rjmp .L267
 3194               	.LVL162:
 3195               	.L249:
 3196               	.LBB689:
 3197               	.LBB690:
 3198               	.LM490:
 3199 0de0 8091 010A 		lds r24,2561
 3200               	.LVL163:
 3201 0de4 8F7B      		andi r24,lo8(-65)
 3202 0de6 E0E0      		ldi r30,lo8(2560)
 3203 0de8 FAE0      		ldi r31,hi8(2560)
 3204 0dea 8183      		std Z+1,r24
 3205               	.LBE690:
 3206               	.LBE689:
 3207               	.LM491:
 3208 0dec E0E8      		ldi r30,lo8(1664)
 3209 0dee F6E0      		ldi r31,hi8(1664)
 3210               	.LVL164:
 3211               	.L275:
 3212 0df0 84E0      		ldi r24,lo8(4)
 3213               	.LVL165:
 3214               	.L267:
 3215 0df2 8183      		std Z+1,r24
 3216               	.LM492:
 3217 0df4 6623      		tst r22
 3218 0df6 01F4      		brne .L265
 3219               	.L262:
 3220               	.LM493:
 3221 0df8 8683      		std Z+6,r24
 3222 0dfa 0895      		ret
 3223               	.LVL166:
 3224               	.L280:
 3225               	.LBB691:
 3226               	.LBB692:
 3227               	.LM494:
 3228 0dfc 8091 010A 		lds r24,2561
 3229               	.LVL167:
 3230 0e00 8F77      		andi r24,lo8(127)
 3231 0e02 E0E0      		ldi r30,lo8(2560)
 3232 0e04 FAE0      		ldi r31,hi8(2560)
 3233 0e06 8183      		std Z+1,r24
 3234               	.LBE692:
 3235               	.LBE691:
 3236               	.LM495:
 3237 0e08 E0E8      		ldi r30,lo8(1664)
 3238 0e0a F6E0      		ldi r31,hi8(1664)
 3239 0e0c 88E0      		ldi r24,lo8(8)
 3240 0e0e 8183      		std Z+1,r24
 3241               	.LM496:
 3242 0e10 6623      		tst r22
 3243 0e12 01F0      		breq .L263
 3244               	.L265:
 3245               	.LM497:
 3246 0e14 8583      		std Z+5,r24
 3247 0e16 0895      		ret
 3248               	.L263:
 3249               	.LM498:
 3250 0e18 8683      		std Z+6,r24
 3251               	.LVL168:
 3252               	.L264:
 3253 0e1a 0895      		ret
 3254               	.LFE67:
 3256               	.global	read_input
 3258               	read_input:
 3259               	.LFB68:
 3260               	.LM499:
 3261               	.LVL169:
 3262               	/* prologue: function */
 3263               	/* frame size = 0 */
 3264               	.LM500:
 3265 0e1c 8433      		cpi r24,lo8(52)
 3266 0e1e 01F4      		brne .+2
 3267 0e20 00C0      		rjmp .L287
 3268 0e22 8533      		cpi r24,lo8(53)
 3269 0e24 00F4      		brsh .L293
 3270 0e26 8133      		cpi r24,lo8(49)
 3271 0e28 01F0      		breq .L284
 3272 0e2a 8233      		cpi r24,lo8(50)
 3273 0e2c 00F4      		brsh .L294
 3274 0e2e 8033      		cpi r24,lo8(48)
 3275 0e30 01F4      		brne .L282
 3276 0e32 00C0      		rjmp .L300
 3277               	.L294:
 3278 0e34 8233      		cpi r24,lo8(50)
 3279 0e36 01F0      		breq .L285
 3280 0e38 8333      		cpi r24,lo8(51)
 3281 0e3a 01F4      		brne .L282
 3282 0e3c 00C0      		rjmp .L301
 3283               	.L293:
 3284 0e3e 8733      		cpi r24,lo8(55)
 3285 0e40 01F4      		brne .+2
 3286 0e42 00C0      		rjmp .L290
 3287 0e44 8833      		cpi r24,lo8(56)
 3288 0e46 00F4      		brsh .L295
 3289 0e48 8533      		cpi r24,lo8(53)
 3290 0e4a 01F0      		breq .L288
 3291 0e4c 8633      		cpi r24,lo8(54)
 3292 0e4e 01F4      		brne .L282
 3293 0e50 00C0      		rjmp .L302
 3294               	.L295:
 3295 0e52 8833      		cpi r24,lo8(56)
 3296 0e54 01F4      		brne .+2
 3297 0e56 00C0      		rjmp .L291
 3298 0e58 8933      		cpi r24,lo8(57)
 3299 0e5a 01F4      		brne .+2
 3300 0e5c 00C0      		rjmp .L292
 3301               	.L282:
 3302 0e5e 80ED      		ldi r24,lo8(-48)
 3303               	.LVL170:
 3304 0e60 0895      		ret
 3305               	.LVL171:
 3306               	.L300:
 3307               	.LM501:
 3308 0e62 81E0      		ldi r24,lo8(1)
 3309               	.LVL172:
 3310 0e64 E0E0      		ldi r30,lo8(1536)
 3311 0e66 F6E0      		ldi r31,hi8(1536)
 3312 0e68 8283      		std Z+2,r24
 3313               	.LM502:
 3314 0e6a 8091 0806 		lds r24,1544
 3315 0e6e 8170      		andi r24,lo8(1)
 3316 0e70 0895      		ret
 3317               	.LVL173:
 3318               	.L284:
 3319               	.LM503:
 3320 0e72 82E0      		ldi r24,lo8(2)
 3321               	.LVL174:
 3322 0e74 E0E0      		ldi r30,lo8(1536)
 3323 0e76 F6E0      		ldi r31,hi8(1536)
 3324 0e78 8283      		std Z+2,r24
 3325               	.LM504:
 3326 0e7a 8091 0806 		lds r24,1544
 3327 0e7e 90E0      		ldi r25,lo8(0)
 3328 0e80 8270      		andi r24,lo8(2)
 3329 0e82 9070      		andi r25,hi8(2)
 3330 0e84 9595      		asr r25
 3331 0e86 8795      		ror r24
 3332 0e88 0895      		ret
 3333               	.LVL175:
 3334               	.L285:
 3335               	.LM505:
 3336 0e8a 84E0      		ldi r24,lo8(4)
 3337               	.LVL176:
 3338 0e8c E0E0      		ldi r30,lo8(1536)
 3339 0e8e F6E0      		ldi r31,hi8(1536)
 3340 0e90 8283      		std Z+2,r24
 3341               	.LM506:
 3342 0e92 8091 0806 		lds r24,1544
 3343 0e96 00C0      		rjmp .L298
 3344               	.LVL177:
 3345               	.L301:
 3346               	.LM507:
 3347 0e98 88E0      		ldi r24,lo8(8)
 3348               	.LVL178:
 3349 0e9a E0E0      		ldi r30,lo8(1536)
 3350 0e9c F6E0      		ldi r31,hi8(1536)
 3351 0e9e 8283      		std Z+2,r24
 3352               	.LM508:
 3353 0ea0 8091 0806 		lds r24,1544
 3354 0ea4 00C0      		rjmp .L299
 3355               	.LVL179:
 3356               	.L287:
 3357               	.LM509:
 3358 0ea6 80E1      		ldi r24,lo8(16)
 3359               	.LVL180:
 3360 0ea8 E0E0      		ldi r30,lo8(1536)
 3361 0eaa F6E0      		ldi r31,hi8(1536)
 3362 0eac 8283      		std Z+2,r24
 3363               	.LM510:
 3364 0eae 8091 0806 		lds r24,1544
 3365 0eb2 90E0      		ldi r25,lo8(0)
 3366 0eb4 8071      		andi r24,lo8(16)
 3367 0eb6 9070      		andi r25,hi8(16)
 3368 0eb8 B4E0      		ldi r27,4
 3369 0eba 9595      	1:	asr r25
 3370 0ebc 8795      		ror r24
 3371 0ebe BA95      		dec r27
 3372 0ec0 01F4      		brne 1b
 3373 0ec2 0895      		ret
 3374               	.LVL181:
 3375               	.L288:
 3376               	.LM511:
 3377 0ec4 80E2      		ldi r24,lo8(32)
 3378               	.LVL182:
 3379 0ec6 E0E0      		ldi r30,lo8(1536)
 3380 0ec8 F6E0      		ldi r31,hi8(1536)
 3381 0eca 8283      		std Z+2,r24
 3382               	.LM512:
 3383 0ecc 8091 0806 		lds r24,1544
 3384 0ed0 90E0      		ldi r25,lo8(0)
 3385 0ed2 8072      		andi r24,lo8(32)
 3386 0ed4 9070      		andi r25,hi8(32)
 3387 0ed6 A5E0      		ldi r26,5
 3388 0ed8 9595      	1:	asr r25
 3389 0eda 8795      		ror r24
 3390 0edc AA95      		dec r26
 3391 0ede 01F4      		brne 1b
 3392 0ee0 0895      		ret
 3393               	.LVL183:
 3394               	.L302:
 3395               	.LBB693:
 3396               	.LBB694:
 3397               	.LM513:
 3398 0ee2 8091 2003 		lds r24,800
 3399               	.LVL184:
 3400 0ee6 8B7F      		andi r24,lo8(-5)
 3401 0ee8 8093 2003 		sts 800,r24
 3402               	.LBE694:
 3403               	.LBE693:
 3404               	.LM514:
 3405 0eec 84E0      		ldi r24,lo8(4)
 3406 0eee E0E2      		ldi r30,lo8(1568)
 3407 0ef0 F6E0      		ldi r31,hi8(1568)
 3408 0ef2 8283      		std Z+2,r24
 3409               	.LM515:
 3410 0ef4 8091 2806 		lds r24,1576
 3411 0ef8 00C0      		rjmp .L298
 3412               	.LVL185:
 3413               	.L290:
 3414               	.LBB695:
 3415               	.LBB696:
 3416               	.LM516:
 3417 0efa 8091 2003 		lds r24,800
 3418               	.LVL186:
 3419 0efe 877F      		andi r24,lo8(-9)
 3420 0f00 8093 2003 		sts 800,r24
 3421               	.LBE696:
 3422               	.LBE695:
 3423               	.LM517:
 3424 0f04 88E0      		ldi r24,lo8(8)
 3425 0f06 E0E2      		ldi r30,lo8(1568)
 3426 0f08 F6E0      		ldi r31,hi8(1568)
 3427 0f0a 8283      		std Z+2,r24
 3428               	.LM518:
 3429 0f0c 8091 2806 		lds r24,1576
 3430               	.L299:
 3431 0f10 90E0      		ldi r25,lo8(0)
 3432 0f12 8870      		andi r24,lo8(8)
 3433 0f14 9070      		andi r25,hi8(8)
 3434 0f16 F3E0      		ldi r31,3
 3435 0f18 9595      	1:	asr r25
 3436 0f1a 8795      		ror r24
 3437 0f1c FA95      		dec r31
 3438 0f1e 01F4      		brne 1b
 3439 0f20 0895      		ret
 3440               	.LVL187:
 3441               	.L291:
 3442               	.LBB697:
 3443               	.LBB698:
 3444               	.LM519:
 3445 0f22 8091 010A 		lds r24,2561
 3446               	.LVL188:
 3447 0f26 8F7B      		andi r24,lo8(-65)
 3448 0f28 E0E0      		ldi r30,lo8(2560)
 3449 0f2a FAE0      		ldi r31,hi8(2560)
 3450 0f2c 8183      		std Z+1,r24
 3451               	.LBE698:
 3452               	.LBE697:
 3453               	.LM520:
 3454 0f2e 84E0      		ldi r24,lo8(4)
 3455 0f30 E0E8      		ldi r30,lo8(1664)
 3456 0f32 F6E0      		ldi r31,hi8(1664)
 3457 0f34 8283      		std Z+2,r24
 3458               	.LM521:
 3459 0f36 8091 8806 		lds r24,1672
 3460               	.L298:
 3461 0f3a 90E0      		ldi r25,lo8(0)
 3462 0f3c 8470      		andi r24,lo8(4)
 3463 0f3e 9070      		andi r25,hi8(4)
 3464 0f40 9595      		asr r25
 3465 0f42 8795      		ror r24
 3466 0f44 9595      		asr r25
 3467 0f46 8795      		ror r24
 3468 0f48 0895      		ret
 3469               	.LVL189:
 3470               	.L292:
 3471               	.LBB699:
 3472               	.LBB700:
 3473               	.LM522:
 3474 0f4a 8091 010A 		lds r24,2561
 3475               	.LVL190:
 3476 0f4e 8F77      		andi r24,lo8(127)
 3477 0f50 E0E0      		ldi r30,lo8(2560)
 3478 0f52 FAE0      		ldi r31,hi8(2560)
 3479 0f54 8183      		std Z+1,r24
 3480               	.LBE700:
 3481               	.LBE699:
 3482               	.LM523:
 3483 0f56 88E0      		ldi r24,lo8(8)
 3484 0f58 E0E8      		ldi r30,lo8(1664)
 3485 0f5a F6E0      		ldi r31,hi8(1664)
 3486 0f5c 8283      		std Z+2,r24
 3487               	.LM524:
 3488 0f5e 8091 8806 		lds r24,1672
 3489 0f62 90E0      		ldi r25,lo8(0)
 3490 0f64 8870      		andi r24,lo8(8)
 3491 0f66 9070      		andi r25,hi8(8)
 3492 0f68 73E0      		ldi r23,3
 3493 0f6a 9595      	1:	asr r25
 3494 0f6c 8795      		ror r24
 3495 0f6e 7A95      		dec r23
 3496 0f70 01F4      		brne 1b
 3497               	.LM525:
 3498 0f72 0895      		ret
 3499               	.LFE68:
 3501               	.global	init_ir_read
 3503               	init_ir_read:
 3504               	.LFB69:
 3505               	.LM526:
 3506               	/* prologue: function */
 3507               	/* frame size = 0 */
 3508               	.LM527:
 3509 0f74 81E0      		ldi r24,lo8(1)
 3510 0f76 8093 0000 		sts ir_read_flag,r24
 3511               	.LM528:
 3512 0f7a A0E0      		ldi r26,lo8(2560)
 3513 0f7c BAE0      		ldi r27,hi8(2560)
 3514 0f7e 85E0      		ldi r24,lo8(5)
 3515 0f80 8C93      		st X,r24
 3516               	.LM529:
 3517 0f82 90E1      		ldi r25,lo8(16)
 3518 0f84 1196      		adiw r26,1
 3519 0f86 9C93      		st X,r25
 3520 0f88 1197      		sbiw r26,1
 3521               	.LM530:
 3522 0f8a 88E2      		ldi r24,lo8(40)
 3523 0f8c 1396      		adiw r26,3
 3524 0f8e 8C93      		st X,r24
 3525 0f90 1397      		sbiw r26,3
 3526               	.LM531:
 3527 0f92 E0E4      		ldi r30,lo8(1600)
 3528 0f94 F6E0      		ldi r31,hi8(1600)
 3529 0f96 9283      		std Z+2,r25
 3530               	.LM532:
 3531 0f98 8489      		ldd r24,Z+20
 3532 0f9a 8064      		ori r24,lo8(64)
 3533 0f9c 848B      		std Z+20,r24
 3534               	.LM533:
 3535 0f9e 84E6      		ldi r24,lo8(100)
 3536 0fa0 8093 8001 		sts 384,r24
 3537               	.LM534:
 3538 0fa4 80E4      		ldi r24,lo8(8000)
 3539 0fa6 9FE1      		ldi r25,hi8(8000)
 3540 0fa8 D696      		adiw r26,54
 3541 0faa 8D93      		st X+,r24
 3542 0fac 9C93      		st X,r25
 3543 0fae D797      		sbiw r26,54+1
 3544               	.LM535:
 3545 0fb0 1092 0000 		sts signal_count,__zero_reg__
 3546               	.LM536:
 3547 0fb4 1092 0000 		sts ir_read_time_out,__zero_reg__
 3548               	.LM537:
 3549 0fb8 83E0      		ldi r24,lo8(3)
 3550 0fba 1696      		adiw r26,6
 3551 0fbc 8C93      		st X,r24
 3552 0fbe 1697      		sbiw r26,6
 3553               	.LM538:
 3554 0fc0 1796      		adiw r26,7
 3555 0fc2 8C93      		st X,r24
 3556               	.LM539:
 3557 0fc4 E0EA      		ldi r30,lo8(160)
 3558 0fc6 F0E0      		ldi r31,hi8(160)
 3559 0fc8 8281      		ldd r24,Z+2
 3560 0fca 8460      		ori r24,lo8(4)
 3561 0fcc 8283      		std Z+2,r24
 3562               	/* epilogue start */
 3563               	.LM540:
 3564 0fce 0895      		ret
 3565               	.LFE69:
 3567               	.global	ir_fail
 3569               	ir_fail:
 3570               	.LFB72:
 3571               	.LM541:
 3572               	/* prologue: function */
 3573               	/* frame size = 0 */
 3574               	.L306:
 3575               	.LBB701:
 3576               	.LBB702:
 3577               	.LM542:
 3578 0fd0 8091 B109 		lds r24,2481
 3579 0fd4 85FF      		sbrs r24,5
 3580 0fd6 00C0      		rjmp .L306
 3581               	.LM543:
 3582 0fd8 85E4      		ldi r24,lo8(69)
 3583 0fda 8093 B009 		sts 2480,r24
 3584               	.L307:
 3585               	.LBE702:
 3586               	.LBE701:
 3587               	.LBB703:
 3588               	.LBB704:
 3589               	.LM544:
 3590 0fde 8091 B109 		lds r24,2481
 3591 0fe2 85FF      		sbrs r24,5
 3592 0fe4 00C0      		rjmp .L307
 3593               	.LM545:
 3594 0fe6 82E5      		ldi r24,lo8(82)
 3595 0fe8 8093 B009 		sts 2480,r24
 3596               	.L308:
 3597               	.LBE704:
 3598               	.LBE703:
 3599               	.LBB705:
 3600               	.LBB706:
 3601               	.LM546:
 3602 0fec 8091 B109 		lds r24,2481
 3603 0ff0 85FF      		sbrs r24,5
 3604 0ff2 00C0      		rjmp .L308
 3605               	.LM547:
 3606 0ff4 82E5      		ldi r24,lo8(82)
 3607 0ff6 8093 B009 		sts 2480,r24
 3608               	.LBE706:
 3609               	.LBE705:
 3610               	.LM548:
 3611 0ffa 1092 0000 		sts ir_read_flag,__zero_reg__
 3612               	/* epilogue start */
 3613               	.LM549:
 3614 0ffe 0895      		ret
 3615               	.LFE72:
 3617               	.global	disable_ir_read
 3619               	disable_ir_read:
 3620               	.LFB73:
 3621               	.LM550:
 3622               	/* prologue: function */
 3623               	/* frame size = 0 */
 3624               	.LM551:
 3625 1000 E0E0      		ldi r30,lo8(2560)
 3626 1002 FAE0      		ldi r31,hi8(2560)
 3627 1004 1682      		std Z+6,__zero_reg__
 3628               	.LM552:
 3629 1006 1782      		std Z+7,__zero_reg__
 3630               	.LM553:
 3631 1008 1092 8001 		sts 384,__zero_reg__
 3632               	.LM554:
 3633 100c 1382      		std Z+3,__zero_reg__
 3634               	.LM555:
 3635 100e 1182      		std Z+1,__zero_reg__
 3636               	.LM556:
 3637 1010 1082      		st Z,__zero_reg__
 3638               	/* epilogue start */
 3639               	.LM557:
 3640 1012 0895      		ret
 3641               	.LFE73:
 3643               	.global	dump_data
 3645               	dump_data:
 3646               	.LFB74:
 3647               	.LM558:
 3648               	/* prologue: function */
 3649               	/* frame size = 0 */
 3650               	.LM559:
 3651 1014 8091 0000 		lds r24,signal_count
 3652 1018 8530      		cpi r24,lo8(5)
 3653 101a 00F0      		brlo .L316
 3654               	.LM560:
 3655 101c 9091 0000 		lds r25,signal_count
 3656               	.L317:
 3657               	.LBB707:
 3658               	.LBB708:
 3659               	.LM561:
 3660 1020 8091 B109 		lds r24,2481
 3661 1024 85FF      		sbrs r24,5
 3662 1026 00C0      		rjmp .L317
 3663               	.LBE708:
 3664               	.LBE707:
 3665               	.LM562:
 3666 1028 9150      		subi r25,lo8(-(-1))
 3667               	.LBB710:
 3668               	.LBB709:
 3669               	.LM563:
 3670 102a 9093 B009 		sts 2480,r25
 3671 102e 92E0      		ldi r25,lo8(2)
 3672               	.LVL191:
 3673 1030 00C0      		rjmp .L318
 3674               	.L320:
 3675               	.LBE709:
 3676               	.LBE710:
 3677               	.LBB711:
 3678               	.LM564:
 3679 1032 E92F      		mov r30,r25
 3680 1034 F0E0      		ldi r31,lo8(0)
 3681 1036 E050      		subi r30,lo8(-(captured_signal))
 3682 1038 F040      		sbci r31,hi8(-(captured_signal))
 3683 103a E081      		ld r30,Z
 3684               	.L319:
 3685               	.LBB712:
 3686               	.LBB713:
 3687               	.LM565:
 3688 103c 8091 B109 		lds r24,2481
 3689 1040 85FF      		sbrs r24,5
 3690 1042 00C0      		rjmp .L319
 3691               	.LM566:
 3692 1044 E093 B009 		sts 2480,r30
 3693               	.LBE713:
 3694               	.LBE712:
 3695               	.LM567:
 3696 1048 9F5F      		subi r25,lo8(-(1))
 3697               	.L318:
 3698 104a 8091 0000 		lds r24,signal_count
 3699 104e 9817      		cp r25,r24
 3700 1050 00F0      		brlo .L320
 3701               	.LBE711:
 3702               	.LM568:
 3703 1052 1092 0000 		sts ir_read_flag,__zero_reg__
 3704 1056 0895      		ret
 3705               	.LVL192:
 3706               	.L316:
 3707               	.LM569:
 3708 1058 0E94 0000 		call ir_fail
 3709 105c 0895      		ret
 3710               	.LFE74:
 3712               	.global	__vector_47
 3714               	__vector_47:
 3715               	.LFB71:
 3716               	.LM570:
 3717 105e 1F92      		push __zero_reg__
 3718 1060 0F92      		push r0
 3719 1062 0FB6      		in r0,__SREG__
 3720 1064 0F92      		push r0
 3721 1066 1124      		clr __zero_reg__
 3722 1068 2F93      		push r18
 3723 106a 3F93      		push r19
 3724 106c 4F93      		push r20
 3725 106e 5F93      		push r21
 3726 1070 6F93      		push r22
 3727 1072 7F93      		push r23
 3728 1074 8F93      		push r24
 3729 1076 9F93      		push r25
 3730 1078 AF93      		push r26
 3731 107a BF93      		push r27
 3732 107c EF93      		push r30
 3733 107e FF93      		push r31
 3734               	/* prologue: Signal */
 3735               	/* frame size = 0 */
 3736               	.LM571:
 3737 1080 8091 0000 		lds r24,signal_count
 3738 1084 8823      		tst r24
 3739 1086 01F0      		breq .L326
 3740               	.LM572:
 3741 1088 0E94 0000 		call disable_ir_read
 3742               	.LM573:
 3743 108c 0E94 0000 		call dump_data
 3744 1090 00C0      		rjmp .L328
 3745               	.L326:
 3746               	.LM574:
 3747 1092 8091 0000 		lds r24,ir_read_time_out
 3748 1096 8F5F      		subi r24,lo8(-(1))
 3749 1098 8093 0000 		sts ir_read_time_out,r24
 3750               	.LM575:
 3751 109c 8091 0000 		lds r24,ir_read_time_out
 3752 10a0 8B3F      		cpi r24,lo8(-5)
 3753 10a2 00F0      		brlo .L328
 3754               	.LM576:
 3755 10a4 0E94 0000 		call disable_ir_read
 3756               	.LM577:
 3757 10a8 0E94 0000 		call ir_fail
 3758               	.L328:
 3759               	/* epilogue start */
 3760               	.LM578:
 3761 10ac FF91      		pop r31
 3762 10ae EF91      		pop r30
 3763 10b0 BF91      		pop r27
 3764 10b2 AF91      		pop r26
 3765 10b4 9F91      		pop r25
 3766 10b6 8F91      		pop r24
 3767 10b8 7F91      		pop r23
 3768 10ba 6F91      		pop r22
 3769 10bc 5F91      		pop r21
 3770 10be 4F91      		pop r20
 3771 10c0 3F91      		pop r19
 3772 10c2 2F91      		pop r18
 3773 10c4 0F90      		pop r0
 3774 10c6 0FBE      		out __SREG__,r0
 3775 10c8 0F90      		pop r0
 3776 10ca 1F90      		pop __zero_reg__
 3777 10cc 1895      		reti
 3778               	.LFE71:
 3780               	.global	__vector_49
 3782               	__vector_49:
 3783               	.LFB70:
 3784               	.LM579:
 3785 10ce 1F92      		push __zero_reg__
 3786 10d0 0F92      		push r0
 3787 10d2 0FB6      		in r0,__SREG__
 3788 10d4 0F92      		push r0
 3789 10d6 1124      		clr __zero_reg__
 3790 10d8 2F93      		push r18
 3791 10da 3F93      		push r19
 3792 10dc 4F93      		push r20
 3793 10de 5F93      		push r21
 3794 10e0 6F93      		push r22
 3795 10e2 7F93      		push r23
 3796 10e4 8F93      		push r24
 3797 10e6 9F93      		push r25
 3798 10e8 AF93      		push r26
 3799 10ea BF93      		push r27
 3800 10ec EF93      		push r30
 3801 10ee FF93      		push r31
 3802               	/* prologue: Signal */
 3803               	/* frame size = 0 */
 3804               	.LM580:
 3805 10f0 E0E0      		ldi r30,lo8(2560)
 3806 10f2 FAE0      		ldi r31,hi8(2560)
 3807 10f4 10A2      		std Z+32,__zero_reg__
 3808 10f6 11A2      		std Z+33,__zero_reg__
 3809               	.LM581:
 3810 10f8 8091 0000 		lds r24,signal_count
 3811 10fc 803C      		cpi r24,lo8(-64)
 3812 10fe 00F0      		brlo .L330
 3813               	.LM582:
 3814 1100 0E94 0000 		call disable_ir_read
 3815               	.LM583:
 3816 1104 0E94 0000 		call ir_fail
 3817 1108 00C0      		rjmp .L334
 3818               	.L330:
 3819               	.LM584:
 3820 110a E091 0000 		lds r30,signal_count
 3821 110e F0E0      		ldi r31,lo8(0)
 3822 1110 8091 280A 		lds r24,2600
 3823 1114 E050      		subi r30,lo8(-(captured_signal+1))
 3824 1116 F040      		sbci r31,hi8(-(captured_signal+1))
 3825 1118 8083      		st Z,r24
 3826               	.LM585:
 3827 111a E091 0000 		lds r30,signal_count
 3828 111e F0E0      		ldi r31,lo8(0)
 3829 1120 8091 290A 		lds r24,2601
 3830 1124 8F77      		andi r24,lo8(127)
 3831 1126 E050      		subi r30,lo8(-(captured_signal))
 3832 1128 F040      		sbci r31,hi8(-(captured_signal))
 3833 112a 8083      		st Z,r24
 3834               	.LM586:
 3835 112c E091 0000 		lds r30,signal_count
 3836 1130 F0E0      		ldi r31,lo8(0)
 3837 1132 E050      		subi r30,lo8(-(captured_signal+1))
 3838 1134 F040      		sbci r31,hi8(-(captured_signal+1))
 3839 1136 8081      		ld r24,Z
 3840 1138 8034      		cpi r24,lo8(64)
 3841 113a 00F4      		brsh .L332
 3842 113c E091 0000 		lds r30,signal_count
 3843 1140 F0E0      		ldi r31,lo8(0)
 3844 1142 E050      		subi r30,lo8(-(captured_signal))
 3845 1144 F040      		sbci r31,hi8(-(captured_signal))
 3846 1146 8081      		ld r24,Z
 3847 1148 8823      		tst r24
 3848 114a 01F4      		brne .L332
 3849               	.LM587:
 3850 114c 1092 0000 		sts signal_count,__zero_reg__
 3851               	.L332:
 3852               	.LM588:
 3853 1150 8091 0000 		lds r24,signal_count
 3854 1154 E091 0000 		lds r30,signal_count
 3855 1158 F0E0      		ldi r31,lo8(0)
 3856 115a E050      		subi r30,lo8(-(captured_signal))
 3857 115c F040      		sbci r31,hi8(-(captured_signal))
 3858 115e E081      		ld r30,Z
 3859 1160 8131      		cpi r24,lo8(17)
 3860 1162 00F0      		brlo .L333
 3861 1164 E131      		cpi r30,lo8(17)
 3862 1166 00F0      		brlo .L333
 3863               	.LM589:
 3864 1168 0E94 0000 		call disable_ir_read
 3865               	.LM590:
 3866 116c 0E94 0000 		call dump_data
 3867 1170 00C0      		rjmp .L334
 3868               	.L333:
 3869               	.LM591:
 3870 1172 8091 0000 		lds r24,signal_count
 3871 1176 8E5F      		subi r24,lo8(-(2))
 3872 1178 8093 0000 		sts signal_count,r24
 3873               	.L334:
 3874               	/* epilogue start */
 3875               	.LM592:
 3876 117c FF91      		pop r31
 3877 117e EF91      		pop r30
 3878 1180 BF91      		pop r27
 3879 1182 AF91      		pop r26
 3880 1184 9F91      		pop r25
 3881 1186 8F91      		pop r24
 3882 1188 7F91      		pop r23
 3883 118a 6F91      		pop r22
 3884 118c 5F91      		pop r21
 3885 118e 4F91      		pop r20
 3886 1190 3F91      		pop r19
 3887 1192 2F91      		pop r18
 3888 1194 0F90      		pop r0
 3889 1196 0FBE      		out __SREG__,r0
 3890 1198 0F90      		pop r0
 3891 119a 1F90      		pop __zero_reg__
 3892 119c 1895      		reti
 3893               	.LFE70:
 3895               	.global	read_data_from_serial
 3897               	read_data_from_serial:
 3898               	.LFB78:
 3899               	.LM593:
 3900 119e EF92      		push r14
 3901 11a0 FF92      		push r15
 3902 11a2 1F93      		push r17
 3903 11a4 CF93      		push r28
 3904 11a6 DF93      		push r29
 3905               	/* prologue: function */
 3906               	/* frame size = 0 */
 3907               	.LM594:
 3908 11a8 80EB      		ldi r24,lo8(2480)
 3909 11aa 99E0      		ldi r25,hi8(2480)
 3910 11ac 0E94 0000 		call uart_getchar_timeout
 3911 11b0 9C01      		movw r18,r24
 3912               	.LVL193:
 3913               	.LM595:
 3914 11b2 182F      		mov r17,r24
 3915               	.LVL194:
 3916               	.L336:
 3917               	.LBB714:
 3918               	.LBB715:
 3919               	.LM596:
 3920 11b4 8091 B109 		lds r24,2481
 3921               	.LVL195:
 3922 11b8 85FF      		sbrs r24,5
 3923 11ba 00C0      		rjmp .L336
 3924               	.LM597:
 3925 11bc 1093 B009 		sts 2480,r17
 3926 11c0 C0E0      		ldi r28,lo8(0)
 3927 11c2 D0E0      		ldi r29,hi8(0)
 3928               	.LVL196:
 3929               	.LBE715:
 3930               	.LBE714:
 3931               	.LBB716:
 3932               	.LM598:
 3933 11c4 7901      		movw r14,r18
 3934 11c6 0894      		sec
 3935 11c8 E108      		sbc r14,__zero_reg__
 3936 11ca F108      		sbc r15,__zero_reg__
 3937 11cc 00C0      		rjmp .L337
 3938               	.L341:
 3939               	.LM599:
 3940 11ce 80EB      		ldi r24,lo8(2480)
 3941 11d0 99E0      		ldi r25,hi8(2480)
 3942 11d2 0E94 0000 		call uart_getchar_timeout
 3943               	.LVL197:
 3944               	.LM600:
 3945 11d6 21E0      		ldi r18,hi8(256)
 3946 11d8 8030      		cpi r24,lo8(256)
 3947 11da 9207      		cpc r25,r18
 3948               	.LVL198:
 3949 11dc 01F4      		brne .L338
 3950 11de 20E0      		ldi r18,lo8(0)
 3951 11e0 30E0      		ldi r19,hi8(0)
 3952 11e2 00C0      		rjmp .L339
 3953               	.L338:
 3954               	.LM601:
 3955 11e4 982F      		mov r25,r24
 3956               	.L340:
 3957               	.LBB717:
 3958               	.LBB718:
 3959               	.LM602:
 3960 11e6 8091 B109 		lds r24,2481
 3961               	.LVL199:
 3962 11ea 85FF      		sbrs r24,5
 3963 11ec 00C0      		rjmp .L340
 3964               	.LM603:
 3965 11ee 9093 B009 		sts 2480,r25
 3966               	.LBE718:
 3967               	.LBE717:
 3968               	.LM604:
 3969 11f2 FE01      		movw r30,r28
 3970 11f4 E050      		subi r30,lo8(-(robotData))
 3971 11f6 F040      		sbci r31,hi8(-(robotData))
 3972 11f8 94A7      		std Z+44,r25
 3973               	.LM605:
 3974 11fa 2196      		adiw r28,1
 3975               	.LVL200:
 3976               	.L337:
 3977 11fc CE15      		cp r28,r14
 3978 11fe DF05      		cpc r29,r15
 3979 1200 04F0      		brlt .L341
 3980               	.LBE716:
 3981               	.LM606:
 3982 1202 1150      		subi r17,lo8(-(-1))
 3983 1204 1093 0000 		sts robotData+36,r17
 3984 1208 21E0      		ldi r18,lo8(1)
 3985 120a 30E0      		ldi r19,hi8(1)
 3986               	.LVL201:
 3987               	.L339:
 3988               	.LM607:
 3989 120c C901      		movw r24,r18
 3990               	.LVL202:
 3991               	/* epilogue start */
 3992 120e DF91      		pop r29
 3993 1210 CF91      		pop r28
 3994               	.LVL203:
 3995 1212 1F91      		pop r17
 3996 1214 FF90      		pop r15
 3997 1216 EF90      		pop r14
 3998 1218 0895      		ret
 3999               	.LFE78:
 4001               	.global	EEPROM_ReadByte
 4003               	EEPROM_ReadByte:
 4004               	.LFB80:
 4005               	.LM608:
 4006               	.LVL204:
 4007               	/* prologue: function */
 4008               	/* frame size = 0 */
 4009 121a 982F      		mov r25,r24
 4010               	.LVL205:
 4011               	.L346:
 4012               	.LBB719:
 4013               	.LBB720:
 4014               	.LM609:
 4015 121c E0EC      		ldi r30,lo8(448)
 4016 121e F1E0      		ldi r31,hi8(448)
 4017 1220 8091 CF01 		lds r24,463
 4018 1224 87FD      		sbrc r24,7
 4019 1226 00C0      		rjmp .L346
 4020               	.LBE720:
 4021               	.LBE719:
 4022               	.LM610:
 4023 1228 262F      		mov r18,r22
 4024               	.LVL206:
 4025 122a 30E0      		ldi r19,lo8(0)
 4026               	.LVL207:
 4027 122c 2F71      		andi r18,lo8(31)
 4028 122e 3070      		andi r19,hi8(31)
 4029               	.LVL208:
 4030 1230 892F      		mov r24,r25
 4031 1232 90E0      		ldi r25,lo8(0)
 4032               	.LVL209:
 4033 1234 45E0      		ldi r20,5
 4034 1236 880F      	1:	lsl r24
 4035 1238 991F      		rol r25
 4036 123a 4A95      		dec r20
 4037 123c 01F4      		brne 1b
 4038               	.LVL210:
 4039 123e 282B      		or r18,r24
 4040 1240 392B      		or r19,r25
 4041               	.LM611:
 4042 1242 2093 C001 		sts 448,r18
 4043               	.LM612:
 4044 1246 832F      		mov r24,r19
 4045               	.LVL211:
 4046 1248 8F71      		andi r24,lo8(31)
 4047 124a 8183      		std Z+1,r24
 4048               	.LM613:
 4049 124c 1282      		std Z+2,__zero_reg__
 4050               	.LM614:
 4051 124e 86E0      		ldi r24,lo8(6)
 4052 1250 8287      		std Z+10,r24
 4053               	.LM615:
 4054               	/* #APP */
 4055               	 ;  129 "eeprom_driver.c" 1
 4056 1252 EF93      		push r30
 4057 1254 FF93      		push r31
 4058 1256 0F93      		push r16
 4059 1258 2F93      		push r18
 4060 125a EBEC      		ldi r30, 0xCB
 4061 125c F1E0      		ldi r31, 0x01
 4062 125e 08ED      		ldi r16, 0xD8
 4063 1260 21E0      		ldi r18, 0x01
 4064 1262 04BF      		out 0x34, r16
 4065 1264 2083      		st Z, r18
 4066 1266 2F91      		pop r18
 4067 1268 0F91      		pop r16
 4068 126a FF91      		pop r31
 4069 126c EF91      		pop r30
 4070               		
 4071               	 ;  0 "" 2
 4072               	.LM616:
 4073               	/* #NOAPP */
 4074 126e 8091 C401 		lds r24,452
 4075               	/* epilogue start */
 4076               	.LM617:
 4077 1272 0895      		ret
 4078               	.LFE80:
 4080               	.global	print_data_from_eeprom
 4082               	print_data_from_eeprom:
 4083               	.LFB77:
 4084               	.LM618:
 4085               	.LVL212:
 4086 1274 AF92      		push r10
 4087 1276 BF92      		push r11
 4088 1278 CF92      		push r12
 4089 127a DF92      		push r13
 4090 127c EF92      		push r14
 4091 127e FF92      		push r15
 4092 1280 0F93      		push r16
 4093 1282 1F93      		push r17
 4094 1284 CF93      		push r28
 4095 1286 DF93      		push r29
 4096               	/* prologue: function */
 4097               	/* frame size = 0 */
 4098               	.LM619:
 4099 1288 9C01      		movw r18,r24
 4100 128a 220F      		lsl r18
 4101 128c 331F      		rol r19
 4102 128e 280F      		add r18,r24
 4103 1290 391F      		adc r19,r25
 4104 1292 220F      		lsl r18
 4105 1294 331F      		rol r19
 4106 1296 C22E      		mov r12,r18
 4107 1298 822F      		mov r24,r18
 4108               	.LVL213:
 4109 129a 60E0      		ldi r22,lo8(0)
 4110 129c 0E94 0000 		call EEPROM_ReadByte
 4111 12a0 282F      		mov r18,r24
 4112 12a2 90E0      		ldi r25,lo8(0)
 4113               	.LVL214:
 4114               	.LM620:
 4115 12a4 7C01      		movw r14,r24
 4116               	.LVL215:
 4117 12a6 65E0      		ldi r22,5
 4118 12a8 F594      	1:	asr r15
 4119 12aa E794      		ror r14
 4120 12ac 6A95      		dec r22
 4121 12ae 01F4      		brne 1b
 4122               	.LM621:
 4123 12b0 5FE1      		ldi r21,lo8(31)
 4124 12b2 A52E      		mov r10,r21
 4125 12b4 B12C      		mov r11,__zero_reg__
 4126               	.LVL216:
 4127 12b6 A822      		and r10,r24
 4128 12b8 B922      		and r11,r25
 4129               	.L350:
 4130               	.LBB721:
 4131               	.LBB722:
 4132               	.LM622:
 4133 12ba 8091 B109 		lds r24,2481
 4134               	.LVL217:
 4135 12be 85FF      		sbrs r24,5
 4136 12c0 00C0      		rjmp .L350
 4137               	.LM623:
 4138 12c2 2093 B009 		sts 2480,r18
 4139 12c6 C1E0      		ldi r28,lo8(1)
 4140 12c8 D0E0      		ldi r29,hi8(1)
 4141               	.LVL218:
 4142 12ca 00E0      		ldi r16,lo8(0)
 4143 12cc 10E0      		ldi r17,hi8(0)
 4144               	.LVL219:
 4145 12ce 00C0      		rjmp .L351
 4146               	.L353:
 4147               	.LBE722:
 4148               	.LBE721:
 4149               	.LBB723:
 4150               	.LM624:
 4151 12d0 DC2C      		mov r13,r12
 4152 12d2 D00E      		add r13,r16
 4153               	.L358:
 4154 12d4 8D2D      		mov r24,r13
 4155 12d6 6C2F      		mov r22,r28
 4156 12d8 0E94 0000 		call EEPROM_ReadByte
 4157               	.LVL220:
 4158 12dc 982F      		mov r25,r24
 4159               	.L352:
 4160               	.LBB724:
 4161               	.LBB725:
 4162               	.LM625:
 4163 12de 8091 B109 		lds r24,2481
 4164 12e2 85FF      		sbrs r24,5
 4165 12e4 00C0      		rjmp .L352
 4166               	.LM626:
 4167 12e6 9093 B009 		sts 2480,r25
 4168               	.LBE725:
 4169               	.LBE724:
 4170               	.LM627:
 4171 12ea 2196      		adiw r28,1
 4172               	.LM628:
 4173 12ec C032      		cpi r28,32
 4174 12ee D105      		cpc r29,__zero_reg__
 4175 12f0 04F0      		brlt .L358
 4176               	.LM629:
 4177 12f2 0F5F      		subi r16,lo8(-(1))
 4178 12f4 1F4F      		sbci r17,hi8(-(1))
 4179 12f6 C0E0      		ldi r28,lo8(0)
 4180 12f8 D0E0      		ldi r29,hi8(0)
 4181               	.LVL221:
 4182               	.L351:
 4183 12fa 0E15      		cp r16,r14
 4184 12fc 1F05      		cpc r17,r15
 4185 12fe 04F0      		brlt .L353
 4186 1300 00C0      		rjmp .L365
 4187               	.L356:
 4188               	.LBE723:
 4189               	.LM630:
 4190 1302 812F      		mov r24,r17
 4191 1304 6C2F      		mov r22,r28
 4192 1306 0E94 0000 		call EEPROM_ReadByte
 4193               	.LVL222:
 4194 130a 982F      		mov r25,r24
 4195               	.L355:
 4196               	.LBB726:
 4197               	.LBB727:
 4198               	.LM631:
 4199 130c 8091 B109 		lds r24,2481
 4200 1310 85FF      		sbrs r24,5
 4201 1312 00C0      		rjmp .L355
 4202               	.LM632:
 4203 1314 9093 B009 		sts 2480,r25
 4204               	.LBE727:
 4205               	.LBE726:
 4206               	.LM633:
 4207 1318 2196      		adiw r28,1
 4208 131a 00C0      		rjmp .L364
 4209               	.LVL223:
 4210               	.L365:
 4211               	.LM634:
 4212 131c 1C2D      		mov r17,r12
 4213 131e 1E0D      		add r17,r14
 4214               	.L364:
 4215               	.LM635:
 4216 1320 CA15      		cp r28,r10
 4217 1322 DB05      		cpc r29,r11
 4218 1324 04F0      		brlt .L356
 4219               	/* epilogue start */
 4220               	.LM636:
 4221 1326 DF91      		pop r29
 4222 1328 CF91      		pop r28
 4223               	.LVL224:
 4224 132a 1F91      		pop r17
 4225 132c 0F91      		pop r16
 4226               	.LVL225:
 4227 132e FF90      		pop r15
 4228 1330 EF90      		pop r14
 4229               	.LVL226:
 4230 1332 DF90      		pop r13
 4231 1334 CF90      		pop r12
 4232 1336 BF90      		pop r11
 4233 1338 AF90      		pop r10
 4234               	.LVL227:
 4235 133a 0895      		ret
 4236               	.LFE77:
 4238               	.global	read_data_from_eeprom
 4240               	read_data_from_eeprom:
 4241               	.LFB76:
 4242               	.LM637:
 4243               	.LVL228:
 4244 133c 5F92      		push r5
 4245 133e 6F92      		push r6
 4246 1340 7F92      		push r7
 4247 1342 8F92      		push r8
 4248 1344 9F92      		push r9
 4249 1346 AF92      		push r10
 4250 1348 BF92      		push r11
 4251 134a CF92      		push r12
 4252 134c DF92      		push r13
 4253 134e EF92      		push r14
 4254 1350 FF92      		push r15
 4255 1352 0F93      		push r16
 4256 1354 1F93      		push r17
 4257 1356 CF93      		push r28
 4258 1358 DF93      		push r29
 4259               	/* prologue: function */
 4260               	/* frame size = 0 */
 4261               	.LM638:
 4262 135a 9C01      		movw r18,r24
 4263 135c 220F      		lsl r18
 4264 135e 331F      		rol r19
 4265 1360 280F      		add r18,r24
 4266 1362 391F      		adc r19,r25
 4267 1364 220F      		lsl r18
 4268 1366 331F      		rol r19
 4269 1368 522E      		mov r5,r18
 4270 136a 822F      		mov r24,r18
 4271               	.LVL229:
 4272 136c 60E0      		ldi r22,lo8(0)
 4273 136e 0E94 0000 		call EEPROM_ReadByte
 4274 1372 B82E      		mov r11,r24
 4275 1374 90E0      		ldi r25,lo8(0)
 4276               	.LVL230:
 4277               	.LM639:
 4278 1376 4C01      		movw r8,r24
 4279               	.LVL231:
 4280 1378 B5E0      		ldi r27,5
 4281 137a 9594      	1:	asr r9
 4282 137c 8794      		ror r8
 4283 137e BA95      		dec r27
 4284 1380 01F4      		brne 1b
 4285               	.LM640:
 4286 1382 AFE1      		ldi r26,lo8(31)
 4287 1384 6A2E      		mov r6,r26
 4288 1386 712C      		mov r7,__zero_reg__
 4289               	.LVL232:
 4290 1388 6822      		and r6,r24
 4291 138a 7922      		and r7,r25
 4292 138c EE24      		clr r14
 4293 138e FF24      		clr r15
 4294               	.LVL233:
 4295 1390 C1E0      		ldi r28,lo8(1)
 4296 1392 D0E0      		ldi r29,hi8(1)
 4297               	.LVL234:
 4298 1394 00E0      		ldi r16,lo8(0)
 4299 1396 10E0      		ldi r17,hi8(0)
 4300               	.LVL235:
 4301 1398 00C0      		rjmp .L367
 4302               	.LVL236:
 4303               	.L368:
 4304               	.LBB728:
 4305               	.LM641:
 4306 139a 8A2D      		mov r24,r10
 4307 139c 6C2F      		mov r22,r28
 4308 139e 0E94 0000 		call EEPROM_ReadByte
 4309               	.LVL237:
 4310 13a2 F601      		movw r30,r12
 4311 13a4 8193      		st Z+,r24
 4312 13a6 6F01      		movw r12,r30
 4313               	.LM642:
 4314 13a8 0894      		sec
 4315 13aa E11C      		adc r14,__zero_reg__
 4316 13ac F11C      		adc r15,__zero_reg__
 4317               	.LM643:
 4318 13ae 2196      		adiw r28,1
 4319               	.LM644:
 4320 13b0 C032      		cpi r28,32
 4321 13b2 D105      		cpc r29,__zero_reg__
 4322 13b4 04F0      		brlt .L368
 4323               	.LM645:
 4324 13b6 0F5F      		subi r16,lo8(-(1))
 4325 13b8 1F4F      		sbci r17,hi8(-(1))
 4326 13ba C0E0      		ldi r28,lo8(0)
 4327 13bc D0E0      		ldi r29,hi8(0)
 4328               	.LVL238:
 4329               	.L367:
 4330 13be C701      		movw r24,r14
 4331               	.LVL239:
 4332 13c0 8C96      		adiw r24,44
 4333 13c2 0815      		cp r16,r8
 4334 13c4 1905      		cpc r17,r9
 4335 13c6 04F0      		brlt .L369
 4336 13c8 8C01      		movw r16,r24
 4337               	.LVL240:
 4338 13ca 0050      		subi r16,lo8(-(robotData))
 4339 13cc 1040      		sbci r17,hi8(-(robotData))
 4340               	.LBE728:
 4341               	.LM646:
 4342 13ce F52C      		mov r15,r5
 4343 13d0 F80C      		add r15,r8
 4344 13d2 00C0      		rjmp .L370
 4345               	.LVL241:
 4346               	.L369:
 4347               	.LBB729:
 4348               	.LM647:
 4349 13d4 F0E0      		ldi r31,lo8(robotData)
 4350 13d6 CF2E      		mov r12,r31
 4351 13d8 F0E0      		ldi r31,hi8(robotData)
 4352 13da DF2E      		mov r13,r31
 4353 13dc C80E      		add r12,r24
 4354 13de D91E      		adc r13,r25
 4355               	.LM648:
 4356 13e0 A52C      		mov r10,r5
 4357 13e2 A00E      		add r10,r16
 4358 13e4 00C0      		rjmp .L368
 4359               	.LVL242:
 4360               	.L371:
 4361               	.LBE729:
 4362               	.LM649:
 4363 13e6 8F2D      		mov r24,r15
 4364 13e8 6C2F      		mov r22,r28
 4365 13ea 0E94 0000 		call EEPROM_ReadByte
 4366               	.LVL243:
 4367 13ee F801      		movw r30,r16
 4368 13f0 8193      		st Z+,r24
 4369 13f2 8F01      		movw r16,r30
 4370               	.LM650:
 4371 13f4 2196      		adiw r28,1
 4372               	.LVL244:
 4373               	.L370:
 4374               	.LM651:
 4375 13f6 C615      		cp r28,r6
 4376 13f8 D705      		cpc r29,r7
 4377 13fa 04F0      		brlt .L371
 4378               	.LM652:
 4379 13fc BA94      		dec r11
 4380 13fe B092 0000 		sts robotData+36,r11
 4381               	/* epilogue start */
 4382               	.LM653:
 4383 1402 DF91      		pop r29
 4384 1404 CF91      		pop r28
 4385               	.LVL245:
 4386 1406 1F91      		pop r17
 4387 1408 0F91      		pop r16
 4388 140a FF90      		pop r15
 4389 140c EF90      		pop r14
 4390               	.LVL246:
 4391 140e DF90      		pop r13
 4392 1410 CF90      		pop r12
 4393 1412 BF90      		pop r11
 4394 1414 AF90      		pop r10
 4395 1416 9F90      		pop r9
 4396 1418 8F90      		pop r8
 4397               	.LVL247:
 4398 141a 7F90      		pop r7
 4399 141c 6F90      		pop r6
 4400               	.LVL248:
 4401 141e 5F90      		pop r5
 4402 1420 0895      		ret
 4403               	.LFE76:
 4405               	.global	EEPROM_WaitForNVM
 4407               	EEPROM_WaitForNVM:
 4408               	.LFB81:
 4409               	.LM654:
 4410               	/* prologue: function */
 4411               	/* frame size = 0 */
 4412               	.L375:
 4413               	.LM655:
 4414 1422 8091 CF01 		lds r24,463
 4415 1426 87FD      		sbrc r24,7
 4416 1428 00C0      		rjmp .L375
 4417               	/* epilogue start */
 4418               	.LM656:
 4419 142a 0895      		ret
 4420               	.LFE81:
 4422               	.global	EEPROM_FlushBuffer
 4424               	EEPROM_FlushBuffer:
 4425               	.LFB82:
 4426               	.LM657:
 4427               	/* prologue: function */
 4428               	/* frame size = 0 */
 4429               	.L379:
 4430               	.LBB730:
 4431               	.LBB731:
 4432               	.LM658:
 4433 142c 8091 CF01 		lds r24,463
 4434 1430 87FD      		sbrc r24,7
 4435 1432 00C0      		rjmp .L379
 4436               	.LBE731:
 4437               	.LBE730:
 4438               	.LM659:
 4439 1434 8091 CF01 		lds r24,463
 4440 1438 81FF      		sbrs r24,1
 4441 143a 00C0      		rjmp .L381
 4442               	.LM660:
 4443 143c 86E3      		ldi r24,lo8(54)
 4444 143e E0EC      		ldi r30,lo8(448)
 4445 1440 F1E0      		ldi r31,hi8(448)
 4446 1442 8287      		std Z+10,r24
 4447               	.LM661:
 4448               	/* #APP */
 4449               	 ;  166 "eeprom_driver.c" 1
 4450 1444 EF93      		push r30
 4451 1446 FF93      		push r31
 4452 1448 0F93      		push r16
 4453 144a 2F93      		push r18
 4454 144c EBEC      		ldi r30, 0xCB
 4455 144e F1E0      		ldi r31, 0x01
 4456 1450 08ED      		ldi r16, 0xD8
 4457 1452 21E0      		ldi r18, 0x01
 4458 1454 04BF      		out 0x34, r16
 4459 1456 2083      		st Z, r18
 4460 1458 2F91      		pop r18
 4461 145a 0F91      		pop r16
 4462 145c FF91      		pop r31
 4463 145e EF91      		pop r30
 4464               		
 4465               	 ;  0 "" 2
 4466               	/* #NOAPP */
 4467               	.L381:
 4468 1460 0895      		ret
 4469               	.LFE82:
 4471               	.global	EEPROM_WriteByte
 4473               	EEPROM_WriteByte:
 4474               	.LFB79:
 4475               	.LM662:
 4476               	.LVL249:
 4477 1462 DF92      		push r13
 4478 1464 EF92      		push r14
 4479 1466 FF92      		push r15
 4480 1468 0F93      		push r16
 4481 146a 1F93      		push r17
 4482               	/* prologue: function */
 4483               	/* frame size = 0 */
 4484 146c E82E      		mov r14,r24
 4485 146e 062F      		mov r16,r22
 4486 1470 D42E      		mov r13,r20
 4487               	.LM663:
 4488 1472 0E94 0000 		call EEPROM_FlushBuffer
 4489               	.LVL250:
 4490               	.LM664:
 4491 1476 E0EC      		ldi r30,lo8(448)
 4492 1478 F1E0      		ldi r31,hi8(448)
 4493 147a 83E3      		ldi r24,lo8(51)
 4494 147c 8287      		std Z+10,r24
 4495               	.LM665:
 4496 147e 10E0      		ldi r17,lo8(0)
 4497               	.LVL251:
 4498 1480 0F71      		andi r16,lo8(31)
 4499 1482 1070      		andi r17,hi8(31)
 4500               	.LVL252:
 4501 1484 FF24      		clr r15
 4502               	.LVL253:
 4503 1486 85E0      		ldi r24,5
 4504 1488 EE0C      	1:	lsl r14
 4505 148a FF1C      		rol r15
 4506 148c 8A95      		dec r24
 4507 148e 01F4      		brne 1b
 4508               	.LVL254:
 4509 1490 0E29      		or r16,r14
 4510 1492 1F29      		or r17,r15
 4511               	.LM666:
 4512 1494 0083      		st Z,r16
 4513               	.LM667:
 4514 1496 812F      		mov r24,r17
 4515               	.LVL255:
 4516 1498 8F71      		andi r24,lo8(31)
 4517 149a 8183      		std Z+1,r24
 4518               	.LM668:
 4519 149c 1282      		std Z+2,__zero_reg__
 4520               	.LM669:
 4521 149e D482      		std Z+4,r13
 4522               	.LM670:
 4523 14a0 85E3      		ldi r24,lo8(53)
 4524 14a2 8287      		std Z+10,r24
 4525               	.LM671:
 4526               	/* #APP */
 4527               	 ;  99 "eeprom_driver.c" 1
 4528 14a4 EF93      		push r30
 4529 14a6 FF93      		push r31
 4530 14a8 0F93      		push r16
 4531 14aa 2F93      		push r18
 4532 14ac EBEC      		ldi r30, 0xCB
 4533 14ae F1E0      		ldi r31, 0x01
 4534 14b0 08ED      		ldi r16, 0xD8
 4535 14b2 21E0      		ldi r18, 0x01
 4536 14b4 04BF      		out 0x34, r16
 4537 14b6 2083      		st Z, r18
 4538 14b8 2F91      		pop r18
 4539 14ba 0F91      		pop r16
 4540 14bc FF91      		pop r31
 4541 14be EF91      		pop r30
 4542               		
 4543               	 ;  0 "" 2
 4544               	/* epilogue start */
 4545               	.LM672:
 4546               	/* #NOAPP */
 4547 14c0 1F91      		pop r17
 4548 14c2 0F91      		pop r16
 4549               	.LVL256:
 4550 14c4 FF90      		pop r15
 4551               	.LVL257:
 4552 14c6 EF90      		pop r14
 4553               	.LVL258:
 4554 14c8 DF90      		pop r13
 4555               	.LVL259:
 4556 14ca 0895      		ret
 4557               	.LFE79:
 4559               	.global	write_data_to_eeprom
 4561               	write_data_to_eeprom:
 4562               	.LFB75:
 4563               	.LM673:
 4564               	.LVL260:
 4565 14cc 8F92      		push r8
 4566 14ce 9F92      		push r9
 4567 14d0 AF92      		push r10
 4568 14d2 BF92      		push r11
 4569 14d4 CF92      		push r12
 4570 14d6 DF92      		push r13
 4571 14d8 EF92      		push r14
 4572 14da FF92      		push r15
 4573 14dc 0F93      		push r16
 4574 14de 1F93      		push r17
 4575 14e0 CF93      		push r28
 4576 14e2 DF93      		push r29
 4577               	/* prologue: function */
 4578               	/* frame size = 0 */
 4579 14e4 9C01      		movw r18,r24
 4580               	.LM674:
 4581 14e6 8091 0000 		lds r24,signal_count
 4582               	.LVL261:
 4583 14ea 90E0      		ldi r25,lo8(0)
 4584 14ec 0197      		sbiw r24,1
 4585 14ee 60E2      		ldi r22,lo8(32)
 4586 14f0 70E0      		ldi r23,hi8(32)
 4587 14f2 0E94 0000 		call __divmodhi4
 4588 14f6 6B01      		movw r12,r22
 4589               	.LM675:
 4590 14f8 8091 0000 		lds r24,signal_count
 4591 14fc 90E0      		ldi r25,lo8(0)
 4592 14fe 0197      		sbiw r24,1
 4593 1500 60E2      		ldi r22,lo8(32)
 4594 1502 70E0      		ldi r23,hi8(32)
 4595 1504 0E94 0000 		call __divmodhi4
 4596 1508 5C01      		movw r10,r24
 4597               	.LM676:
 4598 150a C901      		movw r24,r18
 4599 150c 880F      		lsl r24
 4600 150e 991F      		rol r25
 4601 1510 820F      		add r24,r18
 4602 1512 931F      		adc r25,r19
 4603 1514 880F      		lsl r24
 4604 1516 991F      		rol r25
 4605               	.LVL262:
 4606 1518 882E      		mov r8,r24
 4607 151a 4091 0000 		lds r20,signal_count
 4608 151e 4150      		subi r20,lo8(-(-1))
 4609 1520 60E0      		ldi r22,lo8(0)
 4610 1522 0E94 0000 		call EEPROM_WriteByte
 4611 1526 92E0      		ldi r25,lo8(2)
 4612 1528 E92E      		mov r14,r25
 4613 152a F12C      		mov r15,__zero_reg__
 4614               	.LVL263:
 4615 152c C1E0      		ldi r28,lo8(1)
 4616 152e D0E0      		ldi r29,hi8(1)
 4617               	.LVL264:
 4618 1530 00E0      		ldi r16,lo8(0)
 4619 1532 10E0      		ldi r17,hi8(0)
 4620               	.LVL265:
 4621 1534 00C0      		rjmp .L386
 4622               	.LVL266:
 4623               	.L387:
 4624               	.LBB732:
 4625               	.LM677:
 4626 1536 982C      		mov r9,r8
 4627 1538 900E      		add r9,r16
 4628               	.L391:
 4629 153a F701      		movw r30,r14
 4630 153c E050      		subi r30,lo8(-(captured_signal))
 4631 153e F040      		sbci r31,hi8(-(captured_signal))
 4632 1540 4081      		ld r20,Z
 4633 1542 892D      		mov r24,r9
 4634 1544 6C2F      		mov r22,r28
 4635 1546 0E94 0000 		call EEPROM_WriteByte
 4636               	.LM678:
 4637 154a 0894      		sec
 4638 154c E11C      		adc r14,__zero_reg__
 4639 154e F11C      		adc r15,__zero_reg__
 4640               	.LM679:
 4641 1550 2196      		adiw r28,1
 4642               	.LM680:
 4643 1552 C032      		cpi r28,32
 4644 1554 D105      		cpc r29,__zero_reg__
 4645 1556 04F0      		brlt .L391
 4646               	.LM681:
 4647 1558 0F5F      		subi r16,lo8(-(1))
 4648 155a 1F4F      		sbci r17,hi8(-(1))
 4649 155c C0E0      		ldi r28,lo8(0)
 4650 155e D0E0      		ldi r29,hi8(0)
 4651               	.L386:
 4652 1560 0C15      		cp r16,r12
 4653 1562 1D05      		cpc r17,r13
 4654 1564 04F0      		brlt .L387
 4655 1566 00C0      		rjmp .L395
 4656               	.LVL267:
 4657               	.L389:
 4658               	.LBE732:
 4659               	.LM682:
 4660 1568 F701      		movw r30,r14
 4661 156a E050      		subi r30,lo8(-(captured_signal))
 4662 156c F040      		sbci r31,hi8(-(captured_signal))
 4663 156e 4081      		ld r20,Z
 4664 1570 812F      		mov r24,r17
 4665 1572 6C2F      		mov r22,r28
 4666 1574 0E94 0000 		call EEPROM_WriteByte
 4667               	.LM683:
 4668 1578 0894      		sec
 4669 157a E11C      		adc r14,__zero_reg__
 4670 157c F11C      		adc r15,__zero_reg__
 4671               	.LM684:
 4672 157e 2196      		adiw r28,1
 4673 1580 00C0      		rjmp .L394
 4674               	.LVL268:
 4675               	.L395:
 4676               	.LM685:
 4677 1582 182D      		mov r17,r8
 4678 1584 1C0D      		add r17,r12
 4679               	.LVL269:
 4680               	.L394:
 4681               	.LM686:
 4682 1586 CA15      		cp r28,r10
 4683 1588 DB05      		cpc r29,r11
 4684 158a 04F0      		brlt .L389
 4685               	/* epilogue start */
 4686               	.LM687:
 4687 158c DF91      		pop r29
 4688 158e CF91      		pop r28
 4689               	.LVL270:
 4690 1590 1F91      		pop r17
 4691 1592 0F91      		pop r16
 4692               	.LVL271:
 4693 1594 FF90      		pop r15
 4694 1596 EF90      		pop r14
 4695               	.LVL272:
 4696 1598 DF90      		pop r13
 4697 159a CF90      		pop r12
 4698               	.LVL273:
 4699 159c BF90      		pop r11
 4700 159e AF90      		pop r10
 4701               	.LVL274:
 4702 15a0 9F90      		pop r9
 4703 15a2 8F90      		pop r8
 4704 15a4 0895      		ret
 4705               	.LFE75:
 4707               	.global	EEPROM_LoadByte
 4709               	EEPROM_LoadByte:
 4710               	.LFB83:
 4711               	.LM688:
 4712               	.LVL275:
 4713               	/* prologue: function */
 4714               	/* frame size = 0 */
 4715 15a6 982F      		mov r25,r24
 4716               	.LVL276:
 4717               	.L397:
 4718               	.LBB733:
 4719               	.LBB734:
 4720               	.LM689:
 4721 15a8 E0EC      		ldi r30,lo8(448)
 4722 15aa F1E0      		ldi r31,hi8(448)
 4723 15ac 8091 CF01 		lds r24,463
 4724 15b0 87FD      		sbrc r24,7
 4725 15b2 00C0      		rjmp .L397
 4726               	.LBE734:
 4727               	.LBE733:
 4728               	.LM690:
 4729 15b4 83E3      		ldi r24,lo8(51)
 4730 15b6 8287      		std Z+10,r24
 4731               	.LM691:
 4732 15b8 9093 C001 		sts 448,r25
 4733               	.LM692:
 4734 15bc 1182      		std Z+1,__zero_reg__
 4735               	.LM693:
 4736 15be 1282      		std Z+2,__zero_reg__
 4737               	.LM694:
 4738 15c0 6483      		std Z+4,r22
 4739               	/* epilogue start */
 4740               	.LM695:
 4741 15c2 0895      		ret
 4742               	.LFE83:
 4744               	.global	EEPROM_LoadPage
 4746               	EEPROM_LoadPage:
 4747               	.LFB84:
 4748               	.LM696:
 4749               	.LVL277:
 4750               	/* prologue: function */
 4751               	/* frame size = 0 */
 4752 15c4 DC01      		movw r26,r24
 4753               	.LVL278:
 4754               	.L401:
 4755               	.LBB735:
 4756               	.LBB736:
 4757               	.LM697:
 4758 15c6 E0EC      		ldi r30,lo8(448)
 4759 15c8 F1E0      		ldi r31,hi8(448)
 4760 15ca 8091 CF01 		lds r24,463
 4761 15ce 87FD      		sbrc r24,7
 4762 15d0 00C0      		rjmp .L401
 4763               	.LBE736:
 4764               	.LBE735:
 4765               	.LM698:
 4766 15d2 83E3      		ldi r24,lo8(51)
 4767 15d4 8287      		std Z+10,r24
 4768               	.LM699:
 4769 15d6 1182      		std Z+1,__zero_reg__
 4770               	.LM700:
 4771 15d8 1282      		std Z+2,__zero_reg__
 4772 15da 90E0      		ldi r25,lo8(0)
 4773               	.LVL279:
 4774               	.L402:
 4775               	.LBB737:
 4776               	.LM701:
 4777 15dc 9093 C001 		sts 448,r25
 4778               	.LM702:
 4779 15e0 8D91      		ld r24,X+
 4780 15e2 8483      		std Z+4,r24
 4781               	.LM703:
 4782 15e4 9F5F      		subi r25,lo8(-(1))
 4783 15e6 9032      		cpi r25,lo8(32)
 4784 15e8 01F4      		brne .L402
 4785               	/* epilogue start */
 4786               	.LBE737:
 4787               	.LM704:
 4788 15ea 0895      		ret
 4789               	.LFE84:
 4791               	.global	EEPROM_AtomicWritePage
 4793               	EEPROM_AtomicWritePage:
 4794               	.LFB85:
 4795               	.LM705:
 4796               	.LVL280:
 4797               	/* prologue: function */
 4798               	/* frame size = 0 */
 4799 15ec 982F      		mov r25,r24
 4800               	.LVL281:
 4801               	.L407:
 4802               	.LBB738:
 4803               	.LBB739:
 4804               	.LM706:
 4805 15ee E0EC      		ldi r30,lo8(448)
 4806 15f0 F1E0      		ldi r31,hi8(448)
 4807 15f2 8091 CF01 		lds r24,463
 4808 15f6 87FD      		sbrc r24,7
 4809 15f8 00C0      		rjmp .L407
 4810               	.LBE739:
 4811               	.LBE738:
 4812               	.LM707:
 4813 15fa 892F      		mov r24,r25
 4814               	.LVL282:
 4815 15fc 90E0      		ldi r25,lo8(0)
 4816               	.LVL283:
 4817 15fe 55E0      		ldi r21,5
 4818 1600 880F      	1:	lsl r24
 4819 1602 991F      		rol r25
 4820 1604 5A95      		dec r21
 4821 1606 01F4      		brne 1b
 4822               	.LVL284:
 4823               	.LM708:
 4824 1608 8093 C001 		sts 448,r24
 4825               	.LM709:
 4826 160c 892F      		mov r24,r25
 4827               	.LVL285:
 4828 160e 8F71      		andi r24,lo8(31)
 4829 1610 8183      		std Z+1,r24
 4830               	.LM710:
 4831 1612 1282      		std Z+2,__zero_reg__
 4832               	.LM711:
 4833 1614 85E3      		ldi r24,lo8(53)
 4834 1616 8287      		std Z+10,r24
 4835               	.LM712:
 4836               	/* #APP */
 4837               	 ;  263 "eeprom_driver.c" 1
 4838 1618 EF93      		push r30
 4839 161a FF93      		push r31
 4840 161c 0F93      		push r16
 4841 161e 2F93      		push r18
 4842 1620 EBEC      		ldi r30, 0xCB
 4843 1622 F1E0      		ldi r31, 0x01
 4844 1624 08ED      		ldi r16, 0xD8
 4845 1626 21E0      		ldi r18, 0x01
 4846 1628 04BF      		out 0x34, r16
 4847 162a 2083      		st Z, r18
 4848 162c 2F91      		pop r18
 4849 162e 0F91      		pop r16
 4850 1630 FF91      		pop r31
 4851 1632 EF91      		pop r30
 4852               		
 4853               	 ;  0 "" 2
 4854               	/* epilogue start */
 4855               	.LM713:
 4856               	/* #NOAPP */
 4857 1634 0895      		ret
 4858               	.LFE85:
 4860               	.global	EEPROM_ErasePage
 4862               	EEPROM_ErasePage:
 4863               	.LFB86:
 4864               	.LM714:
 4865               	.LVL286:
 4866               	/* prologue: function */
 4867               	/* frame size = 0 */
 4868 1636 982F      		mov r25,r24
 4869               	.LVL287:
 4870               	.L411:
 4871               	.LBB740:
 4872               	.LBB741:
 4873               	.LM715:
 4874 1638 E0EC      		ldi r30,lo8(448)
 4875 163a F1E0      		ldi r31,hi8(448)
 4876 163c 8091 CF01 		lds r24,463
 4877 1640 87FD      		sbrc r24,7
 4878 1642 00C0      		rjmp .L411
 4879               	.LBE741:
 4880               	.LBE740:
 4881               	.LM716:
 4882 1644 892F      		mov r24,r25
 4883               	.LVL288:
 4884 1646 90E0      		ldi r25,lo8(0)
 4885               	.LVL289:
 4886 1648 65E0      		ldi r22,5
 4887 164a 880F      	1:	lsl r24
 4888 164c 991F      		rol r25
 4889 164e 6A95      		dec r22
 4890 1650 01F4      		brne 1b
 4891               	.LVL290:
 4892               	.LM717:
 4893 1652 8093 C001 		sts 448,r24
 4894               	.LM718:
 4895 1656 892F      		mov r24,r25
 4896               	.LVL291:
 4897 1658 8F71      		andi r24,lo8(31)
 4898 165a 8183      		std Z+1,r24
 4899               	.LM719:
 4900 165c 1282      		std Z+2,__zero_reg__
 4901               	.LM720:
 4902 165e 82E3      		ldi r24,lo8(50)
 4903 1660 8287      		std Z+10,r24
 4904               	.LM721:
 4905               	/* #APP */
 4906               	 ;  288 "eeprom_driver.c" 1
 4907 1662 EF93      		push r30
 4908 1664 FF93      		push r31
 4909 1666 0F93      		push r16
 4910 1668 2F93      		push r18
 4911 166a EBEC      		ldi r30, 0xCB
 4912 166c F1E0      		ldi r31, 0x01
 4913 166e 08ED      		ldi r16, 0xD8
 4914 1670 21E0      		ldi r18, 0x01
 4915 1672 04BF      		out 0x34, r16
 4916 1674 2083      		st Z, r18
 4917 1676 2F91      		pop r18
 4918 1678 0F91      		pop r16
 4919 167a FF91      		pop r31
 4920 167c EF91      		pop r30
 4921               		
 4922               	 ;  0 "" 2
 4923               	/* epilogue start */
 4924               	.LM722:
 4925               	/* #NOAPP */
 4926 167e 0895      		ret
 4927               	.LFE86:
 4929               	.global	EEPROM_SplitWritePage
 4931               	EEPROM_SplitWritePage:
 4932               	.LFB87:
 4933               	.LM723:
 4934               	.LVL292:
 4935               	/* prologue: function */
 4936               	/* frame size = 0 */
 4937 1680 982F      		mov r25,r24
 4938               	.LVL293:
 4939               	.L415:
 4940               	.LBB742:
 4941               	.LBB743:
 4942               	.LM724:
 4943 1682 E0EC      		ldi r30,lo8(448)
 4944 1684 F1E0      		ldi r31,hi8(448)
 4945 1686 8091 CF01 		lds r24,463
 4946 168a 87FD      		sbrc r24,7
 4947 168c 00C0      		rjmp .L415
 4948               	.LBE743:
 4949               	.LBE742:
 4950               	.LM725:
 4951 168e 892F      		mov r24,r25
 4952               	.LVL294:
 4953 1690 90E0      		ldi r25,lo8(0)
 4954               	.LVL295:
 4955 1692 75E0      		ldi r23,5
 4956 1694 880F      	1:	lsl r24
 4957 1696 991F      		rol r25
 4958 1698 7A95      		dec r23
 4959 169a 01F4      		brne 1b
 4960               	.LVL296:
 4961               	.LM726:
 4962 169c 8093 C001 		sts 448,r24
 4963               	.LM727:
 4964 16a0 892F      		mov r24,r25
 4965               	.LVL297:
 4966 16a2 8F71      		andi r24,lo8(31)
 4967 16a4 8183      		std Z+1,r24
 4968               	.LM728:
 4969 16a6 1282      		std Z+2,__zero_reg__
 4970               	.LM729:
 4971 16a8 84E3      		ldi r24,lo8(52)
 4972 16aa 8287      		std Z+10,r24
 4973               	.LM730:
 4974               	/* #APP */
 4975               	 ;  317 "eeprom_driver.c" 1
 4976 16ac EF93      		push r30
 4977 16ae FF93      		push r31
 4978 16b0 0F93      		push r16
 4979 16b2 2F93      		push r18
 4980 16b4 EBEC      		ldi r30, 0xCB
 4981 16b6 F1E0      		ldi r31, 0x01
 4982 16b8 08ED      		ldi r16, 0xD8
 4983 16ba 21E0      		ldi r18, 0x01
 4984 16bc 04BF      		out 0x34, r16
 4985 16be 2083      		st Z, r18
 4986 16c0 2F91      		pop r18
 4987 16c2 0F91      		pop r16
 4988 16c4 FF91      		pop r31
 4989 16c6 EF91      		pop r30
 4990               		
 4991               	 ;  0 "" 2
 4992               	/* epilogue start */
 4993               	.LM731:
 4994               	/* #NOAPP */
 4995 16c8 0895      		ret
 4996               	.LFE87:
 4998               	.global	EEPROM_EraseAll
 5000               	EEPROM_EraseAll:
 5001               	.LFB88:
 5002               	.LM732:
 5003               	/* prologue: function */
 5004               	/* frame size = 0 */
 5005               	.L419:
 5006               	.LBB744:
 5007               	.LBB745:
 5008               	.LM733:
 5009 16ca 8091 CF01 		lds r24,463
 5010 16ce 87FD      		sbrc r24,7
 5011 16d0 00C0      		rjmp .L419
 5012               	.LBE745:
 5013               	.LBE744:
 5014               	.LM734:
 5015 16d2 80E3      		ldi r24,lo8(48)
 5016 16d4 E0EC      		ldi r30,lo8(448)
 5017 16d6 F1E0      		ldi r31,hi8(448)
 5018 16d8 8287      		std Z+10,r24
 5019               	.LM735:
 5020               	/* #APP */
 5021               	 ;  331 "eeprom_driver.c" 1
 5022 16da EF93      		push r30
 5023 16dc FF93      		push r31
 5024 16de 0F93      		push r16
 5025 16e0 2F93      		push r18
 5026 16e2 EBEC      		ldi r30, 0xCB
 5027 16e4 F1E0      		ldi r31, 0x01
 5028 16e6 08ED      		ldi r16, 0xD8
 5029 16e8 21E0      		ldi r18, 0x01
 5030 16ea 04BF      		out 0x34, r16
 5031 16ec 2083      		st Z, r18
 5032 16ee 2F91      		pop r18
 5033 16f0 0F91      		pop r16
 5034 16f2 FF91      		pop r31
 5035 16f4 EF91      		pop r30
 5036               		
 5037               	 ;  0 "" 2
 5038               	/* epilogue start */
 5039               	.LM736:
 5040               	/* #NOAPP */
 5041 16f6 0895      		ret
 5042               	.LFE88:
 5044               	.global	main
 5046               	main:
 5047               	.LFB89:
 5048               	.LM737:
 5049 16f8 2F92      		push r2
 5050 16fa 3F92      		push r3
 5051 16fc 4F92      		push r4
 5052 16fe 5F92      		push r5
 5053 1700 6F92      		push r6
 5054 1702 7F92      		push r7
 5055 1704 8F92      		push r8
 5056 1706 9F92      		push r9
 5057 1708 AF92      		push r10
 5058 170a BF92      		push r11
 5059 170c CF92      		push r12
 5060 170e DF92      		push r13
 5061 1710 EF92      		push r14
 5062 1712 FF92      		push r15
 5063 1714 0F93      		push r16
 5064 1716 1F93      		push r17
 5065 1718 DF93      		push r29
 5066 171a CF93      		push r28
 5067 171c CDB7      		in r28,__SP_L__
 5068 171e DEB7      		in r29,__SP_H__
 5069 1720 A397      		sbiw r28,35
 5070 1722 CDBF      		out __SP_L__,r28
 5071 1724 DEBF      		out __SP_H__,r29
 5072               	/* prologue: function */
 5073               	/* frame size = 35 */
 5074               	.LM738:
 5075 1726 0E94 0000 		call init_clock
 5076               	.LM739:
 5077 172a 0E94 0000 		call init_led
 5078               	.LM740:
 5079 172e 0E94 0000 		call init_adc
 5080               	.LM741:
 5081 1732 0E94 0000 		call init_ir
 5082               	.LM742:
 5083 1736 0E94 0000 		call init_BT
 5084               	.LM743:
 5085 173a 0E94 0000 		call init_dac
 5086               	.LM744:
 5087 173e 0E94 0000 		call init_buzzer
 5088               	.LM745:
 5089 1742 0E94 0000 		call initAccel
 5090               	.LM746:
 5091 1746 83E8      		ldi r24,lo8(131)
 5092 1748 90E0      		ldi r25,hi8(131)
 5093 174a 6DEF      		ldi r22,lo8(-3)
 5094 174c 0E94 0000 		call init_aux_uart
 5095               	.LM747:
 5096 1750 8091 CC01 		lds r24,460
 5097 1754 877F      		andi r24,lo8(-9)
 5098 1756 E0EC      		ldi r30,lo8(448)
 5099 1758 F1E0      		ldi r31,hi8(448)
 5100 175a 8487      		std Z+12,r24
 5101               	.LM748:
 5102               	/* #APP */
 5103               	 ;  56 "mainFirmware.c" 1
 5104 175c 7894      		sei
 5105               	 ;  0 "" 2
 5106               	/* #NOAPP */
 5107 175e CC24      		clr r12
 5108 1760 DD24      		clr r13
 5109               	.LVL298:
 5110               	.LBB746:
 5111               	.LBB747:
 5112               	.LM749:
 5113 1762 85E4      		ldi r24,lo8(69)
 5114 1764 882E      		mov r8,r24
 5115               	.LBE747:
 5116               	.LBE746:
 5117               	.LBB749:
 5118               	.LBB750:
 5119 1766 02E5      		ldi r16,lo8(82)
 5120 1768 902E      		mov r9,r16
 5121               	.LVL299:
 5122               	.L1003:
 5123               	.LBE750:
 5124               	.LBE749:
 5125               	.LBB752:
 5126               	.LBB753:
 5127               	.LM750:
 5128 176a 2FEF      		ldi r18,lo8(-1)
 5129 176c 2093 3909 		sts 2361,r18
 5130               	.LM751:
 5131 1770 2093 3B09 		sts 2363,r18
 5132               	.LM752:
 5133 1774 2093 3D09 		sts 2365,r18
 5134               	.LBE753:
 5135               	.LBE752:
 5136               	.LBB754:
 5137               	.LBB755:
 5138               	.LM753:
 5139 1778 E0E4      		ldi r30,lo8(2112)
 5140 177a F8E0      		ldi r31,hi8(2112)
 5141               	.LVL300:
 5142 177c 1682      		std Z+6,__zero_reg__
 5143               	.LBB756:
 5144               	.LBB757:
 5145               	.LM754:
 5146               	/* #APP */
 5147               	 ;  42 "ir.c" 1
 5148 177e F894      		cli
 5149               	 ;  0 "" 2
 5150               	.LM755:
 5151               	/* #NOAPP */
 5152 1780 E0E0      		ldi r30,lo8(2048)
 5153 1782 F8E0      		ldi r31,hi8(2048)
 5154 1784 10A6      		std Z+40,__zero_reg__
 5155 1786 11A6      		std Z+41,__zero_reg__
 5156               	.LM756:
 5157               	/* #APP */
 5158               	 ;  44 "ir.c" 1
 5159 1788 7894      		sei
 5160               	 ;  0 "" 2
 5161               	/* #NOAPP */
 5162 178a 20E0      		ldi r18,lo8(0)
 5163               	.LVL301:
 5164               	.L1002:
 5165               	.LBE757:
 5166               	.LBE756:
 5167               	.LBE755:
 5168               	.LBE754:
 5169               	.LBB758:
 5170               	.LBB759:
 5171               	.LM757:
 5172 178c 8091 B109 		lds r24,2481
 5173               	.LVL302:
 5174 1790 85FF      		sbrs r24,5
 5175 1792 00C0      		rjmp .L1002
 5176               	.LM758:
 5177 1794 32E4      		ldi r19,lo8(66)
 5178 1796 3093 B009 		sts 2480,r19
 5179               	.L425:
 5180               	.LBE759:
 5181               	.LBE758:
 5182               	.LBB760:
 5183               	.LBB761:
 5184               	.LM759:
 5185 179a 8091 B109 		lds r24,2481
 5186 179e 85FF      		sbrs r24,5
 5187 17a0 00C0      		rjmp .L425
 5188               	.LM760:
 5189 17a2 4CE4      		ldi r20,lo8(76)
 5190 17a4 4093 B009 		sts 2480,r20
 5191               	.LBE761:
 5192               	.LBE760:
 5193               	.LBB762:
 5194               	.LBB763:
 5195               	.LM761:
 5196 17a8 9091 0000 		lds r25,BT_data+258
 5197               	.LVL303:
 5198               	.LM762:
 5199 17ac 8091 0000 		lds r24,BT_data+259
 5200               	.LVL304:
 5201               	.LBE763:
 5202               	.LBE762:
 5203               	.LM763:
 5204 17b0 9817      		cp r25,r24
 5205 17b2 01F0      		breq .L426
 5206               	.LBB764:
 5207               	.LBB765:
 5208               	.LM764:
 5209 17b4 E091 0000 		lds r30,BT_data+259
 5210               	.LVL305:
 5211 17b8 F0E0      		ldi r31,lo8(0)
 5212 17ba E050      		subi r30,lo8(-(BT_data))
 5213 17bc F040      		sbci r31,hi8(-(BT_data))
 5214 17be 2281      		ldd r18,Z+2
 5215               	.LM765:
 5216 17c0 8091 0000 		lds r24,BT_data+259
 5217               	.LVL306:
 5218 17c4 8F5F      		subi r24,lo8(-(1))
 5219 17c6 8093 0000 		sts BT_data+259,r24
 5220               	.L427:
 5221               	.LBE765:
 5222               	.LBE764:
 5223               	.LBB766:
 5224               	.LBB767:
 5225               	.LM766:
 5226 17ca 8091 B109 		lds r24,2481
 5227 17ce 85FF      		sbrs r24,5
 5228 17d0 00C0      		rjmp .L427
 5229               	.LM767:
 5230 17d2 2093 B009 		sts 2480,r18
 5231               	.LVL307:
 5232               	.L426:
 5233 17d6 88E8      		ldi r24,lo8(5000)
 5234 17d8 93E1      		ldi r25,hi8(5000)
 5235               	.LVL308:
 5236               	.L428:
 5237               	.LBE767:
 5238               	.LBE766:
 5239               	.LBB768:
 5240               	.LBB769:
 5241               	.LBB770:
 5242               	.LBB771:
 5243               	.LM768:
 5244 17da E0E2      		ldi r30,lo8(800)
 5245 17dc F3E0      		ldi r31,hi8(800)
 5246               	/* #APP */
 5247               	 ;  105 "c:/winavr-20100110/lib/gcc/../../avr/include/util/delay_basic.h" 1
 5248 17de 3197      		1: sbiw r30,1
 5249 17e0 01F4      		brne 1b
 5250               	 ;  0 "" 2
 5251               	/* #NOAPP */
 5252               	.LBE771:
 5253               	.LBE770:
 5254               	.LM769:
 5255 17e2 0197      		sbiw r24,1
 5256               	.LM770:
 5257 17e4 01F4      		brne .L428
 5258               	.LBE769:
 5259               	.LBE768:
 5260               	.LM771:
 5261 17e6 2A32      		cpi r18,lo8(42)
 5262 17e8 01F4      		brne .L1002
 5263 17ea 80E0      		ldi r24,lo8(0)
 5264 17ec 90E0      		ldi r25,hi8(0)
 5265 17ee A0E0      		ldi r26,hlo8(0)
 5266 17f0 B0E0      		ldi r27,hhi8(0)
 5267               	.LVL309:
 5268               	.LBB772:
 5269               	.LBB773:
 5270               	.LM772:
 5271 17f2 412C      		mov r4,__zero_reg__
 5272 17f4 1AE0      		ldi r17,hi8(2560)
 5273 17f6 512E      		mov r5,r17
 5274               	.LVL310:
 5275               	.L704:
 5276               	.LBE773:
 5277               	.LBE772:
 5278               	.LM773:
 5279 17f8 9C01      		movw r18,r24
 5280 17fa AD01      		movw r20,r26
 5281               	.LVL311:
 5282 17fc 2F5F      		subi r18,lo8(-(1))
 5283 17fe 3F4F      		sbci r19,hi8(-(1))
 5284 1800 4F4F      		sbci r20,hlo8(-(1))
 5285 1802 5F4F      		sbci r21,hhi8(-(1))
 5286 1804 28A3      		std Y+32,r18
 5287 1806 39A3      		std Y+33,r19
 5288 1808 4AA3      		std Y+34,r20
 5289 180a 5BA3      		std Y+35,r21
 5290               	.LVL312:
 5291               	.LBB775:
 5292               	.LBB776:
 5293               	.LM774:
 5294 180c 9091 0000 		lds r25,BT_data+258
 5295               	.LVL313:
 5296               	.LM775:
 5297 1810 8091 0000 		lds r24,BT_data+259
 5298               	.LVL314:
 5299               	.LBE776:
 5300               	.LBE775:
 5301               	.LM776:
 5302 1814 9817      		cp r25,r24
 5303 1816 01F4      		brne .+4
 5304 1818 0C94 0000 		jmp .L429
 5305               	.LBB777:
 5306               	.LBB778:
 5307               	.LM777:
 5308 181c E091 0000 		lds r30,BT_data+259
 5309               	.LVL315:
 5310 1820 F0E0      		ldi r31,lo8(0)
 5311 1822 E050      		subi r30,lo8(-(BT_data))
 5312 1824 F040      		sbci r31,hi8(-(BT_data))
 5313 1826 9281      		ldd r25,Z+2
 5314               	.LVL316:
 5315               	.LM778:
 5316 1828 8091 0000 		lds r24,BT_data+259
 5317               	.LVL317:
 5318 182c 8F5F      		subi r24,lo8(-(1))
 5319 182e 8093 0000 		sts BT_data+259,r24
 5320               	.LBE778:
 5321               	.LBE777:
 5322               	.LM779:
 5323 1832 9923      		tst r25
 5324 1834 01F4      		brne .+4
 5325 1836 0C94 0000 		jmp .L429
 5326               	.L787:
 5327               	.LBB779:
 5328               	.LBB780:
 5329               	.LM780:
 5330 183a 8091 B109 		lds r24,2481
 5331 183e 85FF      		sbrs r24,5
 5332 1840 00C0      		rjmp .L787
 5333               	.LM781:
 5334 1842 9093 B009 		sts 2480,r25
 5335               	.LBE780:
 5336               	.LBE779:
 5337               	.LM782:
 5338 1846 9335      		cpi r25,lo8(83)
 5339 1848 01F4      		brne .+2
 5340 184a 00C0      		rjmp .L444
 5341 184c 9435      		cpi r25,lo8(84)
 5342 184e 00F4      		brsh .L456
 5343 1850 9934      		cpi r25,lo8(73)
 5344 1852 01F4      		brne .+2
 5345 1854 00C0      		rjmp .L439
 5346 1856 9A34      		cpi r25,lo8(74)
 5347 1858 00F4      		brsh .L457
 5348 185a 9234      		cpi r25,lo8(66)
 5349 185c 01F4      		brne .+2
 5350 185e 00C0      		rjmp .L436
 5351 1860 9334      		cpi r25,lo8(67)
 5352 1862 00F4      		brsh .L458
 5353 1864 9E33      		cpi r25,lo8(62)
 5354 1866 01F4      		brne .+2
 5355 1868 00C0      		rjmp .L434
 5356 186a 9F33      		cpi r25,lo8(63)
 5357 186c 00F4      		brsh .L459
 5358 186e 9132      		cpi r25,lo8(33)
 5359 1870 01F4      		brne .+2
 5360 1872 00C0      		rjmp .L432
 5361 1874 9C33      		cpi r25,lo8(60)
 5362 1876 01F0      		breq .+4
 5363 1878 0C94 0000 		jmp .L431
 5364 187c 00C0      		rjmp .L1012
 5365               	.L459:
 5366 187e 9134      		cpi r25,lo8(65)
 5367 1880 01F0      		breq .+4
 5368 1882 0C94 0000 		jmp .L431
 5369 1886 00C0      		rjmp .L1013
 5370               	.L458:
 5371 1888 9334      		cpi r25,lo8(67)
 5372 188a 01F4      		brne .+2
 5373 188c 00C0      		rjmp .L437
 5374 188e 9734      		cpi r25,lo8(71)
 5375 1890 01F0      		breq .+4
 5376 1892 0C94 0000 		jmp .L431
 5377 1896 00C0      		rjmp .L1014
 5378               	.L457:
 5379 1898 9035      		cpi r25,lo8(80)
 5380 189a 01F4      		brne .+2
 5381 189c 00C0      		rjmp .L442
 5382 189e 9135      		cpi r25,lo8(81)
 5383 18a0 00F4      		brsh .L460
 5384 18a2 9C34      		cpi r25,lo8(76)
 5385 18a4 01F4      		brne .+2
 5386 18a6 00C0      		rjmp .L440
 5387 18a8 9F34      		cpi r25,lo8(79)
 5388 18aa 01F0      		breq .+4
 5389 18ac 0C94 0000 		jmp .L431
 5390 18b0 00C0      		rjmp .L1015
 5391               	.L460:
 5392 18b2 9135      		cpi r25,lo8(81)
 5393 18b4 01F4      		brne .+2
 5394 18b6 00C0      		rjmp .L1003
 5395 18b8 9235      		cpi r25,lo8(82)
 5396 18ba 01F0      		breq .+4
 5397 18bc 0C94 0000 		jmp .L431
 5398 18c0 00C0      		rjmp .L1016
 5399               	.L456:
 5400 18c2 9736      		cpi r25,lo8(103)
 5401 18c4 01F4      		brne .+2
 5402 18c6 00C0      		rjmp .L450
 5403 18c8 9836      		cpi r25,lo8(104)
 5404 18ca 00F4      		brsh .L461
 5405 18cc 9835      		cpi r25,lo8(88)
 5406 18ce 01F4      		brne .+2
 5407 18d0 00C0      		rjmp .L447
 5408 18d2 9935      		cpi r25,lo8(89)
 5409 18d4 00F4      		brsh .L462
 5410 18d6 9435      		cpi r25,lo8(84)
 5411 18d8 01F4      		brne .+2
 5412 18da 00C0      		rjmp .L445
 5413 18dc 9635      		cpi r25,lo8(86)
 5414 18de 01F0      		breq .+4
 5415 18e0 0C94 0000 		jmp .L431
 5416 18e4 00C0      		rjmp .L1017
 5417               	.L462:
 5418 18e6 9236      		cpi r25,lo8(98)
 5419 18e8 01F4      		brne .+2
 5420 18ea 00C0      		rjmp .L448
 5421 18ec 9436      		cpi r25,lo8(100)
 5422 18ee 01F0      		breq .+4
 5423 18f0 0C94 0000 		jmp .L431
 5424 18f4 00C0      		rjmp .L1018
 5425               	.L461:
 5426 18f6 9237      		cpi r25,lo8(114)
 5427 18f8 01F0      		breq .L453
 5428 18fa 9337      		cpi r25,lo8(115)
 5429 18fc 00F4      		brsh .L463
 5430 18fe 9936      		cpi r25,lo8(105)
 5431 1900 01F0      		breq .L451
 5432 1902 9037      		cpi r25,lo8(112)
 5433 1904 01F0      		breq .+4
 5434 1906 0C94 0000 		jmp .L431
 5435 190a 00C0      		rjmp .L1019
 5436               	.L463:
 5437 190c 9337      		cpi r25,lo8(115)
 5438 190e 01F4      		brne .+2
 5439 1910 00C0      		rjmp .L454
 5440 1912 9437      		cpi r25,lo8(116)
 5441 1914 01F0      		breq .+4
 5442 1916 0C94 0000 		jmp .L431
 5443 191a 0C94 0000 		jmp .L1020
 5444               	.L453:
 5445 191e 20E0      		ldi r18,lo8(0)
 5446               	.LVL318:
 5447 1920 00C0      		rjmp .L464
 5448               	.LVL319:
 5449               	.L451:
 5450 1922 00E0      		ldi r16,lo8(0)
 5451 1924 10E0      		ldi r17,hi8(0)
 5452               	.LVL320:
 5453 1926 00C0      		rjmp .L465
 5454               	.LVL321:
 5455               	.L1013:
 5456               	.LM783:
 5457 1928 0E94 0000 		call updateAccel
 5458               	.LVL322:
 5459               	.LM784:
 5460 192c 9091 0000 		lds r25,_acc
 5461               	.L466:
 5462               	.LBB781:
 5463               	.LBB782:
 5464               	.LM785:
 5465 1930 8091 B109 		lds r24,2481
 5466 1934 85FF      		sbrs r24,5
 5467 1936 00C0      		rjmp .L466
 5468               	.LM786:
 5469 1938 9093 B009 		sts 2480,r25
 5470               	.LBE782:
 5471               	.LBE781:
 5472               	.LM787:
 5473 193c 9091 0000 		lds r25,_acc+1
 5474               	.L467:
 5475               	.LBB783:
 5476               	.LBB784:
 5477               	.LM788:
 5478 1940 8091 B109 		lds r24,2481
 5479 1944 85FF      		sbrs r24,5
 5480 1946 00C0      		rjmp .L467
 5481               	.LM789:
 5482 1948 9093 B009 		sts 2480,r25
 5483               	.LBE784:
 5484               	.LBE783:
 5485               	.LM790:
 5486 194c 9091 0000 		lds r25,_acc+2
 5487               	.L468:
 5488               	.LBB785:
 5489               	.LBB786:
 5490               	.LM791:
 5491 1950 8091 B109 		lds r24,2481
 5492 1954 85FF      		sbrs r24,5
 5493 1956 00C0      		rjmp .L468
 5494               	.LM792:
 5495 1958 9093 B009 		sts 2480,r25
 5496               	.LBE786:
 5497               	.LBE785:
 5498               	.LM793:
 5499 195c 9091 0000 		lds r25,_acc+3
 5500               	.L469:
 5501               	.LBB787:
 5502               	.LBB788:
 5503               	.LM794:
 5504 1960 8091 B109 		lds r24,2481
 5505 1964 85FF      		sbrs r24,5
 5506 1966 00C0      		rjmp .L469
 5507 1968 00C0      		rjmp .L1009
 5508               	.LVL323:
 5509               	.L436:
 5510               	.LBE788:
 5511               	.LBE787:
 5512               	.LM795:
 5513 196a 80EB      		ldi r24,lo8(2480)
 5514 196c 99E0      		ldi r25,hi8(2480)
 5515 196e 0E94 0000 		call uart_getchar_timeout
 5516               	.LVL324:
 5517 1972 8C01      		movw r16,r24
 5518               	.LVL325:
 5519               	.LM796:
 5520 1974 31E0      		ldi r19,hi8(256)
 5521 1976 8030      		cpi r24,lo8(256)
 5522 1978 9307      		cpc r25,r19
 5523 197a 01F4      		brne .L772
 5524               	.LVL326:
 5525               	.L769:
 5526               	.LBB789:
 5527               	.LBB790:
 5528               	.LM797:
 5529 197c 8091 B109 		lds r24,2481
 5530               	.LVL327:
 5531 1980 85FF      		sbrs r24,5
 5532 1982 00C0      		rjmp .L769
 5533               	.LM798:
 5534 1984 8092 B009 		sts 2480,r8
 5535               	.L473:
 5536               	.LBE790:
 5537               	.LBE789:
 5538               	.LBB791:
 5539               	.LBB792:
 5540               	.LM799:
 5541 1988 8091 B109 		lds r24,2481
 5542 198c 85FF      		sbrs r24,5
 5543 198e 00C0      		rjmp .L473
 5544               	.LM800:
 5545 1990 9092 B009 		sts 2480,r9
 5546               	.L474:
 5547               	.LBE792:
 5548               	.LBE791:
 5549               	.LBB793:
 5550               	.LBB794:
 5551               	.LM801:
 5552 1994 8091 B109 		lds r24,2481
 5553 1998 85FF      		sbrs r24,5
 5554 199a 00C0      		rjmp .L474
 5555 199c 00C0      		rjmp .L1004
 5556               	.LVL328:
 5557               	.L772:
 5558               	.LBE794:
 5559               	.LBE793:
 5560               	.LBB795:
 5561               	.LBB796:
 5562 199e 8091 B109 		lds r24,2481
 5563               	.LVL329:
 5564 19a2 85FF      		sbrs r24,5
 5565 19a4 00C0      		rjmp .L772
 5566               	.LM802:
 5567 19a6 0093 B009 		sts 2480,r16
 5568               	.LBE796:
 5569               	.LBE795:
 5570               	.LM803:
 5571 19aa 80EB      		ldi r24,lo8(2480)
 5572 19ac 99E0      		ldi r25,hi8(2480)
 5573 19ae 0E94 0000 		call uart_getchar_timeout
 5574 19b2 9C01      		movw r18,r24
 5575 19b4 6C01      		movw r12,r24
 5576               	.LM804:
 5577 19b6 41E0      		ldi r20,hi8(256)
 5578 19b8 8030      		cpi r24,lo8(256)
 5579 19ba 9407      		cpc r25,r20
 5580 19bc 01F4      		brne .L771
 5581               	.LVL330:
 5582               	.L770:
 5583               	.LBB797:
 5584               	.LBB798:
 5585               	.LM805:
 5586 19be 8091 B109 		lds r24,2481
 5587 19c2 85FF      		sbrs r24,5
 5588 19c4 00C0      		rjmp .L770
 5589               	.LM806:
 5590 19c6 8092 B009 		sts 2480,r8
 5591               	.L477:
 5592               	.LBE798:
 5593               	.LBE797:
 5594               	.LBB799:
 5595               	.LBB800:
 5596               	.LM807:
 5597 19ca 8091 B109 		lds r24,2481
 5598 19ce 85FF      		sbrs r24,5
 5599 19d0 00C0      		rjmp .L477
 5600               	.LM808:
 5601 19d2 9092 B009 		sts 2480,r9
 5602               	.L478:
 5603               	.LBE800:
 5604               	.LBE799:
 5605               	.LBB801:
 5606               	.LBB802:
 5607               	.LM809:
 5608 19d6 8091 B109 		lds r24,2481
 5609 19da 85FF      		sbrs r24,5
 5610 19dc 00C0      		rjmp .L478
 5611 19de 00C0      		rjmp .L1004
 5612               	.LVL331:
 5613               	.L771:
 5614               	.LBE802:
 5615               	.LBE801:
 5616               	.LBB803:
 5617               	.LBB804:
 5618 19e0 8091 B109 		lds r24,2481
 5619 19e4 85FF      		sbrs r24,5
 5620 19e6 00C0      		rjmp .L771
 5621               	.LM810:
 5622 19e8 2093 B009 		sts 2480,r18
 5623               	.LBE804:
 5624               	.LBE803:
 5625               	.LM811:
 5626 19ec 902F      		mov r25,r16
 5627 19ee 8827      		clr r24
 5628 19f0 280F      		add r18,r24
 5629 19f2 391F      		adc r19,r25
 5630               	.LVL332:
 5631               	.LBB805:
 5632               	.LBB806:
 5633               	.LM812:
 5634 19f4 8091 4109 		lds r24,2369
 5635 19f8 8061      		ori r24,lo8(16)
 5636 19fa 8093 4109 		sts 2369,r24
 5637               	.LM813:
 5638               	/* #APP */
 5639               	 ;  20 "buzzer.c" 1
 5640 19fe F894      		cli
 5641               	 ;  0 "" 2
 5642               	.LM814:
 5643               	/* #NOAPP */
 5644 1a00 2093 6809 		sts 2408,r18
 5645 1a04 3093 6909 		sts (2408)+1,r19
 5646               	.LM815:
 5647               	/* #APP */
 5648               	 ;  22 "buzzer.c" 1
 5649 1a08 7894      		sei
 5650               	 ;  0 "" 2
 5651               	/* #NOAPP */
 5652 1a0a 00C0      		rjmp .L431
 5653               	.LVL333:
 5654               	.L448:
 5655               	.LBE806:
 5656               	.LBE805:
 5657               	.LBB807:
 5658               	.LBB808:
 5659               	.LM816:
 5660 1a0c 8091 4109 		lds r24,2369
 5661 1a10 8F7E      		andi r24,lo8(-17)
 5662 1a12 8093 4109 		sts 2369,r24
 5663               	.LM817:
 5664 1a16 8091 6606 		lds r24,1638
 5665 1a1a 8061      		ori r24,lo8(16)
 5666 1a1c 8093 6606 		sts 1638,r24
 5667 1a20 00C0      		rjmp .L431
 5668               	.L440:
 5669               	.LBE808:
 5670               	.LBE807:
 5671               	.LM818:
 5672 1a22 80E3      		ldi r24,lo8(48)
 5673 1a24 0E94 0000 		call read_analog
 5674               	.LVL334:
 5675 1a28 982F      		mov r25,r24
 5676               	.L479:
 5677               	.LBB809:
 5678               	.LBB810:
 5679               	.LM819:
 5680 1a2a 8091 B109 		lds r24,2481
 5681 1a2e 85FF      		sbrs r24,5
 5682 1a30 00C0      		rjmp .L479
 5683 1a32 00C0      		rjmp .L1009
 5684               	.LVL335:
 5685               	.L445:
 5686               	.LBE810:
 5687               	.LBE809:
 5688               	.LM820:
 5689 1a34 0E94 0000 		call read_internal_temperature
 5690               	.LVL336:
 5691 1a38 982F      		mov r25,r24
 5692               	.L480:
 5693               	.LBB811:
 5694               	.LBB812:
 5695               	.LM821:
 5696 1a3a 8091 B109 		lds r24,2481
 5697 1a3e 85FF      		sbrs r24,5
 5698 1a40 00C0      		rjmp .L480
 5699 1a42 00C0      		rjmp .L1009
 5700               	.LVL337:
 5701               	.L1017:
 5702               	.LBE812:
 5703               	.LBE811:
 5704               	.LM822:
 5705 1a44 88E3      		ldi r24,lo8(56)
 5706 1a46 0E94 0000 		call read_analog
 5707               	.LVL338:
 5708 1a4a 982F      		mov r25,r24
 5709               	.L481:
 5710               	.LBB813:
 5711               	.LBB814:
 5712               	.LM823:
 5713 1a4c 8091 B109 		lds r24,2481
 5714 1a50 85FF      		sbrs r24,5
 5715 1a52 00C0      		rjmp .L481
 5716 1a54 00C0      		rjmp .L1009
 5717               	.LVL339:
 5718               	.L447:
 5719               	.LBE814:
 5720               	.LBE813:
 5721               	.LM824:
 5722 1a56 80E0      		ldi r24,lo8(0)
 5723 1a58 0E94 0000 		call read_analog
 5724               	.LVL340:
 5725 1a5c 982F      		mov r25,r24
 5726               	.L482:
 5727               	.LBB815:
 5728               	.LBB816:
 5729               	.LM825:
 5730 1a5e 8091 B109 		lds r24,2481
 5731 1a62 85FF      		sbrs r24,5
 5732 1a64 00C0      		rjmp .L482
 5733               	.LM826:
 5734 1a66 9093 B009 		sts 2480,r25
 5735               	.LBE816:
 5736               	.LBE815:
 5737               	.LM827:
 5738 1a6a 88E0      		ldi r24,lo8(8)
 5739 1a6c 0E94 0000 		call read_analog
 5740 1a70 982F      		mov r25,r24
 5741               	.L483:
 5742               	.LBB817:
 5743               	.LBB818:
 5744               	.LM828:
 5745 1a72 8091 B109 		lds r24,2481
 5746 1a76 85FF      		sbrs r24,5
 5747 1a78 00C0      		rjmp .L483
 5748               	.LM829:
 5749 1a7a 9093 B009 		sts 2480,r25
 5750               	.LBE818:
 5751               	.LBE817:
 5752               	.LM830:
 5753 1a7e 80E1      		ldi r24,lo8(16)
 5754 1a80 0E94 0000 		call read_analog
 5755 1a84 982F      		mov r25,r24
 5756               	.L484:
 5757               	.LBB819:
 5758               	.LBB820:
 5759               	.LM831:
 5760 1a86 8091 B109 		lds r24,2481
 5761 1a8a 85FF      		sbrs r24,5
 5762 1a8c 00C0      		rjmp .L484
 5763               	.LM832:
 5764 1a8e 9093 B009 		sts 2480,r25
 5765               	.LBE820:
 5766               	.LBE819:
 5767               	.LM833:
 5768 1a92 88E1      		ldi r24,lo8(24)
 5769 1a94 0E94 0000 		call read_analog
 5770 1a98 982F      		mov r25,r24
 5771               	.L485:
 5772               	.LBB821:
 5773               	.LBB822:
 5774               	.LM834:
 5775 1a9a 8091 B109 		lds r24,2481
 5776 1a9e 85FF      		sbrs r24,5
 5777 1aa0 00C0      		rjmp .L485
 5778               	.LM835:
 5779 1aa2 9093 B009 		sts 2480,r25
 5780               	.LBE822:
 5781               	.LBE821:
 5782               	.LM836:
 5783 1aa6 80E2      		ldi r24,lo8(32)
 5784 1aa8 0E94 0000 		call read_analog
 5785 1aac 982F      		mov r25,r24
 5786               	.L486:
 5787               	.LBB823:
 5788               	.LBB824:
 5789               	.LM837:
 5790 1aae 8091 B109 		lds r24,2481
 5791 1ab2 85FF      		sbrs r24,5
 5792 1ab4 00C0      		rjmp .L486
 5793               	.LM838:
 5794 1ab6 9093 B009 		sts 2480,r25
 5795               	.LBE824:
 5796               	.LBE823:
 5797               	.LM839:
 5798 1aba 80E2      		ldi r24,lo8(32)
 5799 1abc 0E94 0000 		call read_analog
 5800 1ac0 982F      		mov r25,r24
 5801               	.L487:
 5802               	.LBB825:
 5803               	.LBB826:
 5804               	.LM840:
 5805 1ac2 8091 B109 		lds r24,2481
 5806 1ac6 85FF      		sbrs r24,5
 5807 1ac8 00C0      		rjmp .L487
 5808               	.L1009:
 5809               	.LM841:
 5810 1aca 9093 B009 		sts 2480,r25
 5811 1ace 00C0      		rjmp .L431
 5812               	.LVL341:
 5813               	.L1015:
 5814               	.LBE826:
 5815               	.LBE825:
 5816               	.LM842:
 5817 1ad0 80EB      		ldi r24,lo8(2480)
 5818 1ad2 99E0      		ldi r25,hi8(2480)
 5819 1ad4 0E94 0000 		call uart_getchar_timeout
 5820               	.LVL342:
 5821               	.LM843:
 5822 1ad8 51E0      		ldi r21,hi8(256)
 5823 1ada 8030      		cpi r24,lo8(256)
 5824 1adc 9507      		cpc r25,r21
 5825               	.LVL343:
 5826 1ade 01F4      		brne .L488
 5827               	.L766:
 5828               	.LBB827:
 5829               	.LBB828:
 5830               	.LM844:
 5831 1ae0 8091 B109 		lds r24,2481
 5832               	.LVL344:
 5833 1ae4 85FF      		sbrs r24,5
 5834 1ae6 00C0      		rjmp .L766
 5835               	.LM845:
 5836 1ae8 8092 B009 		sts 2480,r8
 5837               	.L490:
 5838               	.LBE828:
 5839               	.LBE827:
 5840               	.LBB829:
 5841               	.LBB830:
 5842               	.LM846:
 5843 1aec 8091 B109 		lds r24,2481
 5844 1af0 85FF      		sbrs r24,5
 5845 1af2 00C0      		rjmp .L490
 5846               	.LM847:
 5847 1af4 9092 B009 		sts 2480,r9
 5848               	.L491:
 5849               	.LBE830:
 5850               	.LBE829:
 5851               	.LBB831:
 5852               	.LBB832:
 5853               	.LM848:
 5854 1af8 8091 B109 		lds r24,2481
 5855 1afc 85FF      		sbrs r24,5
 5856 1afe 00C0      		rjmp .L491
 5857 1b00 00C0      		rjmp .L1004
 5858               	.LVL345:
 5859               	.L488:
 5860               	.LBE832:
 5861               	.LBE831:
 5862               	.LM849:
 5863 1b02 082F      		mov r16,r24
 5864               	.LVL346:
 5865               	.L492:
 5866               	.LBB833:
 5867               	.LBB834:
 5868               	.LM850:
 5869 1b04 8091 B109 		lds r24,2481
 5870               	.LVL347:
 5871 1b08 85FF      		sbrs r24,5
 5872 1b0a 00C0      		rjmp .L492
 5873               	.LM851:
 5874 1b0c 0093 B009 		sts 2480,r16
 5875               	.LBE834:
 5876               	.LBE833:
 5877               	.LM852:
 5878 1b10 80EB      		ldi r24,lo8(2480)
 5879 1b12 99E0      		ldi r25,hi8(2480)
 5880 1b14 0E94 0000 		call uart_getchar_timeout
 5881               	.LM853:
 5882 1b18 61E0      		ldi r22,hi8(256)
 5883 1b1a 8030      		cpi r24,lo8(256)
 5884 1b1c 9607      		cpc r25,r22
 5885               	.LVL348:
 5886 1b1e 01F4      		brne .L493
 5887               	.L767:
 5888               	.LBB835:
 5889               	.LBB836:
 5890               	.LM854:
 5891 1b20 8091 B109 		lds r24,2481
 5892               	.LVL349:
 5893 1b24 85FF      		sbrs r24,5
 5894 1b26 00C0      		rjmp .L767
 5895               	.LM855:
 5896 1b28 8092 B009 		sts 2480,r8
 5897               	.L495:
 5898               	.LBE836:
 5899               	.LBE835:
 5900               	.LBB837:
 5901               	.LBB838:
 5902               	.LM856:
 5903 1b2c 8091 B109 		lds r24,2481
 5904 1b30 85FF      		sbrs r24,5
 5905 1b32 00C0      		rjmp .L495
 5906               	.LM857:
 5907 1b34 9092 B009 		sts 2480,r9
 5908               	.L496:
 5909               	.LBE838:
 5910               	.LBE837:
 5911               	.LBB839:
 5912               	.LBB840:
 5913               	.LM858:
 5914 1b38 8091 B109 		lds r24,2481
 5915 1b3c 85FF      		sbrs r24,5
 5916 1b3e 00C0      		rjmp .L496
 5917 1b40 00C0      		rjmp .L1004
 5918               	.LVL350:
 5919               	.L493:
 5920               	.LBE840:
 5921               	.LBE839:
 5922               	.LM859:
 5923 1b42 182F      		mov r17,r24
 5924               	.L497:
 5925               	.LBB841:
 5926               	.LBB842:
 5927               	.LM860:
 5928 1b44 8091 B109 		lds r24,2481
 5929               	.LVL351:
 5930 1b48 85FF      		sbrs r24,5
 5931 1b4a 00C0      		rjmp .L497
 5932               	.LM861:
 5933 1b4c 1093 B009 		sts 2480,r17
 5934               	.LBE842:
 5935               	.LBE841:
 5936               	.LM862:
 5937 1b50 80EB      		ldi r24,lo8(2480)
 5938 1b52 99E0      		ldi r25,hi8(2480)
 5939 1b54 0E94 0000 		call uart_getchar_timeout
 5940               	.LM863:
 5941 1b58 E1E0      		ldi r30,hi8(256)
 5942 1b5a 8030      		cpi r24,lo8(256)
 5943 1b5c 9E07      		cpc r25,r30
 5944               	.LVL352:
 5945 1b5e 01F4      		brne .L498
 5946               	.L768:
 5947               	.LBB843:
 5948               	.LBB844:
 5949               	.LM864:
 5950 1b60 8091 B109 		lds r24,2481
 5951               	.LVL353:
 5952 1b64 85FF      		sbrs r24,5
 5953 1b66 00C0      		rjmp .L768
 5954               	.LM865:
 5955 1b68 8092 B009 		sts 2480,r8
 5956               	.L500:
 5957               	.LBE844:
 5958               	.LBE843:
 5959               	.LBB845:
 5960               	.LBB846:
 5961               	.LM866:
 5962 1b6c 8091 B109 		lds r24,2481
 5963 1b70 85FF      		sbrs r24,5
 5964 1b72 00C0      		rjmp .L500
 5965               	.LM867:
 5966 1b74 9092 B009 		sts 2480,r9
 5967               	.L501:
 5968               	.LBE846:
 5969               	.LBE845:
 5970               	.LBB847:
 5971               	.LBB848:
 5972               	.LM868:
 5973 1b78 8091 B109 		lds r24,2481
 5974 1b7c 85FF      		sbrs r24,5
 5975 1b7e 00C0      		rjmp .L501
 5976 1b80 00C0      		rjmp .L1004
 5977               	.LVL354:
 5978               	.L498:
 5979               	.LBE848:
 5980               	.LBE847:
 5981               	.LM869:
 5982 1b82 982F      		mov r25,r24
 5983               	.L502:
 5984               	.LBB849:
 5985               	.LBB850:
 5986               	.LM870:
 5987 1b84 8091 B109 		lds r24,2481
 5988               	.LVL355:
 5989 1b88 85FF      		sbrs r24,5
 5990 1b8a 00C0      		rjmp .L502
 5991               	.LM871:
 5992 1b8c 9093 B009 		sts 2480,r25
 5993               	.LBE850:
 5994               	.LBE849:
 5995               	.LBB851:
 5996               	.LBB852:
 5997               	.LM872:
 5998 1b90 0095      		com r16
 5999 1b92 0093 3909 		sts 2361,r16
 6000               	.LM873:
 6001 1b96 9095      		com r25
 6002 1b98 9093 3B09 		sts 2363,r25
 6003               	.LM874:
 6004 1b9c 1095      		com r17
 6005 1b9e 1093 3D09 		sts 2365,r17
 6006 1ba2 00C0      		rjmp .L431
 6007               	.LVL356:
 6008               	.L439:
 6009               	.LBE852:
 6010               	.LBE851:
 6011               	.LM875:
 6012 1ba4 80EB      		ldi r24,lo8(2480)
 6013 1ba6 99E0      		ldi r25,hi8(2480)
 6014 1ba8 0E94 0000 		call uart_getchar_timeout
 6015               	.LVL357:
 6016 1bac 8C01      		movw r16,r24
 6017               	.LVL358:
 6018 1bae 5C01      		movw r10,r24
 6019               	.LM876:
 6020 1bb0 F1E0      		ldi r31,hi8(256)
 6021 1bb2 8030      		cpi r24,lo8(256)
 6022 1bb4 9F07      		cpc r25,r31
 6023 1bb6 01F4      		brne .L761
 6024               	.L738:
 6025               	.LBB853:
 6026               	.LBB854:
 6027               	.LM877:
 6028 1bb8 8091 B109 		lds r24,2481
 6029 1bbc 85FF      		sbrs r24,5
 6030 1bbe 00C0      		rjmp .L738
 6031               	.LM878:
 6032 1bc0 8092 B009 		sts 2480,r8
 6033               	.L505:
 6034               	.LBE854:
 6035               	.LBE853:
 6036               	.LBB855:
 6037               	.LBB856:
 6038               	.LM879:
 6039 1bc4 8091 B109 		lds r24,2481
 6040 1bc8 85FF      		sbrs r24,5
 6041 1bca 00C0      		rjmp .L505
 6042               	.LM880:
 6043 1bcc 9092 B009 		sts 2480,r9
 6044               	.L506:
 6045               	.LBE856:
 6046               	.LBE855:
 6047               	.LBB857:
 6048               	.LBB858:
 6049               	.LM881:
 6050 1bd0 8091 B109 		lds r24,2481
 6051 1bd4 85FF      		sbrs r24,5
 6052 1bd6 00C0      		rjmp .L506
 6053 1bd8 00C0      		rjmp .L1004
 6054               	.LVL359:
 6055               	.L761:
 6056               	.LBE858:
 6057               	.LBE857:
 6058               	.LBB859:
 6059               	.LBB860:
 6060 1bda 8091 B109 		lds r24,2481
 6061 1bde 85FF      		sbrs r24,5
 6062 1be0 00C0      		rjmp .L761
 6063               	.LM882:
 6064 1be2 0093 B009 		sts 2480,r16
 6065               	.LBE860:
 6066               	.LBE859:
 6067               	.LM883:
 6068 1be6 80EB      		ldi r24,lo8(2480)
 6069 1be8 99E0      		ldi r25,hi8(2480)
 6070 1bea 0E94 0000 		call uart_getchar_timeout
 6071 1bee 9C01      		movw r18,r24
 6072 1bf0 6C01      		movw r12,r24
 6073               	.LM884:
 6074 1bf2 41E0      		ldi r20,hi8(256)
 6075 1bf4 8030      		cpi r24,lo8(256)
 6076 1bf6 9407      		cpc r25,r20
 6077 1bf8 01F4      		brne .L760
 6078               	.LVL360:
 6079               	.L739:
 6080               	.LBB861:
 6081               	.LBB862:
 6082               	.LM885:
 6083 1bfa 8091 B109 		lds r24,2481
 6084 1bfe 85FF      		sbrs r24,5
 6085 1c00 00C0      		rjmp .L739
 6086               	.LM886:
 6087 1c02 8092 B009 		sts 2480,r8
 6088               	.L509:
 6089               	.LBE862:
 6090               	.LBE861:
 6091               	.LBB863:
 6092               	.LBB864:
 6093               	.LM887:
 6094 1c06 8091 B109 		lds r24,2481
 6095 1c0a 85FF      		sbrs r24,5
 6096 1c0c 00C0      		rjmp .L509
 6097               	.LM888:
 6098 1c0e 9092 B009 		sts 2480,r9
 6099               	.L510:
 6100               	.LBE864:
 6101               	.LBE863:
 6102               	.LBB865:
 6103               	.LBB866:
 6104               	.LM889:
 6105 1c12 8091 B109 		lds r24,2481
 6106 1c16 85FF      		sbrs r24,5
 6107 1c18 00C0      		rjmp .L510
 6108 1c1a 00C0      		rjmp .L1004
 6109               	.LVL361:
 6110               	.L760:
 6111               	.LBE866:
 6112               	.LBE865:
 6113               	.LBB867:
 6114               	.LBB868:
 6115 1c1c 8091 B109 		lds r24,2481
 6116 1c20 85FF      		sbrs r24,5
 6117 1c22 00C0      		rjmp .L760
 6118               	.LM890:
 6119 1c24 2093 B009 		sts 2480,r18
 6120               	.LBE868:
 6121               	.LBE867:
 6122               	.LM891:
 6123 1c28 902F      		mov r25,r16
 6124 1c2a 8827      		clr r24
 6125 1c2c 820F      		add r24,r18
 6126 1c2e 931F      		adc r25,r19
 6127 1c30 8093 0000 		sts robotData,r24
 6128 1c34 9093 0000 		sts (robotData)+1,r25
 6129               	.LBB869:
 6130               	.LBB870:
 6131               	.LM892:
 6132               	/* #APP */
 6133               	 ;  50 "ir.c" 1
 6134 1c38 F894      		cli
 6135               	 ;  0 "" 2
 6136               	.LM893:
 6137               	/* #NOAPP */
 6138 1c3a 8093 3608 		sts 2102,r24
 6139 1c3e 9093 3708 		sts (2102)+1,r25
 6140               	.LM894:
 6141               	/* #APP */
 6142               	 ;  52 "ir.c" 1
 6143 1c42 7894      		sei
 6144               	 ;  0 "" 2
 6145               	/* #NOAPP */
 6146               	.LBE870:
 6147               	.LBE869:
 6148               	.LM895:
 6149 1c44 80EB      		ldi r24,lo8(2480)
 6150 1c46 99E0      		ldi r25,hi8(2480)
 6151 1c48 0E94 0000 		call uart_getchar_timeout
 6152 1c4c 6C01      		movw r12,r24
 6153               	.LM896:
 6154 1c4e 51E0      		ldi r21,hi8(256)
 6155 1c50 8030      		cpi r24,lo8(256)
 6156 1c52 9507      		cpc r25,r21
 6157 1c54 01F4      		brne .L511
 6158               	.L740:
 6159               	.LBB871:
 6160               	.LBB872:
 6161               	.LM897:
 6162 1c56 8091 B109 		lds r24,2481
 6163 1c5a 85FF      		sbrs r24,5
 6164 1c5c 00C0      		rjmp .L740
 6165               	.LM898:
 6166 1c5e 8092 B009 		sts 2480,r8
 6167               	.L513:
 6168               	.LBE872:
 6169               	.LBE871:
 6170               	.LBB873:
 6171               	.LBB874:
 6172               	.LM899:
 6173 1c62 8091 B109 		lds r24,2481
 6174 1c66 85FF      		sbrs r24,5
 6175 1c68 00C0      		rjmp .L513
 6176               	.LM900:
 6177 1c6a 9092 B009 		sts 2480,r9
 6178               	.L514:
 6179               	.LBE874:
 6180               	.LBE873:
 6181               	.LBB875:
 6182               	.LBB876:
 6183               	.LM901:
 6184 1c6e 8091 B109 		lds r24,2481
 6185 1c72 85FF      		sbrs r24,5
 6186 1c74 00C0      		rjmp .L514
 6187 1c76 00C0      		rjmp .L1004
 6188               	.LVL362:
 6189               	.L511:
 6190               	.LBE876:
 6191               	.LBE875:
 6192               	.LM902:
 6193 1c78 982F      		mov r25,r24
 6194 1c7a C092 0000 		sts robotData+2,r12
 6195               	.LVL363:
 6196               	.L515:
 6197               	.LBB877:
 6198               	.LBB878:
 6199               	.LM903:
 6200 1c7e 8091 B109 		lds r24,2481
 6201 1c82 85FF      		sbrs r24,5
 6202 1c84 00C0      		rjmp .L515
 6203               	.LM904:
 6204 1c86 9093 B009 		sts 2480,r25
 6205               	.LBE878:
 6206               	.LBE877:
 6207               	.LM905:
 6208 1c8a 9131      		cpi r25,lo8(17)
 6209 1c8c 00F4      		brsh .L741
 6210 1c8e F0E0      		ldi r31,lo8(robotData+3)
 6211 1c90 6F2E      		mov r6,r31
 6212 1c92 F0E0      		ldi r31,hi8(robotData+3)
 6213 1c94 7F2E      		mov r7,r31
 6214 1c96 00E0      		ldi r16,lo8(0)
 6215 1c98 10E0      		ldi r17,hi8(0)
 6216               	.LVL364:
 6217 1c9a 00C0      		rjmp .L517
 6218               	.LVL365:
 6219               	.L741:
 6220               	.LBB879:
 6221               	.LBB880:
 6222               	.LM906:
 6223 1c9c 8091 B109 		lds r24,2481
 6224 1ca0 85FF      		sbrs r24,5
 6225 1ca2 00C0      		rjmp .L741
 6226 1ca4 00C0      		rjmp .L1004
 6227               	.LVL366:
 6228               	.L526:
 6229               	.LBE880:
 6230               	.LBE879:
 6231               	.LM907:
 6232 1ca6 80EB      		ldi r24,lo8(2480)
 6233 1ca8 99E0      		ldi r25,hi8(2480)
 6234 1caa 0E94 0000 		call uart_getchar_timeout
 6235               	.LVL367:
 6236 1cae F82E      		mov r15,r24
 6237               	.LVL368:
 6238 1cb0 5C01      		movw r10,r24
 6239               	.LM908:
 6240 1cb2 60E0      		ldi r22,lo8(256)
 6241 1cb4 A616      		cp r10,r22
 6242 1cb6 61E0      		ldi r22,hi8(256)
 6243 1cb8 B606      		cpc r11,r22
 6244 1cba 01F4      		brne .L759
 6245               	.LVL369:
 6246               	.L742:
 6247               	.LBB881:
 6248               	.LBB882:
 6249               	.LM909:
 6250 1cbc 8091 B109 		lds r24,2481
 6251 1cc0 85FF      		sbrs r24,5
 6252 1cc2 00C0      		rjmp .L742
 6253               	.LM910:
 6254 1cc4 8092 B009 		sts 2480,r8
 6255               	.L520:
 6256               	.LBE882:
 6257               	.LBE881:
 6258               	.LBB883:
 6259               	.LBB884:
 6260               	.LM911:
 6261 1cc8 8091 B109 		lds r24,2481
 6262 1ccc 85FF      		sbrs r24,5
 6263 1cce 00C0      		rjmp .L520
 6264               	.LM912:
 6265 1cd0 9092 B009 		sts 2480,r9
 6266               	.L521:
 6267               	.LBE884:
 6268               	.LBE883:
 6269               	.LBB885:
 6270               	.LBB886:
 6271               	.LM913:
 6272 1cd4 8091 B109 		lds r24,2481
 6273 1cd8 85FF      		sbrs r24,5
 6274 1cda 00C0      		rjmp .L521
 6275 1cdc 00C0      		rjmp .L1004
 6276               	.LVL370:
 6277               	.L759:
 6278               	.LBE886:
 6279               	.LBE885:
 6280               	.LBB887:
 6281               	.LBB888:
 6282 1cde 8091 B109 		lds r24,2481
 6283 1ce2 85FF      		sbrs r24,5
 6284 1ce4 00C0      		rjmp .L759
 6285               	.LM914:
 6286 1ce6 F092 B009 		sts 2480,r15
 6287               	.LBE888:
 6288               	.LBE887:
 6289               	.LM915:
 6290 1cea 80EB      		ldi r24,lo8(2480)
 6291 1cec 99E0      		ldi r25,hi8(2480)
 6292 1cee 0E94 0000 		call uart_getchar_timeout
 6293 1cf2 9C01      		movw r18,r24
 6294 1cf4 6C01      		movw r12,r24
 6295               	.LM916:
 6296 1cf6 81E0      		ldi r24,hi8(256)
 6297 1cf8 2030      		cpi r18,lo8(256)
 6298 1cfa 3807      		cpc r19,r24
 6299 1cfc 01F4      		brne .L758
 6300               	.LVL371:
 6301               	.L743:
 6302               	.LBB889:
 6303               	.LBB890:
 6304               	.LM917:
 6305 1cfe 8091 B109 		lds r24,2481
 6306 1d02 85FF      		sbrs r24,5
 6307 1d04 00C0      		rjmp .L743
 6308               	.LM918:
 6309 1d06 8092 B009 		sts 2480,r8
 6310               	.L524:
 6311               	.LBE890:
 6312               	.LBE889:
 6313               	.LBB891:
 6314               	.LBB892:
 6315               	.LM919:
 6316 1d0a 8091 B109 		lds r24,2481
 6317 1d0e 85FF      		sbrs r24,5
 6318 1d10 00C0      		rjmp .L524
 6319               	.LM920:
 6320 1d12 9092 B009 		sts 2480,r9
 6321               	.L525:
 6322               	.LBE892:
 6323               	.LBE891:
 6324               	.LBB893:
 6325               	.LBB894:
 6326               	.LM921:
 6327 1d16 8091 B109 		lds r24,2481
 6328 1d1a 85FF      		sbrs r24,5
 6329 1d1c 00C0      		rjmp .L525
 6330 1d1e 00C0      		rjmp .L1004
 6331               	.L758:
 6332               	.LBE894:
 6333               	.LBE893:
 6334               	.LBB895:
 6335               	.LBB896:
 6336 1d20 8091 B109 		lds r24,2481
 6337 1d24 85FF      		sbrs r24,5
 6338 1d26 00C0      		rjmp .L758
 6339               	.LM922:
 6340 1d28 2093 B009 		sts 2480,r18
 6341               	.LBE896:
 6342               	.LBE895:
 6343               	.LM923:
 6344 1d2c 3F2C      		mov r3,r15
 6345 1d2e 2224      		clr r2
 6346 1d30 220D      		add r18,r2
 6347 1d32 331D      		adc r19,r3
 6348 1d34 F301      		movw r30,r6
 6349 1d36 2193      		st Z+,r18
 6350 1d38 3193      		st Z+,r19
 6351 1d3a 3F01      		movw r6,r30
 6352               	.LM924:
 6353 1d3c 0F5F      		subi r16,lo8(-(1))
 6354 1d3e 1F4F      		sbci r17,hi8(-(1))
 6355               	.LVL372:
 6356               	.L517:
 6357 1d40 8091 0000 		lds r24,robotData+2
 6358 1d44 90E0      		ldi r25,lo8(0)
 6359 1d46 0817      		cp r16,r24
 6360 1d48 1907      		cpc r17,r25
 6361 1d4a 04F4      		brge .+2
 6362 1d4c 00C0      		rjmp .L526
 6363               	.LM925:
 6364 1d4e F0E0      		ldi r31,lo8(256)
 6365 1d50 AF16      		cp r10,r31
 6366 1d52 F1E0      		ldi r31,hi8(256)
 6367 1d54 BF06      		cpc r11,r31
 6368 1d56 01F4      		brne .+2
 6369 1d58 00C0      		rjmp .L431
 6370 1d5a 20E0      		ldi r18,lo8(256)
 6371 1d5c C216      		cp r12,r18
 6372 1d5e 21E0      		ldi r18,hi8(256)
 6373 1d60 D206      		cpc r13,r18
 6374               	.LVL373:
 6375 1d62 01F4      		brne .+2
 6376 1d64 00C0      		rjmp .L431
 6377               	.LM926:
 6378 1d66 80EB      		ldi r24,lo8(2480)
 6379 1d68 99E0      		ldi r25,hi8(2480)
 6380 1d6a 0E94 0000 		call uart_getchar_timeout
 6381 1d6e 6C01      		movw r12,r24
 6382               	.LM927:
 6383 1d70 31E0      		ldi r19,hi8(256)
 6384 1d72 8030      		cpi r24,lo8(256)
 6385 1d74 9307      		cpc r25,r19
 6386 1d76 01F4      		brne .L527
 6387               	.L744:
 6388               	.LBB897:
 6389               	.LBB898:
 6390               	.LM928:
 6391 1d78 8091 B109 		lds r24,2481
 6392 1d7c 85FF      		sbrs r24,5
 6393 1d7e 00C0      		rjmp .L744
 6394               	.LM929:
 6395 1d80 8092 B009 		sts 2480,r8
 6396               	.L529:
 6397               	.LBE898:
 6398               	.LBE897:
 6399               	.LBB899:
 6400               	.LBB900:
 6401               	.LM930:
 6402 1d84 8091 B109 		lds r24,2481
 6403 1d88 85FF      		sbrs r24,5
 6404 1d8a 00C0      		rjmp .L529
 6405               	.LM931:
 6406 1d8c 9092 B009 		sts 2480,r9
 6407               	.L530:
 6408               	.LBE900:
 6409               	.LBE899:
 6410               	.LBB901:
 6411               	.LBB902:
 6412               	.LM932:
 6413 1d90 8091 B109 		lds r24,2481
 6414 1d94 85FF      		sbrs r24,5
 6415 1d96 00C0      		rjmp .L530
 6416 1d98 00C0      		rjmp .L1004
 6417               	.LVL374:
 6418               	.L527:
 6419               	.LBE902:
 6420               	.LBE901:
 6421               	.LM933:
 6422 1d9a 982F      		mov r25,r24
 6423 1d9c C092 0000 		sts robotData+35,r12
 6424               	.LVL375:
 6425               	.L531:
 6426               	.LBB903:
 6427               	.LBB904:
 6428               	.LM934:
 6429 1da0 8091 B109 		lds r24,2481
 6430 1da4 85FF      		sbrs r24,5
 6431 1da6 00C0      		rjmp .L531
 6432               	.LM935:
 6433 1da8 9093 B009 		sts 2480,r25
 6434               	.LBE904:
 6435               	.LBE903:
 6436               	.LM936:
 6437 1dac 80EB      		ldi r24,lo8(2480)
 6438 1dae 99E0      		ldi r25,hi8(2480)
 6439 1db0 0E94 0000 		call uart_getchar_timeout
 6440 1db4 6C01      		movw r12,r24
 6441               	.LM937:
 6442 1db6 41E0      		ldi r20,hi8(256)
 6443 1db8 8030      		cpi r24,lo8(256)
 6444 1dba 9407      		cpc r25,r20
 6445 1dbc 01F4      		brne .L532
 6446               	.L745:
 6447               	.LBB905:
 6448               	.LBB906:
 6449               	.LM938:
 6450 1dbe 8091 B109 		lds r24,2481
 6451 1dc2 85FF      		sbrs r24,5
 6452 1dc4 00C0      		rjmp .L745
 6453               	.LM939:
 6454 1dc6 8092 B009 		sts 2480,r8
 6455               	.L534:
 6456               	.LBE906:
 6457               	.LBE905:
 6458               	.LBB907:
 6459               	.LBB908:
 6460               	.LM940:
 6461 1dca 8091 B109 		lds r24,2481
 6462 1dce 85FF      		sbrs r24,5
 6463 1dd0 00C0      		rjmp .L534
 6464               	.LM941:
 6465 1dd2 9092 B009 		sts 2480,r9
 6466               	.L535:
 6467               	.LBE908:
 6468               	.LBE907:
 6469               	.LBB909:
 6470               	.LBB910:
 6471               	.LM942:
 6472 1dd6 8091 B109 		lds r24,2481
 6473 1dda 85FF      		sbrs r24,5
 6474 1ddc 00C0      		rjmp .L535
 6475 1dde 00C0      		rjmp .L1004
 6476               	.LVL376:
 6477               	.L532:
 6478               	.LBE910:
 6479               	.LBE909:
 6480               	.LM943:
 6481 1de0 282F      		mov r18,r24
 6482               	.LVL377:
 6483               	.L536:
 6484               	.LBB911:
 6485               	.LBB912:
 6486               	.LM944:
 6487 1de2 8091 B109 		lds r24,2481
 6488 1de6 85FF      		sbrs r24,5
 6489 1de8 00C0      		rjmp .L536
 6490               	.LM945:
 6491 1dea 2093 B009 		sts 2480,r18
 6492               	.LBE912:
 6493               	.LBE911:
 6494               	.LM946:
 6495 1dee 2093 0000 		sts robotData+36,r18
 6496               	.LM947:
 6497 1df2 822F      		mov r24,r18
 6498 1df4 90E0      		ldi r25,lo8(0)
 6499 1df6 0197      		sbiw r24,1
 6500 1df8 68E0      		ldi r22,lo8(8)
 6501 1dfa 70E0      		ldi r23,hi8(8)
 6502 1dfc 0E94 0000 		call __divmodhi4
 6503 1e00 6F5F      		subi r22,lo8(-(1))
 6504 1e02 6093 0000 		sts robotData+37,r22
 6505               	.L537:
 6506               	.LBB913:
 6507               	.LBB914:
 6508               	.LM948:
 6509 1e06 8091 B109 		lds r24,2481
 6510 1e0a 85FF      		sbrs r24,5
 6511 1e0c 00C0      		rjmp .L537
 6512               	.LM949:
 6513 1e0e 2093 B009 		sts 2480,r18
 6514               	.LBE914:
 6515               	.LBE913:
 6516               	.LM950:
 6517 1e12 80EB      		ldi r24,lo8(2480)
 6518 1e14 99E0      		ldi r25,hi8(2480)
 6519 1e16 0E94 0000 		call uart_getchar_timeout
 6520 1e1a 8C01      		movw r16,r24
 6521               	.LVL378:
 6522               	.LM951:
 6523 1e1c 51E0      		ldi r21,hi8(256)
 6524 1e1e 8030      		cpi r24,lo8(256)
 6525 1e20 9507      		cpc r25,r21
 6526 1e22 01F4      		brne .L757
 6527               	.L746:
 6528               	.LBB915:
 6529               	.LBB916:
 6530               	.LM952:
 6531 1e24 8091 B109 		lds r24,2481
 6532 1e28 85FF      		sbrs r24,5
 6533 1e2a 00C0      		rjmp .L746
 6534               	.LM953:
 6535 1e2c 8092 B009 		sts 2480,r8
 6536               	.L540:
 6537               	.LBE916:
 6538               	.LBE915:
 6539               	.LBB917:
 6540               	.LBB918:
 6541               	.LM954:
 6542 1e30 8091 B109 		lds r24,2481
 6543 1e34 85FF      		sbrs r24,5
 6544 1e36 00C0      		rjmp .L540
 6545               	.LM955:
 6546 1e38 9092 B009 		sts 2480,r9
 6547               	.L541:
 6548               	.LBE918:
 6549               	.LBE917:
 6550               	.LBB919:
 6551               	.LBB920:
 6552               	.LM956:
 6553 1e3c 8091 B109 		lds r24,2481
 6554 1e40 85FF      		sbrs r24,5
 6555 1e42 00C0      		rjmp .L541
 6556 1e44 00C0      		rjmp .L1004
 6557               	.LVL379:
 6558               	.L757:
 6559               	.LBE920:
 6560               	.LBE919:
 6561               	.LBB921:
 6562               	.LBB922:
 6563 1e46 8091 B109 		lds r24,2481
 6564 1e4a 85FF      		sbrs r24,5
 6565 1e4c 00C0      		rjmp .L757
 6566               	.LM957:
 6567 1e4e 0093 B009 		sts 2480,r16
 6568               	.LBE922:
 6569               	.LBE921:
 6570               	.LM958:
 6571 1e52 80EB      		ldi r24,lo8(2480)
 6572 1e54 99E0      		ldi r25,hi8(2480)
 6573 1e56 0E94 0000 		call uart_getchar_timeout
 6574 1e5a 9C01      		movw r18,r24
 6575 1e5c 6C01      		movw r12,r24
 6576               	.LM959:
 6577 1e5e 61E0      		ldi r22,hi8(256)
 6578 1e60 8030      		cpi r24,lo8(256)
 6579 1e62 9607      		cpc r25,r22
 6580 1e64 01F4      		brne .L756
 6581               	.LVL380:
 6582               	.L747:
 6583               	.LBB923:
 6584               	.LBB924:
 6585               	.LM960:
 6586 1e66 8091 B109 		lds r24,2481
 6587 1e6a 85FF      		sbrs r24,5
 6588 1e6c 00C0      		rjmp .L747
 6589               	.LM961:
 6590 1e6e 8092 B009 		sts 2480,r8
 6591               	.L544:
 6592               	.LBE924:
 6593               	.LBE923:
 6594               	.LBB925:
 6595               	.LBB926:
 6596               	.LM962:
 6597 1e72 8091 B109 		lds r24,2481
 6598 1e76 85FF      		sbrs r24,5
 6599 1e78 00C0      		rjmp .L544
 6600               	.LM963:
 6601 1e7a 9092 B009 		sts 2480,r9
 6602               	.L545:
 6603               	.LBE926:
 6604               	.LBE925:
 6605               	.LBB927:
 6606               	.LBB928:
 6607               	.LM964:
 6608 1e7e 8091 B109 		lds r24,2481
 6609 1e82 85FF      		sbrs r24,5
 6610 1e84 00C0      		rjmp .L545
 6611 1e86 00C0      		rjmp .L1004
 6612               	.LVL381:
 6613               	.L756:
 6614               	.LBE928:
 6615               	.LBE927:
 6616               	.LBB929:
 6617               	.LBB930:
 6618 1e88 8091 B109 		lds r24,2481
 6619 1e8c 85FF      		sbrs r24,5
 6620 1e8e 00C0      		rjmp .L756
 6621               	.LM965:
 6622 1e90 2093 B009 		sts 2480,r18
 6623               	.LBE930:
 6624               	.LBE929:
 6625               	.LM966:
 6626 1e94 902F      		mov r25,r16
 6627 1e96 8827      		clr r24
 6628 1e98 280F      		add r18,r24
 6629 1e9a 391F      		adc r19,r25
 6630               	.LVL382:
 6631 1e9c 2093 0000 		sts robotData+38,r18
 6632 1ea0 3093 0000 		sts (robotData+38)+1,r19
 6633               	.LM967:
 6634 1ea4 80EB      		ldi r24,lo8(2480)
 6635 1ea6 99E0      		ldi r25,hi8(2480)
 6636 1ea8 0E94 0000 		call uart_getchar_timeout
 6637               	.LVL383:
 6638 1eac 8C01      		movw r16,r24
 6639               	.LVL384:
 6640               	.LM968:
 6641 1eae 81E0      		ldi r24,hi8(256)
 6642 1eb0 0030      		cpi r16,lo8(256)
 6643 1eb2 1807      		cpc r17,r24
 6644 1eb4 01F4      		brne .L755
 6645               	.LVL385:
 6646               	.L748:
 6647               	.LBB931:
 6648               	.LBB932:
 6649               	.LM969:
 6650 1eb6 8091 B109 		lds r24,2481
 6651 1eba 85FF      		sbrs r24,5
 6652 1ebc 00C0      		rjmp .L748
 6653               	.LM970:
 6654 1ebe 8092 B009 		sts 2480,r8
 6655               	.L548:
 6656               	.LBE932:
 6657               	.LBE931:
 6658               	.LBB933:
 6659               	.LBB934:
 6660               	.LM971:
 6661 1ec2 8091 B109 		lds r24,2481
 6662 1ec6 85FF      		sbrs r24,5
 6663 1ec8 00C0      		rjmp .L548
 6664               	.LM972:
 6665 1eca 9092 B009 		sts 2480,r9
 6666               	.L549:
 6667               	.LBE934:
 6668               	.LBE933:
 6669               	.LBB935:
 6670               	.LBB936:
 6671               	.LM973:
 6672 1ece 8091 B109 		lds r24,2481
 6673 1ed2 85FF      		sbrs r24,5
 6674 1ed4 00C0      		rjmp .L549
 6675 1ed6 00C0      		rjmp .L1004
 6676               	.L755:
 6677               	.LBE936:
 6678               	.LBE935:
 6679               	.LBB937:
 6680               	.LBB938:
 6681 1ed8 8091 B109 		lds r24,2481
 6682 1edc 85FF      		sbrs r24,5
 6683 1ede 00C0      		rjmp .L755
 6684               	.LM974:
 6685 1ee0 0093 B009 		sts 2480,r16
 6686               	.LBE938:
 6687               	.LBE937:
 6688               	.LM975:
 6689 1ee4 80EB      		ldi r24,lo8(2480)
 6690 1ee6 99E0      		ldi r25,hi8(2480)
 6691 1ee8 0E94 0000 		call uart_getchar_timeout
 6692 1eec 9C01      		movw r18,r24
 6693 1eee 6C01      		movw r12,r24
 6694               	.LVL386:
 6695               	.LM976:
 6696 1ef0 91E0      		ldi r25,hi8(256)
 6697 1ef2 2030      		cpi r18,lo8(256)
 6698 1ef4 3907      		cpc r19,r25
 6699 1ef6 01F4      		brne .L754
 6700               	.LVL387:
 6701               	.L749:
 6702               	.LBB939:
 6703               	.LBB940:
 6704               	.LM977:
 6705 1ef8 8091 B109 		lds r24,2481
 6706 1efc 85FF      		sbrs r24,5
 6707 1efe 00C0      		rjmp .L749
 6708               	.LM978:
 6709 1f00 8092 B009 		sts 2480,r8
 6710               	.L552:
 6711               	.LBE940:
 6712               	.LBE939:
 6713               	.LBB941:
 6714               	.LBB942:
 6715               	.LM979:
 6716 1f04 8091 B109 		lds r24,2481
 6717 1f08 85FF      		sbrs r24,5
 6718 1f0a 00C0      		rjmp .L552
 6719               	.LM980:
 6720 1f0c 9092 B009 		sts 2480,r9
 6721               	.L553:
 6722               	.LBE942:
 6723               	.LBE941:
 6724               	.LBB943:
 6725               	.LBB944:
 6726               	.LM981:
 6727 1f10 8091 B109 		lds r24,2481
 6728 1f14 85FF      		sbrs r24,5
 6729 1f16 00C0      		rjmp .L553
 6730 1f18 00C0      		rjmp .L1004
 6731               	.LVL388:
 6732               	.L754:
 6733               	.LBE944:
 6734               	.LBE943:
 6735               	.LBB945:
 6736               	.LBB946:
 6737 1f1a 8091 B109 		lds r24,2481
 6738 1f1e 85FF      		sbrs r24,5
 6739 1f20 00C0      		rjmp .L754
 6740               	.LM982:
 6741 1f22 2093 B009 		sts 2480,r18
 6742               	.LBE946:
 6743               	.LBE945:
 6744               	.LM983:
 6745 1f26 902F      		mov r25,r16
 6746 1f28 8827      		clr r24
 6747 1f2a 280F      		add r18,r24
 6748 1f2c 391F      		adc r19,r25
 6749 1f2e 2093 0000 		sts robotData+40,r18
 6750 1f32 3093 0000 		sts (robotData+40)+1,r19
 6751               	.LM984:
 6752 1f36 80EB      		ldi r24,lo8(2480)
 6753 1f38 99E0      		ldi r25,hi8(2480)
 6754 1f3a 0E94 0000 		call uart_getchar_timeout
 6755               	.LVL389:
 6756 1f3e 8C01      		movw r16,r24
 6757               	.LVL390:
 6758               	.LM985:
 6759 1f40 E1E0      		ldi r30,hi8(256)
 6760 1f42 8030      		cpi r24,lo8(256)
 6761 1f44 9E07      		cpc r25,r30
 6762 1f46 01F4      		brne .L753
 6763               	.L750:
 6764               	.LBB947:
 6765               	.LBB948:
 6766               	.LM986:
 6767 1f48 8091 B109 		lds r24,2481
 6768 1f4c 85FF      		sbrs r24,5
 6769 1f4e 00C0      		rjmp .L750
 6770               	.LM987:
 6771 1f50 8092 B009 		sts 2480,r8
 6772               	.L556:
 6773               	.LBE948:
 6774               	.LBE947:
 6775               	.LBB949:
 6776               	.LBB950:
 6777               	.LM988:
 6778 1f54 8091 B109 		lds r24,2481
 6779 1f58 85FF      		sbrs r24,5
 6780 1f5a 00C0      		rjmp .L556
 6781               	.LM989:
 6782 1f5c 9092 B009 		sts 2480,r9
 6783               	.L557:
 6784               	.LBE950:
 6785               	.LBE949:
 6786               	.LBB951:
 6787               	.LBB952:
 6788               	.LM990:
 6789 1f60 8091 B109 		lds r24,2481
 6790 1f64 85FF      		sbrs r24,5
 6791 1f66 00C0      		rjmp .L557
 6792 1f68 00C0      		rjmp .L1004
 6793               	.LVL391:
 6794               	.L753:
 6795               	.LBE952:
 6796               	.LBE951:
 6797               	.LBB953:
 6798               	.LBB954:
 6799 1f6a 8091 B109 		lds r24,2481
 6800 1f6e 85FF      		sbrs r24,5
 6801 1f70 00C0      		rjmp .L753
 6802               	.LM991:
 6803 1f72 0093 B009 		sts 2480,r16
 6804               	.LBE954:
 6805               	.LBE953:
 6806               	.LM992:
 6807 1f76 80EB      		ldi r24,lo8(2480)
 6808 1f78 99E0      		ldi r25,hi8(2480)
 6809 1f7a 0E94 0000 		call uart_getchar_timeout
 6810 1f7e 9C01      		movw r18,r24
 6811 1f80 6C01      		movw r12,r24
 6812               	.LVL392:
 6813               	.LM993:
 6814 1f82 F1E0      		ldi r31,hi8(256)
 6815 1f84 8030      		cpi r24,lo8(256)
 6816 1f86 9F07      		cpc r25,r31
 6817 1f88 01F4      		brne .L752
 6818               	.LVL393:
 6819               	.L751:
 6820               	.LBB955:
 6821               	.LBB956:
 6822               	.LM994:
 6823 1f8a 8091 B109 		lds r24,2481
 6824 1f8e 85FF      		sbrs r24,5
 6825 1f90 00C0      		rjmp .L751
 6826               	.LM995:
 6827 1f92 8092 B009 		sts 2480,r8
 6828               	.L560:
 6829               	.LBE956:
 6830               	.LBE955:
 6831               	.LBB957:
 6832               	.LBB958:
 6833               	.LM996:
 6834 1f96 8091 B109 		lds r24,2481
 6835 1f9a 85FF      		sbrs r24,5
 6836 1f9c 00C0      		rjmp .L560
 6837               	.LM997:
 6838 1f9e 9092 B009 		sts 2480,r9
 6839               	.L561:
 6840               	.LBE958:
 6841               	.LBE957:
 6842               	.LBB959:
 6843               	.LBB960:
 6844               	.LM998:
 6845 1fa2 8091 B109 		lds r24,2481
 6846 1fa6 85FF      		sbrs r24,5
 6847 1fa8 00C0      		rjmp .L561
 6848 1faa 00C0      		rjmp .L1004
 6849               	.LVL394:
 6850               	.L752:
 6851               	.LBE960:
 6852               	.LBE959:
 6853               	.LBB961:
 6854               	.LBB962:
 6855 1fac 8091 B109 		lds r24,2481
 6856 1fb0 85FF      		sbrs r24,5
 6857 1fb2 00C0      		rjmp .L752
 6858               	.LM999:
 6859 1fb4 2093 B009 		sts 2480,r18
 6860               	.LBE962:
 6861               	.LBE961:
 6862               	.LM1000:
 6863 1fb8 902F      		mov r25,r16
 6864 1fba 8827      		clr r24
 6865 1fbc 280F      		add r18,r24
 6866 1fbe 391F      		adc r19,r25
 6867               	.LVL395:
 6868 1fc0 2093 0000 		sts robotData+42,r18
 6869 1fc4 3093 0000 		sts (robotData+42)+1,r19
 6870 1fc8 00C0      		rjmp .L431
 6871               	.LVL396:
 6872               	.L567:
 6873               	.LM1001:
 6874 1fca 80EB      		ldi r24,lo8(2480)
 6875 1fcc 99E0      		ldi r25,hi8(2480)
 6876 1fce 0E94 0000 		call uart_getchar_timeout
 6877 1fd2 6C01      		movw r12,r24
 6878               	.LM1002:
 6879 1fd4 21E0      		ldi r18,hi8(256)
 6880 1fd6 8030      		cpi r24,lo8(256)
 6881 1fd8 9207      		cpc r25,r18
 6882 1fda 01F4      		brne .L562
 6883               	.L719:
 6884               	.LBB963:
 6885               	.LBB964:
 6886               	.LM1003:
 6887 1fdc 8091 B109 		lds r24,2481
 6888 1fe0 85FF      		sbrs r24,5
 6889 1fe2 00C0      		rjmp .L719
 6890               	.LM1004:
 6891 1fe4 8092 B009 		sts 2480,r8
 6892               	.L564:
 6893               	.LBE964:
 6894               	.LBE963:
 6895               	.LBB965:
 6896               	.LBB966:
 6897               	.LM1005:
 6898 1fe8 8091 B109 		lds r24,2481
 6899 1fec 85FF      		sbrs r24,5
 6900 1fee 00C0      		rjmp .L564
 6901               	.LM1006:
 6902 1ff0 9092 B009 		sts 2480,r9
 6903               	.L565:
 6904               	.LBE966:
 6905               	.LBE965:
 6906               	.LBB967:
 6907               	.LBB968:
 6908               	.LM1007:
 6909 1ff4 8091 B109 		lds r24,2481
 6910 1ff8 85FF      		sbrs r24,5
 6911 1ffa 00C0      		rjmp .L565
 6912 1ffc 00C0      		rjmp .L1004
 6913               	.LVL397:
 6914               	.L562:
 6915               	.LBE968:
 6916               	.LBE967:
 6917               	.LM1008:
 6918 1ffe 982F      		mov r25,r24
 6919 2000 F801      		movw r30,r16
 6920 2002 E050      		subi r30,lo8(-(robotData))
 6921 2004 F040      		sbci r31,hi8(-(robotData))
 6922 2006 C4A6      		std Z+44,r12
 6923               	.LVL398:
 6924               	.L566:
 6925               	.LBB969:
 6926               	.LBB970:
 6927               	.LM1009:
 6928 2008 8091 B109 		lds r24,2481
 6929 200c 85FF      		sbrs r24,5
 6930 200e 00C0      		rjmp .L566
 6931               	.LM1010:
 6932 2010 9093 B009 		sts 2480,r25
 6933               	.LBE970:
 6934               	.LBE969:
 6935               	.LM1011:
 6936 2014 0F5F      		subi r16,lo8(-(1))
 6937 2016 1F4F      		sbci r17,hi8(-(1))
 6938               	.LVL399:
 6939               	.L465:
 6940 2018 8091 0000 		lds r24,robotData+37
 6941 201c 90E0      		ldi r25,lo8(0)
 6942               	.LVL400:
 6943 201e 0817      		cp r16,r24
 6944 2020 1907      		cpc r17,r25
 6945 2022 04F0      		brlt .L567
 6946               	.LM1012:
 6947 2024 30E0      		ldi r19,lo8(256)
 6948 2026 C316      		cp r12,r19
 6949 2028 31E0      		ldi r19,hi8(256)
 6950 202a D306      		cpc r13,r19
 6951 202c 01F4      		brne .+2
 6952 202e 00C0      		rjmp .L431
 6953               	.LM1013:
 6954 2030 80EB      		ldi r24,lo8(2480)
 6955 2032 99E0      		ldi r25,hi8(2480)
 6956 2034 0E94 0000 		call uart_getchar_timeout
 6957 2038 8C01      		movw r16,r24
 6958               	.LVL401:
 6959               	.LM1014:
 6960 203a 41E0      		ldi r20,hi8(256)
 6961 203c 8030      		cpi r24,lo8(256)
 6962 203e 9407      		cpc r25,r20
 6963 2040 01F4      		brne .L723
 6964               	.LVL402:
 6965               	.L720:
 6966               	.LBB971:
 6967               	.LBB972:
 6968               	.LM1015:
 6969 2042 8091 B109 		lds r24,2481
 6970               	.LVL403:
 6971 2046 85FF      		sbrs r24,5
 6972 2048 00C0      		rjmp .L720
 6973               	.LM1016:
 6974 204a 8092 B009 		sts 2480,r8
 6975               	.L570:
 6976               	.LBE972:
 6977               	.LBE971:
 6978               	.LBB973:
 6979               	.LBB974:
 6980               	.LM1017:
 6981 204e 8091 B109 		lds r24,2481
 6982 2052 85FF      		sbrs r24,5
 6983 2054 00C0      		rjmp .L570
 6984               	.LM1018:
 6985 2056 9092 B009 		sts 2480,r9
 6986               	.L571:
 6987               	.LBE974:
 6988               	.LBE973:
 6989               	.LBB975:
 6990               	.LBB976:
 6991               	.LM1019:
 6992 205a 8091 B109 		lds r24,2481
 6993 205e 85FF      		sbrs r24,5
 6994 2060 00C0      		rjmp .L571
 6995 2062 00C0      		rjmp .L1004
 6996               	.LVL404:
 6997               	.L723:
 6998               	.LBE976:
 6999               	.LBE975:
 7000               	.LBB977:
 7001               	.LBB978:
 7002 2064 8091 B109 		lds r24,2481
 7003               	.LVL405:
 7004 2068 85FF      		sbrs r24,5
 7005 206a 00C0      		rjmp .L723
 7006               	.LM1020:
 7007 206c 0093 B009 		sts 2480,r16
 7008               	.LBE978:
 7009               	.LBE977:
 7010               	.LM1021:
 7011 2070 80EB      		ldi r24,lo8(2480)
 7012 2072 99E0      		ldi r25,hi8(2480)
 7013 2074 0E94 0000 		call uart_getchar_timeout
 7014 2078 9C01      		movw r18,r24
 7015 207a 6C01      		movw r12,r24
 7016               	.LM1022:
 7017 207c 51E0      		ldi r21,hi8(256)
 7018 207e 8030      		cpi r24,lo8(256)
 7019 2080 9507      		cpc r25,r21
 7020 2082 01F4      		brne .L722
 7021               	.LVL406:
 7022               	.L721:
 7023               	.LBB979:
 7024               	.LBB980:
 7025               	.LM1023:
 7026 2084 8091 B109 		lds r24,2481
 7027 2088 85FF      		sbrs r24,5
 7028 208a 00C0      		rjmp .L721
 7029               	.LM1024:
 7030 208c 8092 B009 		sts 2480,r8
 7031               	.L574:
 7032               	.LBE980:
 7033               	.LBE979:
 7034               	.LBB981:
 7035               	.LBB982:
 7036               	.LM1025:
 7037 2090 8091 B109 		lds r24,2481
 7038 2094 85FF      		sbrs r24,5
 7039 2096 00C0      		rjmp .L574
 7040               	.LM1026:
 7041 2098 9092 B009 		sts 2480,r9
 7042               	.L575:
 7043               	.LBE982:
 7044               	.LBE981:
 7045               	.LBB983:
 7046               	.LBB984:
 7047               	.LM1027:
 7048 209c 8091 B109 		lds r24,2481
 7049 20a0 85FF      		sbrs r24,5
 7050 20a2 00C0      		rjmp .L575
 7051 20a4 00C0      		rjmp .L1004
 7052               	.LVL407:
 7053               	.L722:
 7054               	.LBE984:
 7055               	.LBE983:
 7056               	.LBB985:
 7057               	.LBB986:
 7058 20a6 8091 B109 		lds r24,2481
 7059 20aa 85FF      		sbrs r24,5
 7060 20ac 00C0      		rjmp .L722
 7061               	.LM1028:
 7062 20ae 2093 B009 		sts 2480,r18
 7063               	.LBE986:
 7064               	.LBE985:
 7065               	.LM1029:
 7066 20b2 902F      		mov r25,r16
 7067 20b4 8827      		clr r24
 7068 20b6 820F      		add r24,r18
 7069 20b8 931F      		adc r25,r19
 7070 20ba 8093 0000 		sts robotData+236,r24
 7071 20be 9093 0000 		sts (robotData+236)+1,r25
 7072               	.LM1030:
 7073 20c2 892B      		or r24,r25
 7074 20c4 01F0      		breq .L576
 7075               	.LVL408:
 7076               	.LM1031:
 7077 20c6 81E0      		ldi r24,lo8(1)
 7078 20c8 90E0      		ldi r25,hi8(1)
 7079 20ca 8093 0000 		sts robotData+238,r24
 7080 20ce 9093 0000 		sts (robotData+238)+1,r25
 7081 20d2 00C0      		rjmp .L1011
 7082               	.L576:
 7083               	.LM1032:
 7084 20d4 1092 0000 		sts robotData+238,__zero_reg__
 7085 20d8 1092 0000 		sts (robotData+238)+1,__zero_reg__
 7086 20dc 00C0      		rjmp .L1011
 7087               	.LVL409:
 7088               	.L432:
 7089               	.LM1033:
 7090 20de 1092 0000 		sts robotData+238,__zero_reg__
 7091 20e2 1092 0000 		sts (robotData+238)+1,__zero_reg__
 7092               	.LBB987:
 7093               	.LBB988:
 7094               	.LM1034:
 7095 20e6 1092 4608 		sts 2118,__zero_reg__
 7096               	.LBB989:
 7097               	.LBB990:
 7098               	.LM1035:
 7099               	/* #APP */
 7100               	 ;  42 "ir.c" 1
 7101 20ea F894      		cli
 7102               	 ;  0 "" 2
 7103               	.LM1036:
 7104               	/* #NOAPP */
 7105 20ec 1092 2808 		sts 2088,__zero_reg__
 7106 20f0 1092 2908 		sts (2088)+1,__zero_reg__
 7107               	.LM1037:
 7108               	/* #APP */
 7109               	 ;  44 "ir.c" 1
 7110 20f4 7894      		sei
 7111               	 ;  0 "" 2
 7112               	/* #NOAPP */
 7113 20f6 00C0      		rjmp .L431
 7114               	.L1016:
 7115               	.LBE990:
 7116               	.LBE989:
 7117               	.LBE988:
 7118               	.LBE987:
 7119               	.LM1038:
 7120 20f8 0E94 0000 		call init_ir_read
 7121               	.LVL410:
 7122               	.L578:
 7123               	.LM1039:
 7124 20fc 8091 0000 		lds r24,ir_read_flag
 7125 2100 8823      		tst r24
 7126 2102 01F4      		brne .L578
 7127 2104 00C0      		rjmp .L431
 7128               	.LVL411:
 7129               	.L444:
 7130               	.LM1040:
 7131 2106 80EB      		ldi r24,lo8(2480)
 7132 2108 99E0      		ldi r25,hi8(2480)
 7133 210a 0E94 0000 		call uart_getchar_timeout
 7134               	.LVL412:
 7135 210e 982F      		mov r25,r24
 7136               	.LVL413:
 7137 2110 9053      		subi r25,lo8(-(-48))
 7138               	.LM1041:
 7139 2112 9530      		cpi r25,lo8(5)
 7140 2114 00F4      		brsh .L708
 7141 2116 8091 0000 		lds r24,signal_count
 7142 211a 8530      		cpi r24,lo8(5)
 7143 211c 00F0      		brlo .L708
 7144               	.L709:
 7145               	.LBB991:
 7146               	.LBB992:
 7147               	.LM1042:
 7148 211e 8091 B109 		lds r24,2481
 7149 2122 85FF      		sbrs r24,5
 7150 2124 00C0      		rjmp .L709
 7151               	.LBE992:
 7152               	.LBE991:
 7153               	.LM1043:
 7154 2126 905D      		subi r25,lo8(-(48))
 7155               	.LBB994:
 7156               	.LBB993:
 7157               	.LM1044:
 7158 2128 9093 B009 		sts 2480,r25
 7159 212c 9053      		subi r25,lo8(-(-48))
 7160               	.LBE993:
 7161               	.LBE994:
 7162               	.LM1045:
 7163 212e 892F      		mov r24,r25
 7164 2130 90E0      		ldi r25,lo8(0)
 7165               	.LVL414:
 7166 2132 0E94 0000 		call write_data_to_eeprom
 7167 2136 00C0      		rjmp .L431
 7168               	.LVL415:
 7169               	.L708:
 7170               	.LBB995:
 7171               	.LBB748:
 7172               	.LM1046:
 7173 2138 8091 B109 		lds r24,2481
 7174 213c 85FF      		sbrs r24,5
 7175 213e 00C0      		rjmp .L708
 7176               	.LM1047:
 7177 2140 8092 B009 		sts 2480,r8
 7178               	.L581:
 7179               	.LBE748:
 7180               	.LBE995:
 7181               	.LBB996:
 7182               	.LBB751:
 7183               	.LM1048:
 7184 2144 8091 B109 		lds r24,2481
 7185 2148 85FF      		sbrs r24,5
 7186 214a 00C0      		rjmp .L581
 7187               	.LM1049:
 7188 214c 9092 B009 		sts 2480,r9
 7189               	.L582:
 7190               	.LBE751:
 7191               	.LBE996:
 7192               	.LBB997:
 7193               	.LBB998:
 7194               	.LM1050:
 7195 2150 8091 B109 		lds r24,2481
 7196 2154 85FF      		sbrs r24,5
 7197 2156 00C0      		rjmp .L582
 7198 2158 00C0      		rjmp .L1004
 7199               	.LVL416:
 7200               	.L454:
 7201               	.LBE998:
 7202               	.LBE997:
 7203               	.LM1051:
 7204 215a 0E94 0000 		call read_data_from_serial
 7205               	.LVL417:
 7206 215e 892B      		or r24,r25
 7207 2160 01F4      		brne .+2
 7208 2162 00C0      		rjmp .L717
 7209               	.LM1052:
 7210 2164 80EB      		ldi r24,lo8(2480)
 7211 2166 99E0      		ldi r25,hi8(2480)
 7212 2168 0E94 0000 		call uart_getchar_timeout
 7213 216c 8C01      		movw r16,r24
 7214               	.LVL418:
 7215               	.LM1053:
 7216 216e 91E0      		ldi r25,hi8(256)
 7217 2170 0030      		cpi r16,lo8(256)
 7218 2172 1907      		cpc r17,r25
 7219 2174 01F4      		brne .L716
 7220               	.LVL419:
 7221               	.L713:
 7222               	.LBB999:
 7223               	.LBB1000:
 7224               	.LM1054:
 7225 2176 8091 B109 		lds r24,2481
 7226 217a 85FF      		sbrs r24,5
 7227 217c 00C0      		rjmp .L713
 7228               	.LM1055:
 7229 217e 8092 B009 		sts 2480,r8
 7230               	.L586:
 7231               	.LBE1000:
 7232               	.LBE999:
 7233               	.LBB1001:
 7234               	.LBB1002:
 7235               	.LM1056:
 7236 2182 8091 B109 		lds r24,2481
 7237 2186 85FF      		sbrs r24,5
 7238 2188 00C0      		rjmp .L586
 7239               	.LM1057:
 7240 218a 9092 B009 		sts 2480,r9
 7241               	.L587:
 7242               	.LBE1002:
 7243               	.LBE1001:
 7244               	.LBB1003:
 7245               	.LBB1004:
 7246               	.LM1058:
 7247 218e 8091 B109 		lds r24,2481
 7248 2192 85FF      		sbrs r24,5
 7249 2194 00C0      		rjmp .L587
 7250 2196 00C0      		rjmp .L1004
 7251               	.L716:
 7252               	.LBE1004:
 7253               	.LBE1003:
 7254               	.LBB1005:
 7255               	.LBB1006:
 7256 2198 8091 B109 		lds r24,2481
 7257 219c 85FF      		sbrs r24,5
 7258 219e 00C0      		rjmp .L716
 7259               	.LM1059:
 7260 21a0 0093 B009 		sts 2480,r16
 7261               	.LBE1006:
 7262               	.LBE1005:
 7263               	.LM1060:
 7264 21a4 80EB      		ldi r24,lo8(2480)
 7265 21a6 99E0      		ldi r25,hi8(2480)
 7266 21a8 0E94 0000 		call uart_getchar_timeout
 7267 21ac 9C01      		movw r18,r24
 7268 21ae 6C01      		movw r12,r24
 7269               	.LM1061:
 7270 21b0 E1E0      		ldi r30,hi8(256)
 7271 21b2 8030      		cpi r24,lo8(256)
 7272 21b4 9E07      		cpc r25,r30
 7273 21b6 01F4      		brne .L715
 7274               	.L714:
 7275               	.LBB1007:
 7276               	.LBB1008:
 7277               	.LM1062:
 7278 21b8 8091 B109 		lds r24,2481
 7279 21bc 85FF      		sbrs r24,5
 7280 21be 00C0      		rjmp .L714
 7281               	.LM1063:
 7282 21c0 8092 B009 		sts 2480,r8
 7283               	.L590:
 7284               	.LBE1008:
 7285               	.LBE1007:
 7286               	.LBB1009:
 7287               	.LBB1010:
 7288               	.LM1064:
 7289 21c4 8091 B109 		lds r24,2481
 7290 21c8 85FF      		sbrs r24,5
 7291 21ca 00C0      		rjmp .L590
 7292               	.LM1065:
 7293 21cc 9092 B009 		sts 2480,r9
 7294               	.L591:
 7295               	.LBE1010:
 7296               	.LBE1009:
 7297               	.LBB1011:
 7298               	.LBB1012:
 7299               	.LM1066:
 7300 21d0 8091 B109 		lds r24,2481
 7301 21d4 85FF      		sbrs r24,5
 7302 21d6 00C0      		rjmp .L591
 7303 21d8 00C0      		rjmp .L1004
 7304               	.LVL420:
 7305               	.L715:
 7306               	.LBE1012:
 7307               	.LBE1011:
 7308               	.LBB1013:
 7309               	.LBB1014:
 7310 21da 8091 B109 		lds r24,2481
 7311 21de 85FF      		sbrs r24,5
 7312 21e0 00C0      		rjmp .L715
 7313               	.LM1067:
 7314 21e2 2093 B009 		sts 2480,r18
 7315               	.LBE1014:
 7316               	.LBE1013:
 7317               	.LM1068:
 7318 21e6 902F      		mov r25,r16
 7319 21e8 8827      		clr r24
 7320 21ea 820F      		add r24,r18
 7321 21ec 931F      		adc r25,r19
 7322 21ee 8093 0000 		sts robotData+236,r24
 7323 21f2 9093 0000 		sts (robotData+236)+1,r25
 7324               	.LM1069:
 7325 21f6 892B      		or r24,r25
 7326 21f8 01F0      		breq .L592
 7327               	.LVL421:
 7328               	.LM1070:
 7329 21fa 21E0      		ldi r18,lo8(1)
 7330 21fc 30E0      		ldi r19,hi8(1)
 7331               	.LVL422:
 7332 21fe 2093 0000 		sts robotData+238,r18
 7333 2202 3093 0000 		sts (robotData+238)+1,r19
 7334 2206 00C0      		rjmp .L1010
 7335               	.LVL423:
 7336               	.L592:
 7337               	.LM1071:
 7338 2208 1092 0000 		sts robotData+238,__zero_reg__
 7339 220c 1092 0000 		sts (robotData+238)+1,__zero_reg__
 7340 2210 00C0      		rjmp .L1010
 7341               	.LVL424:
 7342               	.L717:
 7343               	.LBB1015:
 7344               	.LBB1016:
 7345               	.LM1072:
 7346 2212 8091 B109 		lds r24,2481
 7347 2216 85FF      		sbrs r24,5
 7348 2218 00C0      		rjmp .L717
 7349               	.LM1073:
 7350 221a 8092 B009 		sts 2480,r8
 7351               	.L594:
 7352               	.LBE1016:
 7353               	.LBE1015:
 7354               	.LBB1017:
 7355               	.LBB1018:
 7356               	.LM1074:
 7357 221e 8091 B109 		lds r24,2481
 7358 2222 85FF      		sbrs r24,5
 7359 2224 00C0      		rjmp .L594
 7360               	.LM1075:
 7361 2226 9092 B009 		sts 2480,r9
 7362               	.L595:
 7363               	.LBE1018:
 7364               	.LBE1017:
 7365               	.LBB1019:
 7366               	.LBB1020:
 7367               	.LM1076:
 7368 222a 8091 B109 		lds r24,2481
 7369 222e 85FF      		sbrs r24,5
 7370 2230 00C0      		rjmp .L595
 7371 2232 00C0      		rjmp .L1004
 7372               	.LVL425:
 7373               	.L1014:
 7374               	.LBE1020:
 7375               	.LBE1019:
 7376               	.LM1077:
 7377 2234 80EB      		ldi r24,lo8(2480)
 7378 2236 99E0      		ldi r25,hi8(2480)
 7379 2238 0E94 0000 		call uart_getchar_timeout
 7380               	.LVL426:
 7381 223c 20ED      		ldi r18,lo8(-48)
 7382 223e F22E      		mov r15,r18
 7383 2240 F80E      		add r15,r24
 7384               	.LM1078:
 7385 2242 64E0      		ldi r22,lo8(4)
 7386 2244 6F15      		cp r22,r15
 7387 2246 00F4      		brsh .+2
 7388 2248 00C0      		rjmp .L783
 7389               	.L782:
 7390               	.LBB1021:
 7391               	.LBB1022:
 7392               	.LM1079:
 7393 224a 8091 B109 		lds r24,2481
 7394 224e 85FF      		sbrs r24,5
 7395 2250 00C0      		rjmp .L782
 7396               	.LBE1022:
 7397               	.LBE1021:
 7398               	.LM1080:
 7399 2252 80E3      		ldi r24,lo8(48)
 7400 2254 F80E      		add r15,r24
 7401               	.LBB1024:
 7402               	.LBB1023:
 7403               	.LM1081:
 7404 2256 F092 B009 		sts 2480,r15
 7405 225a 90ED      		ldi r25,lo8(-48)
 7406 225c F90E      		add r15,r25
 7407               	.LBE1023:
 7408               	.LBE1024:
 7409               	.LM1082:
 7410 225e 80EB      		ldi r24,lo8(2480)
 7411 2260 99E0      		ldi r25,hi8(2480)
 7412 2262 0E94 0000 		call uart_getchar_timeout
 7413 2266 8C01      		movw r16,r24
 7414               	.LVL427:
 7415               	.LM1083:
 7416 2268 E1E0      		ldi r30,hi8(256)
 7417 226a 8030      		cpi r24,lo8(256)
 7418 226c 9E07      		cpc r25,r30
 7419 226e 01F4      		brne .L781
 7420               	.LVL428:
 7421               	.L778:
 7422               	.LBB1025:
 7423               	.LBB1026:
 7424               	.LM1084:
 7425 2270 8091 B109 		lds r24,2481
 7426               	.LVL429:
 7427 2274 85FF      		sbrs r24,5
 7428 2276 00C0      		rjmp .L778
 7429               	.LM1085:
 7430 2278 8092 B009 		sts 2480,r8
 7431               	.L600:
 7432               	.LBE1026:
 7433               	.LBE1025:
 7434               	.LBB1027:
 7435               	.LBB1028:
 7436               	.LM1086:
 7437 227c 8091 B109 		lds r24,2481
 7438 2280 85FF      		sbrs r24,5
 7439 2282 00C0      		rjmp .L600
 7440               	.LM1087:
 7441 2284 9092 B009 		sts 2480,r9
 7442               	.L601:
 7443               	.LBE1028:
 7444               	.LBE1027:
 7445               	.LBB1029:
 7446               	.LBB1030:
 7447               	.LM1088:
 7448 2288 8091 B109 		lds r24,2481
 7449 228c 85FF      		sbrs r24,5
 7450 228e 00C0      		rjmp .L601
 7451 2290 00C0      		rjmp .L1004
 7452               	.LVL430:
 7453               	.L781:
 7454               	.LBE1030:
 7455               	.LBE1029:
 7456               	.LBB1031:
 7457               	.LBB1032:
 7458 2292 8091 B109 		lds r24,2481
 7459               	.LVL431:
 7460 2296 85FF      		sbrs r24,5
 7461 2298 00C0      		rjmp .L781
 7462               	.LM1089:
 7463 229a 0093 B009 		sts 2480,r16
 7464               	.LBE1032:
 7465               	.LBE1031:
 7466               	.LM1090:
 7467 229e 80EB      		ldi r24,lo8(2480)
 7468 22a0 99E0      		ldi r25,hi8(2480)
 7469 22a2 0E94 0000 		call uart_getchar_timeout
 7470 22a6 9C01      		movw r18,r24
 7471 22a8 6C01      		movw r12,r24
 7472               	.LM1091:
 7473 22aa F1E0      		ldi r31,hi8(256)
 7474 22ac 8030      		cpi r24,lo8(256)
 7475 22ae 9F07      		cpc r25,r31
 7476 22b0 01F4      		brne .L780
 7477               	.LVL432:
 7478               	.L779:
 7479               	.LBB1033:
 7480               	.LBB1034:
 7481               	.LM1092:
 7482 22b2 8091 B109 		lds r24,2481
 7483 22b6 85FF      		sbrs r24,5
 7484 22b8 00C0      		rjmp .L779
 7485               	.LM1093:
 7486 22ba 8092 B009 		sts 2480,r8
 7487               	.L604:
 7488               	.LBE1034:
 7489               	.LBE1033:
 7490               	.LBB1035:
 7491               	.LBB1036:
 7492               	.LM1094:
 7493 22be 8091 B109 		lds r24,2481
 7494 22c2 85FF      		sbrs r24,5
 7495 22c4 00C0      		rjmp .L604
 7496               	.LM1095:
 7497 22c6 9092 B009 		sts 2480,r9
 7498               	.L605:
 7499               	.LBE1036:
 7500               	.LBE1035:
 7501               	.LBB1037:
 7502               	.LBB1038:
 7503               	.LM1096:
 7504 22ca 8091 B109 		lds r24,2481
 7505 22ce 85FF      		sbrs r24,5
 7506 22d0 00C0      		rjmp .L605
 7507 22d2 00C0      		rjmp .L1004
 7508               	.LVL433:
 7509               	.L780:
 7510               	.LBE1038:
 7511               	.LBE1037:
 7512               	.LBB1039:
 7513               	.LBB1040:
 7514 22d4 8091 B109 		lds r24,2481
 7515 22d8 85FF      		sbrs r24,5
 7516 22da 00C0      		rjmp .L780
 7517               	.LM1097:
 7518 22dc 2093 B009 		sts 2480,r18
 7519               	.LBE1040:
 7520               	.LBE1039:
 7521               	.LM1098:
 7522 22e0 902F      		mov r25,r16
 7523 22e2 8827      		clr r24
 7524 22e4 820F      		add r24,r18
 7525 22e6 931F      		adc r25,r19
 7526 22e8 8093 0000 		sts robotData+236,r24
 7527 22ec 9093 0000 		sts (robotData+236)+1,r25
 7528               	.LM1099:
 7529 22f0 892B      		or r24,r25
 7530 22f2 01F0      		breq .L606
 7531               	.LVL434:
 7532               	.LM1100:
 7533 22f4 21E0      		ldi r18,lo8(1)
 7534 22f6 30E0      		ldi r19,hi8(1)
 7535               	.LVL435:
 7536 22f8 2093 0000 		sts robotData+238,r18
 7537 22fc 3093 0000 		sts (robotData+238)+1,r19
 7538 2300 00C0      		rjmp .L607
 7539               	.LVL436:
 7540               	.L606:
 7541               	.LM1101:
 7542 2302 1092 0000 		sts robotData+238,__zero_reg__
 7543 2306 1092 0000 		sts (robotData+238)+1,__zero_reg__
 7544               	.LVL437:
 7545               	.L607:
 7546               	.LM1102:
 7547 230a 8F2D      		mov r24,r15
 7548 230c 90E0      		ldi r25,lo8(0)
 7549 230e 0E94 0000 		call read_data_from_eeprom
 7550               	.LVL438:
 7551               	.L1010:
 7552               	.LM1103:
 7553 2312 49E4      		ldi r20,lo8(841)
 7554 2314 53E0      		ldi r21,hi8(841)
 7555 2316 4093 0000 		sts robotData,r20
 7556 231a 5093 0000 		sts (robotData)+1,r21
 7557               	.LM1104:
 7558 231e 1092 0000 		sts robotData+2,__zero_reg__
 7559               	.LM1105:
 7560 2322 54E0      		ldi r21,lo8(4)
 7561 2324 5093 0000 		sts robotData+35,r21
 7562               	.L1011:
 7563               	.LM1106:
 7564 2328 0E94 0000 		call start_ir_timer
 7565 232c 00C0      		rjmp .L431
 7566               	.LVL439:
 7567               	.L783:
 7568               	.LBB1041:
 7569               	.LBB1042:
 7570               	.LM1107:
 7571 232e 8091 B109 		lds r24,2481
 7572 2332 85FF      		sbrs r24,5
 7573 2334 00C0      		rjmp .L783
 7574               	.LM1108:
 7575 2336 8092 B009 		sts 2480,r8
 7576               	.L608:
 7577               	.LBE1042:
 7578               	.LBE1041:
 7579               	.LBB1043:
 7580               	.LBB1044:
 7581               	.LM1109:
 7582 233a 8091 B109 		lds r24,2481
 7583 233e 85FF      		sbrs r24,5
 7584 2340 00C0      		rjmp .L608
 7585               	.LM1110:
 7586 2342 9092 B009 		sts 2480,r9
 7587               	.L609:
 7588               	.LBE1044:
 7589               	.LBE1043:
 7590               	.LBB1045:
 7591               	.LBB1046:
 7592               	.LM1111:
 7593 2346 8091 B109 		lds r24,2481
 7594 234a 85FF      		sbrs r24,5
 7595 234c 00C0      		rjmp .L609
 7596 234e 00C0      		rjmp .L1004
 7597               	.LVL440:
 7598               	.L450:
 7599               	.LBE1046:
 7600               	.LBE1045:
 7601               	.LM1112:
 7602 2350 80EB      		ldi r24,lo8(2480)
 7603 2352 99E0      		ldi r25,hi8(2480)
 7604 2354 0E94 0000 		call uart_getchar_timeout
 7605               	.LVL441:
 7606 2358 982F      		mov r25,r24
 7607               	.LVL442:
 7608 235a 9053      		subi r25,lo8(-(-48))
 7609               	.LM1113:
 7610 235c 9530      		cpi r25,lo8(5)
 7611 235e 00F4      		brsh .L711
 7612               	.L710:
 7613               	.LBB1047:
 7614               	.LBB1048:
 7615               	.LM1114:
 7616 2360 8091 B109 		lds r24,2481
 7617 2364 85FF      		sbrs r24,5
 7618 2366 00C0      		rjmp .L710
 7619               	.LBE1048:
 7620               	.LBE1047:
 7621               	.LM1115:
 7622 2368 905D      		subi r25,lo8(-(48))
 7623               	.LBB1050:
 7624               	.LBB1049:
 7625               	.LM1116:
 7626 236a 9093 B009 		sts 2480,r25
 7627 236e 9053      		subi r25,lo8(-(-48))
 7628               	.LBE1049:
 7629               	.LBE1050:
 7630               	.LM1117:
 7631 2370 892F      		mov r24,r25
 7632 2372 90E0      		ldi r25,lo8(0)
 7633               	.LVL443:
 7634 2374 0E94 0000 		call print_data_from_eeprom
 7635 2378 00C0      		rjmp .L431
 7636               	.LVL444:
 7637               	.L711:
 7638               	.LBB1051:
 7639               	.LBB1052:
 7640               	.LM1118:
 7641 237a 8091 B109 		lds r24,2481
 7642 237e 85FF      		sbrs r24,5
 7643 2380 00C0      		rjmp .L711
 7644               	.LM1119:
 7645 2382 8092 B009 		sts 2480,r8
 7646               	.L612:
 7647               	.LBE1052:
 7648               	.LBE1051:
 7649               	.LBB1053:
 7650               	.LBB1054:
 7651               	.LM1120:
 7652 2386 8091 B109 		lds r24,2481
 7653 238a 85FF      		sbrs r24,5
 7654 238c 00C0      		rjmp .L612
 7655               	.LM1121:
 7656 238e 9092 B009 		sts 2480,r9
 7657               	.L613:
 7658               	.LBE1054:
 7659               	.LBE1053:
 7660               	.LBB1055:
 7661               	.LBB1056:
 7662               	.LM1122:
 7663 2392 8091 B109 		lds r24,2481
 7664 2396 85FF      		sbrs r24,5
 7665 2398 00C0      		rjmp .L613
 7666 239a 00C0      		rjmp .L1004
 7667               	.LVL445:
 7668               	.L434:
 7669               	.LBE1056:
 7670               	.LBE1055:
 7671               	.LM1123:
 7672 239c 80EB      		ldi r24,lo8(2480)
 7673 239e 99E0      		ldi r25,hi8(2480)
 7674 23a0 0E94 0000 		call uart_getchar_timeout
 7675               	.LVL446:
 7676               	.LM1124:
 7677 23a4 61E0      		ldi r22,hi8(256)
 7678 23a6 8030      		cpi r24,lo8(256)
 7679 23a8 9607      		cpc r25,r22
 7680 23aa 01F4      		brne .L614
 7681               	.LVL447:
 7682               	.L784:
 7683               	.LBB1057:
 7684               	.LBB1058:
 7685               	.LM1125:
 7686 23ac 8091 B109 		lds r24,2481
 7687               	.LVL448:
 7688 23b0 85FF      		sbrs r24,5
 7689 23b2 00C0      		rjmp .L784
 7690               	.LM1126:
 7691 23b4 8092 B009 		sts 2480,r8
 7692               	.L616:
 7693               	.LBE1058:
 7694               	.LBE1057:
 7695               	.LBB1059:
 7696               	.LBB1060:
 7697               	.LM1127:
 7698 23b8 8091 B109 		lds r24,2481
 7699 23bc 85FF      		sbrs r24,5
 7700 23be 00C0      		rjmp .L616
 7701               	.LM1128:
 7702 23c0 9092 B009 		sts 2480,r9
 7703               	.L617:
 7704               	.LBE1060:
 7705               	.LBE1059:
 7706               	.LBB1061:
 7707               	.LBB1062:
 7708               	.LM1129:
 7709 23c4 8091 B109 		lds r24,2481
 7710 23c8 85FF      		sbrs r24,5
 7711 23ca 00C0      		rjmp .L617
 7712 23cc 00C0      		rjmp .L1004
 7713               	.LVL449:
 7714               	.L614:
 7715               	.LBE1062:
 7716               	.LBE1061:
 7717               	.LM1130:
 7718 23ce 182F      		mov r17,r24
 7719               	.L618:
 7720               	.LBB1063:
 7721               	.LBB1064:
 7722               	.LM1131:
 7723 23d0 8091 B109 		lds r24,2481
 7724               	.LVL450:
 7725 23d4 85FF      		sbrs r24,5
 7726 23d6 00C0      		rjmp .L618
 7727               	.LM1132:
 7728 23d8 1093 B009 		sts 2480,r17
 7729               	.LBE1064:
 7730               	.LBE1063:
 7731               	.LM1133:
 7732 23dc 80EB      		ldi r24,lo8(2480)
 7733 23de 99E0      		ldi r25,hi8(2480)
 7734 23e0 0E94 0000 		call uart_getchar_timeout
 7735 23e4 6C01      		movw r12,r24
 7736               	.LM1134:
 7737 23e6 80E0      		ldi r24,lo8(256)
 7738 23e8 C816      		cp r12,r24
 7739 23ea 81E0      		ldi r24,hi8(256)
 7740 23ec D806      		cpc r13,r24
 7741 23ee 01F4      		brne .L619
 7742               	.L785:
 7743               	.LBB1065:
 7744               	.LBB1066:
 7745               	.LM1135:
 7746 23f0 8091 B109 		lds r24,2481
 7747 23f4 85FF      		sbrs r24,5
 7748 23f6 00C0      		rjmp .L785
 7749               	.LM1136:
 7750 23f8 8092 B009 		sts 2480,r8
 7751               	.L621:
 7752               	.LBE1066:
 7753               	.LBE1065:
 7754               	.LBB1067:
 7755               	.LBB1068:
 7756               	.LM1137:
 7757 23fc 8091 B109 		lds r24,2481
 7758 2400 85FF      		sbrs r24,5
 7759 2402 00C0      		rjmp .L621
 7760               	.LM1138:
 7761 2404 9092 B009 		sts 2480,r9
 7762               	.L622:
 7763               	.LBE1068:
 7764               	.LBE1067:
 7765               	.LBB1069:
 7766               	.LBB1070:
 7767               	.LM1139:
 7768 2408 8091 B109 		lds r24,2481
 7769 240c 85FF      		sbrs r24,5
 7770 240e 00C0      		rjmp .L622
 7771 2410 00C0      		rjmp .L1004
 7772               	.L619:
 7773               	.LBE1070:
 7774               	.LBE1069:
 7775               	.LM1140:
 7776 2412 6C2D      		mov r22,r12
 7777               	.L623:
 7778               	.LBB1071:
 7779               	.LBB1072:
 7780               	.LM1141:
 7781 2414 8091 B109 		lds r24,2481
 7782 2418 85FF      		sbrs r24,5
 7783 241a 00C0      		rjmp .L623
 7784               	.LM1142:
 7785 241c 6093 B009 		sts 2480,r22
 7786               	.LBE1072:
 7787               	.LBE1071:
 7788               	.LM1143:
 7789 2420 6053      		subi r22,lo8(-(-48))
 7790 2422 812F      		mov r24,r17
 7791 2424 0E94 0000 		call set_output
 7792 2428 00C0      		rjmp .L431
 7793               	.LVL451:
 7794               	.L1012:
 7795               	.LM1144:
 7796 242a 80EB      		ldi r24,lo8(2480)
 7797 242c 99E0      		ldi r25,hi8(2480)
 7798 242e 0E94 0000 		call uart_getchar_timeout
 7799               	.LVL452:
 7800 2432 9C01      		movw r18,r24
 7801               	.LM1145:
 7802 2434 91E0      		ldi r25,hi8(256)
 7803 2436 2030      		cpi r18,lo8(256)
 7804 2438 3907      		cpc r19,r25
 7805 243a 01F4      		brne .L624
 7806               	.LVL453:
 7807               	.L786:
 7808               	.LBB1073:
 7809               	.LBB1074:
 7810               	.LM1146:
 7811 243c 8091 B109 		lds r24,2481
 7812 2440 85FF      		sbrs r24,5
 7813 2442 00C0      		rjmp .L786
 7814               	.LM1147:
 7815 2444 8092 B009 		sts 2480,r8
 7816               	.L626:
 7817               	.LBE1074:
 7818               	.LBE1073:
 7819               	.LBB1075:
 7820               	.LBB1076:
 7821               	.LM1148:
 7822 2448 8091 B109 		lds r24,2481
 7823 244c 85FF      		sbrs r24,5
 7824 244e 00C0      		rjmp .L626
 7825               	.LM1149:
 7826 2450 9092 B009 		sts 2480,r9
 7827               	.L627:
 7828               	.LBE1076:
 7829               	.LBE1075:
 7830               	.LBB1077:
 7831               	.LBB1078:
 7832               	.LM1150:
 7833 2454 8091 B109 		lds r24,2481
 7834 2458 85FF      		sbrs r24,5
 7835 245a 00C0      		rjmp .L627
 7836 245c 00C0      		rjmp .L1004
 7837               	.L624:
 7838               	.LBE1078:
 7839               	.LBE1077:
 7840               	.LM1151:
 7841 245e 922F      		mov r25,r18
 7842               	.L628:
 7843               	.LBB1079:
 7844               	.LBB1080:
 7845               	.LM1152:
 7846 2460 8091 B109 		lds r24,2481
 7847 2464 85FF      		sbrs r24,5
 7848 2466 00C0      		rjmp .L628
 7849               	.LM1153:
 7850 2468 9093 B009 		sts 2480,r25
 7851               	.LBE1080:
 7852               	.LBE1079:
 7853               	.LM1154:
 7854 246c 892F      		mov r24,r25
 7855 246e 0E94 0000 		call read_input
 7856               	.LVL454:
 7857 2472 C82E      		mov r12,r24
 7858               	.LVL455:
 7859 2474 DD24      		clr r13
 7860 2476 E0E3      		ldi r30,lo8(48)
 7861 2478 F0E0      		ldi r31,hi8(48)
 7862 247a CE0E      		add r12,r30
 7863 247c DF1E      		adc r13,r31
 7864               	.LVL456:
 7865               	.L629:
 7866               	.LBB1081:
 7867               	.LBB1082:
 7868               	.LM1155:
 7869 247e 8091 B109 		lds r24,2481
 7870 2482 85FF      		sbrs r24,5
 7871 2484 00C0      		rjmp .L629
 7872               	.LM1156:
 7873 2486 C092 B009 		sts 2480,r12
 7874 248a 00C0      		rjmp .L431
 7875               	.LVL457:
 7876               	.L442:
 7877               	.LBE1082:
 7878               	.LBE1081:
 7879               	.LM1157:
 7880 248c 80EB      		ldi r24,lo8(2480)
 7881 248e 99E0      		ldi r25,hi8(2480)
 7882 2490 0E94 0000 		call uart_getchar_timeout
 7883               	.LVL458:
 7884 2494 8C01      		movw r16,r24
 7885               	.LVL459:
 7886               	.LM1158:
 7887 2496 F1E0      		ldi r31,hi8(256)
 7888 2498 8030      		cpi r24,lo8(256)
 7889 249a 9F07      		cpc r25,r31
 7890 249c 01F4      		brne .L765
 7891               	.LVL460:
 7892               	.L762:
 7893               	.LBB1083:
 7894               	.LBB1084:
 7895               	.LM1159:
 7896 249e 8091 B109 		lds r24,2481
 7897               	.LVL461:
 7898 24a2 85FF      		sbrs r24,5
 7899 24a4 00C0      		rjmp .L762
 7900               	.LM1160:
 7901 24a6 8092 B009 		sts 2480,r8
 7902               	.L632:
 7903               	.LBE1084:
 7904               	.LBE1083:
 7905               	.LBB1085:
 7906               	.LBB1086:
 7907               	.LM1161:
 7908 24aa 8091 B109 		lds r24,2481
 7909 24ae 85FF      		sbrs r24,5
 7910 24b0 00C0      		rjmp .L632
 7911               	.LM1162:
 7912 24b2 9092 B009 		sts 2480,r9
 7913               	.L633:
 7914               	.LBE1086:
 7915               	.LBE1085:
 7916               	.LBB1087:
 7917               	.LBB1088:
 7918               	.LM1163:
 7919 24b6 8091 B109 		lds r24,2481
 7920 24ba 85FF      		sbrs r24,5
 7921 24bc 00C0      		rjmp .L633
 7922 24be 00C0      		rjmp .L1004
 7923               	.LVL462:
 7924               	.L765:
 7925               	.LBE1088:
 7926               	.LBE1087:
 7927               	.LBB1089:
 7928               	.LBB1090:
 7929 24c0 8091 B109 		lds r24,2481
 7930               	.LVL463:
 7931 24c4 85FF      		sbrs r24,5
 7932 24c6 00C0      		rjmp .L765
 7933               	.LM1164:
 7934 24c8 0093 B009 		sts 2480,r16
 7935               	.LBE1090:
 7936               	.LBE1089:
 7937               	.LM1165:
 7938 24cc 80EB      		ldi r24,lo8(2480)
 7939 24ce 99E0      		ldi r25,hi8(2480)
 7940 24d0 0E94 0000 		call uart_getchar_timeout
 7941 24d4 9C01      		movw r18,r24
 7942 24d6 6C01      		movw r12,r24
 7943               	.LM1166:
 7944 24d8 41E0      		ldi r20,hi8(256)
 7945 24da 8030      		cpi r24,lo8(256)
 7946 24dc 9407      		cpc r25,r20
 7947 24de 01F4      		brne .L764
 7948               	.LVL464:
 7949               	.L763:
 7950               	.LBB1091:
 7951               	.LBB1092:
 7952               	.LM1167:
 7953 24e0 8091 B109 		lds r24,2481
 7954 24e4 85FF      		sbrs r24,5
 7955 24e6 00C0      		rjmp .L763
 7956               	.LM1168:
 7957 24e8 8092 B009 		sts 2480,r8
 7958               	.L636:
 7959               	.LBE1092:
 7960               	.LBE1091:
 7961               	.LBB1093:
 7962               	.LBB1094:
 7963               	.LM1169:
 7964 24ec 8091 B109 		lds r24,2481
 7965 24f0 85FF      		sbrs r24,5
 7966 24f2 00C0      		rjmp .L636
 7967               	.LM1170:
 7968 24f4 9092 B009 		sts 2480,r9
 7969               	.L637:
 7970               	.LBE1094:
 7971               	.LBE1093:
 7972               	.LBB1095:
 7973               	.LBB1096:
 7974               	.LM1171:
 7975 24f8 8091 B109 		lds r24,2481
 7976 24fc 85FF      		sbrs r24,5
 7977 24fe 00C0      		rjmp .L637
 7978 2500 00C0      		rjmp .L1004
 7979               	.LVL465:
 7980               	.L764:
 7981               	.LBE1096:
 7982               	.LBE1095:
 7983               	.LBB1097:
 7984               	.LBB1098:
 7985 2502 8091 B109 		lds r24,2481
 7986 2506 85FF      		sbrs r24,5
 7987 2508 00C0      		rjmp .L764
 7988               	.LM1172:
 7989 250a 2093 B009 		sts 2480,r18
 7990               	.LBE1098:
 7991               	.LBE1097:
 7992               	.LM1173:
 7993 250e 902F      		mov r25,r16
 7994 2510 8827      		clr r24
 7995 2512 280F      		add r18,r24
 7996 2514 391F      		adc r19,r25
 7997               	.LVL466:
 7998 2516 2093 0000 		sts pwm_frequency,r18
 7999 251a 3093 0000 		sts (pwm_frequency)+1,r19
 8000 251e 00C0      		rjmp .L431
 8001               	.LVL467:
 8002               	.L1019:
 8003               	.LBB1099:
 8004               	.LBB774:
 8005               	.LM1174:
 8006 2520 51E0      		ldi r21,lo8(1)
 8007 2522 5093 000A 		sts 2560,r21
 8008               	.LM1175:
 8009 2526 23E0      		ldi r18,lo8(3)
 8010 2528 F201      		movw r30,r4
 8011 252a 2183      		std Z+1,r18
 8012               	.LM1176:
 8013 252c 1382      		std Z+3,__zero_reg__
 8014               	.LM1177:
 8015 252e 8091 0000 		lds r24,pwm_frequency
 8016 2532 9091 0000 		lds r25,(pwm_frequency)+1
 8017 2536 86AB      		std Z+54,r24
 8018 2538 97AB      		std Z+55,r25
 8019               	.LBE774:
 8020               	.LBE1099:
 8021               	.LM1178:
 8022 253a 80EB      		ldi r24,lo8(2480)
 8023 253c 99E0      		ldi r25,hi8(2480)
 8024 253e 0E94 0000 		call uart_getchar_timeout
 8025               	.LVL468:
 8026 2542 9C01      		movw r18,r24
 8027               	.LM1179:
 8028 2544 41E0      		ldi r20,hi8(256)
 8029 2546 8030      		cpi r24,lo8(256)
 8030 2548 9407      		cpc r25,r20
 8031 254a 01F4      		brne .L733
 8032               	.LVL469:
 8033               	.L724:
 8034               	.LBB1100:
 8035               	.LBB1101:
 8036               	.LM1180:
 8037 254c 8091 B109 		lds r24,2481
 8038               	.LVL470:
 8039 2550 85FF      		sbrs r24,5
 8040 2552 00C0      		rjmp .L724
 8041               	.LM1181:
 8042 2554 8092 B009 		sts 2480,r8
 8043               	.L640:
 8044               	.LBE1101:
 8045               	.LBE1100:
 8046               	.LBB1102:
 8047               	.LBB1103:
 8048               	.LM1182:
 8049 2558 8091 B109 		lds r24,2481
 8050 255c 85FF      		sbrs r24,5
 8051 255e 00C0      		rjmp .L640
 8052               	.LM1183:
 8053 2560 9092 B009 		sts 2480,r9
 8054               	.L641:
 8055               	.LBE1103:
 8056               	.LBE1102:
 8057               	.LBB1104:
 8058               	.LBB1105:
 8059               	.LM1184:
 8060 2564 8091 B109 		lds r24,2481
 8061 2568 85FF      		sbrs r24,5
 8062 256a 00C0      		rjmp .L641
 8063 256c 00C0      		rjmp .L1004
 8064               	.LVL471:
 8065               	.L733:
 8066               	.LBE1105:
 8067               	.LBE1104:
 8068               	.LBB1106:
 8069               	.LBB1107:
 8070 256e 8091 B109 		lds r24,2481
 8071               	.LVL472:
 8072 2572 85FF      		sbrs r24,5
 8073 2574 00C0      		rjmp .L733
 8074               	.LM1185:
 8075 2576 2093 B009 		sts 2480,r18
 8076               	.LBE1107:
 8077               	.LBE1106:
 8078               	.LM1186:
 8079 257a 2033      		cpi r18,48
 8080 257c 3105      		cpc r19,__zero_reg__
 8081 257e 01F0      		breq .+2
 8082 2580 00C0      		rjmp .L642
 8083               	.LVL473:
 8084               	.LM1187:
 8085 2582 80EB      		ldi r24,lo8(2480)
 8086 2584 99E0      		ldi r25,hi8(2480)
 8087 2586 0E94 0000 		call uart_getchar_timeout
 8088               	.LVL474:
 8089 258a 8C01      		movw r16,r24
 8090               	.LVL475:
 8091               	.LM1188:
 8092 258c 51E0      		ldi r21,hi8(256)
 8093 258e 8030      		cpi r24,lo8(256)
 8094 2590 9507      		cpc r25,r21
 8095 2592 01F4      		brne .L728
 8096               	.LVL476:
 8097               	.L725:
 8098               	.LBB1108:
 8099               	.LBB1109:
 8100               	.LM1189:
 8101 2594 8091 B109 		lds r24,2481
 8102               	.LVL477:
 8103 2598 85FF      		sbrs r24,5
 8104 259a 00C0      		rjmp .L725
 8105               	.LM1190:
 8106 259c 8092 B009 		sts 2480,r8
 8107               	.L645:
 8108               	.LBE1109:
 8109               	.LBE1108:
 8110               	.LBB1110:
 8111               	.LBB1111:
 8112               	.LM1191:
 8113 25a0 8091 B109 		lds r24,2481
 8114 25a4 85FF      		sbrs r24,5
 8115 25a6 00C0      		rjmp .L645
 8116               	.LM1192:
 8117 25a8 9092 B009 		sts 2480,r9
 8118               	.L646:
 8119               	.LBE1111:
 8120               	.LBE1110:
 8121               	.LBB1112:
 8122               	.LBB1113:
 8123               	.LM1193:
 8124 25ac 8091 B109 		lds r24,2481
 8125 25b0 85FF      		sbrs r24,5
 8126 25b2 00C0      		rjmp .L646
 8127 25b4 00C0      		rjmp .L1004
 8128               	.LVL478:
 8129               	.L728:
 8130               	.LBE1113:
 8131               	.LBE1112:
 8132               	.LBB1114:
 8133               	.LBB1115:
 8134 25b6 8091 B109 		lds r24,2481
 8135               	.LVL479:
 8136 25ba 85FF      		sbrs r24,5
 8137 25bc 00C0      		rjmp .L728
 8138               	.LM1194:
 8139 25be 0093 B009 		sts 2480,r16
 8140               	.LBE1115:
 8141               	.LBE1114:
 8142               	.LM1195:
 8143 25c2 80EB      		ldi r24,lo8(2480)
 8144 25c4 99E0      		ldi r25,hi8(2480)
 8145 25c6 0E94 0000 		call uart_getchar_timeout
 8146 25ca 9C01      		movw r18,r24
 8147 25cc 6C01      		movw r12,r24
 8148               	.LM1196:
 8149 25ce 61E0      		ldi r22,hi8(256)
 8150 25d0 8030      		cpi r24,lo8(256)
 8151 25d2 9607      		cpc r25,r22
 8152 25d4 01F4      		brne .L727
 8153               	.LVL480:
 8154               	.L726:
 8155               	.LBB1116:
 8156               	.LBB1117:
 8157               	.LM1197:
 8158 25d6 8091 B109 		lds r24,2481
 8159 25da 85FF      		sbrs r24,5
 8160 25dc 00C0      		rjmp .L726
 8161               	.LM1198:
 8162 25de 8092 B009 		sts 2480,r8
 8163               	.L649:
 8164               	.LBE1117:
 8165               	.LBE1116:
 8166               	.LBB1118:
 8167               	.LBB1119:
 8168               	.LM1199:
 8169 25e2 8091 B109 		lds r24,2481
 8170 25e6 85FF      		sbrs r24,5
 8171 25e8 00C0      		rjmp .L649
 8172               	.LM1200:
 8173 25ea 9092 B009 		sts 2480,r9
 8174               	.L650:
 8175               	.LBE1119:
 8176               	.LBE1118:
 8177               	.LBB1120:
 8178               	.LBB1121:
 8179               	.LM1201:
 8180 25ee 8091 B109 		lds r24,2481
 8181 25f2 85FF      		sbrs r24,5
 8182 25f4 00C0      		rjmp .L650
 8183 25f6 00C0      		rjmp .L1004
 8184               	.LVL481:
 8185               	.L727:
 8186               	.LBE1121:
 8187               	.LBE1120:
 8188               	.LBB1122:
 8189               	.LBB1123:
 8190 25f8 8091 B109 		lds r24,2481
 8191 25fc 85FF      		sbrs r24,5
 8192 25fe 00C0      		rjmp .L727
 8193               	.LM1202:
 8194 2600 2093 B009 		sts 2480,r18
 8195               	.LBE1123:
 8196               	.LBE1122:
 8197               	.LM1203:
 8198 2604 902F      		mov r25,r16
 8199 2606 8827      		clr r24
 8200 2608 280F      		add r18,r24
 8201 260a 391F      		adc r19,r25
 8202               	.LVL482:
 8203               	.LBB1124:
 8204               	.LBB1125:
 8205               	.LM1204:
 8206 260c 8091 010A 		lds r24,2561
 8207 2610 8064      		ori r24,lo8(64)
 8208 2612 F201      		movw r30,r4
 8209 2614 8183      		std Z+1,r24
 8210               	.LM1205:
 8211 2616 F4E0      		ldi r31,lo8(4)
 8212 2618 F093 8106 		sts 1665,r31
 8213               	.LM1206:
 8214 261c F201      		movw r30,r4
 8215 261e 24A7      		std Z+44,r18
 8216 2620 35A7      		std Z+45,r19
 8217 2622 00C0      		rjmp .L431
 8218               	.LVL483:
 8219               	.L642:
 8220               	.LBE1125:
 8221               	.LBE1124:
 8222               	.LM1207:
 8223 2624 2133      		cpi r18,49
 8224 2626 3105      		cpc r19,__zero_reg__
 8225 2628 01F0      		breq .+2
 8226 262a 00C0      		rjmp .L431
 8227               	.LM1208:
 8228 262c 80EB      		ldi r24,lo8(2480)
 8229 262e 99E0      		ldi r25,hi8(2480)
 8230 2630 0E94 0000 		call uart_getchar_timeout
 8231               	.LVL484:
 8232 2634 8C01      		movw r16,r24
 8233               	.LVL485:
 8234               	.LM1209:
 8235 2636 F1E0      		ldi r31,hi8(256)
 8236 2638 8030      		cpi r24,lo8(256)
 8237 263a 9F07      		cpc r25,r31
 8238 263c 01F4      		brne .L732
 8239               	.LVL486:
 8240               	.L729:
 8241               	.LBB1126:
 8242               	.LBB1127:
 8243               	.LM1210:
 8244 263e 8091 B109 		lds r24,2481
 8245               	.LVL487:
 8246 2642 85FF      		sbrs r24,5
 8247 2644 00C0      		rjmp .L729
 8248               	.LM1211:
 8249 2646 8092 B009 		sts 2480,r8
 8250               	.L653:
 8251               	.LBE1127:
 8252               	.LBE1126:
 8253               	.LBB1128:
 8254               	.LBB1129:
 8255               	.LM1212:
 8256 264a 8091 B109 		lds r24,2481
 8257 264e 85FF      		sbrs r24,5
 8258 2650 00C0      		rjmp .L653
 8259               	.LM1213:
 8260 2652 9092 B009 		sts 2480,r9
 8261               	.L654:
 8262               	.LBE1129:
 8263               	.LBE1128:
 8264               	.LBB1130:
 8265               	.LBB1131:
 8266               	.LM1214:
 8267 2656 8091 B109 		lds r24,2481
 8268 265a 85FF      		sbrs r24,5
 8269 265c 00C0      		rjmp .L654
 8270 265e 00C0      		rjmp .L1004
 8271               	.LVL488:
 8272               	.L732:
 8273               	.LBE1131:
 8274               	.LBE1130:
 8275               	.LBB1132:
 8276               	.LBB1133:
 8277 2660 8091 B109 		lds r24,2481
 8278               	.LVL489:
 8279 2664 85FF      		sbrs r24,5
 8280 2666 00C0      		rjmp .L732
 8281               	.LM1215:
 8282 2668 0093 B009 		sts 2480,r16
 8283               	.LBE1133:
 8284               	.LBE1132:
 8285               	.LM1216:
 8286 266c 80EB      		ldi r24,lo8(2480)
 8287 266e 99E0      		ldi r25,hi8(2480)
 8288 2670 0E94 0000 		call uart_getchar_timeout
 8289 2674 9C01      		movw r18,r24
 8290 2676 6C01      		movw r12,r24
 8291               	.LM1217:
 8292 2678 41E0      		ldi r20,hi8(256)
 8293 267a 8030      		cpi r24,lo8(256)
 8294 267c 9407      		cpc r25,r20
 8295 267e 01F4      		brne .L731
 8296               	.LVL490:
 8297               	.L730:
 8298               	.LBB1134:
 8299               	.LBB1135:
 8300               	.LM1218:
 8301 2680 8091 B109 		lds r24,2481
 8302 2684 85FF      		sbrs r24,5
 8303 2686 00C0      		rjmp .L730
 8304               	.LM1219:
 8305 2688 8092 B009 		sts 2480,r8
 8306               	.L657:
 8307               	.LBE1135:
 8308               	.LBE1134:
 8309               	.LBB1136:
 8310               	.LBB1137:
 8311               	.LM1220:
 8312 268c 8091 B109 		lds r24,2481
 8313 2690 85FF      		sbrs r24,5
 8314 2692 00C0      		rjmp .L657
 8315               	.LM1221:
 8316 2694 9092 B009 		sts 2480,r9
 8317               	.L658:
 8318               	.LBE1137:
 8319               	.LBE1136:
 8320               	.LBB1138:
 8321               	.LBB1139:
 8322               	.LM1222:
 8323 2698 8091 B109 		lds r24,2481
 8324 269c 85FF      		sbrs r24,5
 8325 269e 00C0      		rjmp .L658
 8326 26a0 00C0      		rjmp .L1004
 8327               	.LVL491:
 8328               	.L731:
 8329               	.LBE1139:
 8330               	.LBE1138:
 8331               	.LBB1140:
 8332               	.LBB1141:
 8333 26a2 8091 B109 		lds r24,2481
 8334 26a6 85FF      		sbrs r24,5
 8335 26a8 00C0      		rjmp .L731
 8336               	.LM1223:
 8337 26aa 2093 B009 		sts 2480,r18
 8338               	.LBE1141:
 8339               	.LBE1140:
 8340               	.LM1224:
 8341 26ae 902F      		mov r25,r16
 8342 26b0 8827      		clr r24
 8343 26b2 280F      		add r18,r24
 8344 26b4 391F      		adc r19,r25
 8345               	.LVL492:
 8346               	.LBB1142:
 8347               	.LBB1143:
 8348               	.LM1225:
 8349 26b6 8091 010A 		lds r24,2561
 8350 26ba 8068      		ori r24,lo8(-128)
 8351 26bc F201      		movw r30,r4
 8352 26be 8183      		std Z+1,r24
 8353               	.LM1226:
 8354 26c0 F8E0      		ldi r31,lo8(8)
 8355 26c2 F093 8106 		sts 1665,r31
 8356               	.LM1227:
 8357 26c6 F201      		movw r30,r4
 8358 26c8 26A7      		std Z+46,r18
 8359 26ca 37A7      		std Z+47,r19
 8360 26cc 00C0      		rjmp .L431
 8361               	.LVL493:
 8362               	.L1018:
 8363               	.LBE1143:
 8364               	.LBE1142:
 8365               	.LM1228:
 8366 26ce 80EB      		ldi r24,lo8(2480)
 8367 26d0 99E0      		ldi r25,hi8(2480)
 8368 26d2 0E94 0000 		call uart_getchar_timeout
 8369               	.LVL494:
 8370 26d6 9C01      		movw r18,r24
 8371               	.LM1229:
 8372 26d8 F1E0      		ldi r31,hi8(256)
 8373 26da 8030      		cpi r24,lo8(256)
 8374 26dc 9F07      		cpc r25,r31
 8375 26de 01F4      		brne .L737
 8376               	.LVL495:
 8377               	.L734:
 8378               	.LBB1144:
 8379               	.LBB1145:
 8380               	.LM1230:
 8381 26e0 8091 B109 		lds r24,2481
 8382               	.LVL496:
 8383 26e4 85FF      		sbrs r24,5
 8384 26e6 00C0      		rjmp .L734
 8385               	.LM1231:
 8386 26e8 8092 B009 		sts 2480,r8
 8387               	.L661:
 8388               	.LBE1145:
 8389               	.LBE1144:
 8390               	.LBB1146:
 8391               	.LBB1147:
 8392               	.LM1232:
 8393 26ec 8091 B109 		lds r24,2481
 8394 26f0 85FF      		sbrs r24,5
 8395 26f2 00C0      		rjmp .L661
 8396               	.LM1233:
 8397 26f4 9092 B009 		sts 2480,r9
 8398               	.L662:
 8399               	.LBE1147:
 8400               	.LBE1146:
 8401               	.LBB1148:
 8402               	.LBB1149:
 8403               	.LM1234:
 8404 26f8 8091 B109 		lds r24,2481
 8405 26fc 85FF      		sbrs r24,5
 8406 26fe 00C0      		rjmp .L662
 8407 2700 00C0      		rjmp .L1004
 8408               	.LVL497:
 8409               	.L737:
 8410               	.LBE1149:
 8411               	.LBE1148:
 8412               	.LBB1150:
 8413               	.LBB1151:
 8414 2702 8091 B109 		lds r24,2481
 8415               	.LVL498:
 8416 2706 85FF      		sbrs r24,5
 8417 2708 00C0      		rjmp .L737
 8418               	.LM1235:
 8419 270a 2093 B009 		sts 2480,r18
 8420               	.LBE1151:
 8421               	.LBE1150:
 8422               	.LM1236:
 8423 270e 2033      		cpi r18,48
 8424 2710 3105      		cpc r19,__zero_reg__
 8425 2712 01F4      		brne .L663
 8426               	.LVL499:
 8427               	.LM1237:
 8428 2714 80EB      		ldi r24,lo8(2480)
 8429 2716 99E0      		ldi r25,hi8(2480)
 8430 2718 0E94 0000 		call uart_getchar_timeout
 8431               	.LVL500:
 8432               	.LM1238:
 8433 271c 41E0      		ldi r20,hi8(256)
 8434 271e 8030      		cpi r24,lo8(256)
 8435 2720 9407      		cpc r25,r20
 8436 2722 01F4      		brne .L664
 8437               	.LVL501:
 8438               	.L735:
 8439               	.LBB1152:
 8440               	.LBB1153:
 8441               	.LM1239:
 8442 2724 8091 B109 		lds r24,2481
 8443               	.LVL502:
 8444 2728 85FF      		sbrs r24,5
 8445 272a 00C0      		rjmp .L735
 8446               	.LM1240:
 8447 272c 8092 B009 		sts 2480,r8
 8448               	.L666:
 8449               	.LBE1153:
 8450               	.LBE1152:
 8451               	.LBB1154:
 8452               	.LBB1155:
 8453               	.LM1241:
 8454 2730 8091 B109 		lds r24,2481
 8455 2734 85FF      		sbrs r24,5
 8456 2736 00C0      		rjmp .L666
 8457               	.LM1242:
 8458 2738 9092 B009 		sts 2480,r9
 8459               	.L667:
 8460               	.LBE1155:
 8461               	.LBE1154:
 8462               	.LBB1156:
 8463               	.LBB1157:
 8464               	.LM1243:
 8465 273c 8091 B109 		lds r24,2481
 8466 2740 85FF      		sbrs r24,5
 8467 2742 00C0      		rjmp .L667
 8468 2744 00C0      		rjmp .L1004
 8469               	.LVL503:
 8470               	.L664:
 8471               	.LBE1157:
 8472               	.LBE1156:
 8473               	.LM1244:
 8474 2746 982F      		mov r25,r24
 8475               	.L668:
 8476               	.LBB1158:
 8477               	.LBB1159:
 8478               	.LM1245:
 8479 2748 8091 B109 		lds r24,2481
 8480               	.LVL504:
 8481 274c 85FF      		sbrs r24,5
 8482 274e 00C0      		rjmp .L668
 8483               	.LM1246:
 8484 2750 9093 B009 		sts 2480,r25
 8485               	.LBE1159:
 8486               	.LBE1158:
 8487               	.LBB1160:
 8488               	.LBB1161:
 8489               	.LM1247:
 8490 2754 8091 2003 		lds r24,800
 8491 2758 8460      		ori r24,lo8(4)
 8492 275a 8093 2003 		sts 800,r24
 8493               	.L669:
 8494               	.LM1248:
 8495 275e 8091 2503 		lds r24,805
 8496 2762 80FF      		sbrs r24,0
 8497 2764 00C0      		rjmp .L669
 8498               	.LM1249:
 8499 2766 9093 3903 		sts 825,r25
 8500 276a 00C0      		rjmp .L431
 8501               	.LVL505:
 8502               	.L663:
 8503               	.LBE1161:
 8504               	.LBE1160:
 8505               	.LM1250:
 8506 276c 2133      		cpi r18,49
 8507 276e 3105      		cpc r19,__zero_reg__
 8508 2770 01F0      		breq .+2
 8509 2772 00C0      		rjmp .L431
 8510               	.LM1251:
 8511 2774 80EB      		ldi r24,lo8(2480)
 8512 2776 99E0      		ldi r25,hi8(2480)
 8513 2778 0E94 0000 		call uart_getchar_timeout
 8514               	.LVL506:
 8515               	.LM1252:
 8516 277c 51E0      		ldi r21,hi8(256)
 8517 277e 8030      		cpi r24,lo8(256)
 8518 2780 9507      		cpc r25,r21
 8519 2782 01F4      		brne .L670
 8520               	.LVL507:
 8521               	.L736:
 8522               	.LBB1162:
 8523               	.LBB1163:
 8524               	.LM1253:
 8525 2784 8091 B109 		lds r24,2481
 8526               	.LVL508:
 8527 2788 85FF      		sbrs r24,5
 8528 278a 00C0      		rjmp .L736
 8529               	.LM1254:
 8530 278c 8092 B009 		sts 2480,r8
 8531               	.L672:
 8532               	.LBE1163:
 8533               	.LBE1162:
 8534               	.LBB1164:
 8535               	.LBB1165:
 8536               	.LM1255:
 8537 2790 8091 B109 		lds r24,2481
 8538 2794 85FF      		sbrs r24,5
 8539 2796 00C0      		rjmp .L672
 8540               	.LM1256:
 8541 2798 9092 B009 		sts 2480,r9
 8542               	.L673:
 8543               	.LBE1165:
 8544               	.LBE1164:
 8545               	.LBB1166:
 8546               	.LBB1167:
 8547               	.LM1257:
 8548 279c 8091 B109 		lds r24,2481
 8549 27a0 85FF      		sbrs r24,5
 8550 27a2 00C0      		rjmp .L673
 8551 27a4 00C0      		rjmp .L1004
 8552               	.LVL509:
 8553               	.L670:
 8554               	.LBE1167:
 8555               	.LBE1166:
 8556               	.LM1258:
 8557 27a6 982F      		mov r25,r24
 8558               	.L674:
 8559               	.LBB1168:
 8560               	.LBB1169:
 8561               	.LM1259:
 8562 27a8 8091 B109 		lds r24,2481
 8563               	.LVL510:
 8564 27ac 85FF      		sbrs r24,5
 8565 27ae 00C0      		rjmp .L674
 8566               	.LM1260:
 8567 27b0 9093 B009 		sts 2480,r25
 8568               	.LBE1169:
 8569               	.LBE1168:
 8570               	.LBB1170:
 8571               	.LBB1171:
 8572               	.LM1261:
 8573 27b4 8091 2003 		lds r24,800
 8574 27b8 8860      		ori r24,lo8(8)
 8575 27ba 8093 2003 		sts 800,r24
 8576               	.L675:
 8577               	.LM1262:
 8578 27be 8091 2503 		lds r24,805
 8579 27c2 81FF      		sbrs r24,1
 8580 27c4 00C0      		rjmp .L675
 8581               	.LM1263:
 8582 27c6 9093 3B03 		sts 827,r25
 8583 27ca 00C0      		rjmp .L431
 8584               	.LVL511:
 8585               	.L437:
 8586               	.LBE1171:
 8587               	.LBE1170:
 8588               	.LM1264:
 8589 27cc 80EB      		ldi r24,lo8(2480)
 8590 27ce 99E0      		ldi r25,hi8(2480)
 8591 27d0 0E94 0000 		call uart_getchar_timeout
 8592               	.LVL512:
 8593 27d4 7C01      		movw r14,r24
 8594               	.LVL513:
 8595               	.LM1265:
 8596 27d6 61E0      		ldi r22,hi8(256)
 8597 27d8 8030      		cpi r24,lo8(256)
 8598 27da 9607      		cpc r25,r22
 8599 27dc 01F4      		brne .L777
 8600               	.LVL514:
 8601               	.L773:
 8602               	.LBB1172:
 8603               	.LBB1173:
 8604               	.LM1266:
 8605 27de 8091 B109 		lds r24,2481
 8606               	.LVL515:
 8607 27e2 85FF      		sbrs r24,5
 8608 27e4 00C0      		rjmp .L773
 8609               	.LM1267:
 8610 27e6 8092 B009 		sts 2480,r8
 8611               	.L678:
 8612               	.LBE1173:
 8613               	.LBE1172:
 8614               	.LBB1174:
 8615               	.LBB1175:
 8616               	.LM1268:
 8617 27ea 8091 B109 		lds r24,2481
 8618 27ee 85FF      		sbrs r24,5
 8619 27f0 00C0      		rjmp .L678
 8620               	.LM1269:
 8621 27f2 9092 B009 		sts 2480,r9
 8622               	.L679:
 8623               	.LBE1175:
 8624               	.LBE1174:
 8625               	.LBB1176:
 8626               	.LBB1177:
 8627               	.LM1270:
 8628 27f6 8091 B109 		lds r24,2481
 8629 27fa 85FF      		sbrs r24,5
 8630 27fc 00C0      		rjmp .L679
 8631 27fe 00C0      		rjmp .L1004
 8632               	.LVL516:
 8633               	.L777:
 8634               	.LBE1177:
 8635               	.LBE1176:
 8636               	.LBB1178:
 8637               	.LBB1179:
 8638 2800 8091 B109 		lds r24,2481
 8639               	.LVL517:
 8640 2804 85FF      		sbrs r24,5
 8641 2806 00C0      		rjmp .L777
 8642               	.LM1271:
 8643 2808 E092 B009 		sts 2480,r14
 8644               	.LBE1179:
 8645               	.LBE1178:
 8646               	.LM1272:
 8647 280c 80EB      		ldi r24,lo8(2480)
 8648 280e 99E0      		ldi r25,hi8(2480)
 8649 2810 0E94 0000 		call uart_getchar_timeout
 8650 2814 8C01      		movw r16,r24
 8651               	.LVL518:
 8652 2816 6C01      		movw r12,r24
 8653               	.LM1273:
 8654 2818 81E0      		ldi r24,hi8(256)
 8655 281a 0030      		cpi r16,lo8(256)
 8656 281c 1807      		cpc r17,r24
 8657 281e 01F4      		brne .L776
 8658               	.LVL519:
 8659               	.L774:
 8660               	.LBB1180:
 8661               	.LBB1181:
 8662               	.LM1274:
 8663 2820 8091 B109 		lds r24,2481
 8664 2824 85FF      		sbrs r24,5
 8665 2826 00C0      		rjmp .L774
 8666               	.LM1275:
 8667 2828 8092 B009 		sts 2480,r8
 8668               	.L682:
 8669               	.LBE1181:
 8670               	.LBE1180:
 8671               	.LBB1182:
 8672               	.LBB1183:
 8673               	.LM1276:
 8674 282c 8091 B109 		lds r24,2481
 8675 2830 85FF      		sbrs r24,5
 8676 2832 00C0      		rjmp .L682
 8677               	.LM1277:
 8678 2834 9092 B009 		sts 2480,r9
 8679               	.L683:
 8680               	.LBE1183:
 8681               	.LBE1182:
 8682               	.LBB1184:
 8683               	.LBB1185:
 8684               	.LM1278:
 8685 2838 8091 B109 		lds r24,2481
 8686 283c 85FF      		sbrs r24,5
 8687 283e 00C0      		rjmp .L683
 8688 2840 00C0      		rjmp .L1004
 8689               	.L776:
 8690               	.LBE1185:
 8691               	.LBE1184:
 8692               	.LBB1186:
 8693               	.LBB1187:
 8694 2842 8091 B109 		lds r24,2481
 8695 2846 85FF      		sbrs r24,5
 8696 2848 00C0      		rjmp .L776
 8697               	.LM1279:
 8698 284a 0093 B009 		sts 2480,r16
 8699               	.LBE1187:
 8700               	.LBE1186:
 8701               	.LM1280:
 8702 284e 80EB      		ldi r24,lo8(2480)
 8703 2850 99E0      		ldi r25,hi8(2480)
 8704 2852 0E94 0000 		call uart_getchar_timeout
 8705 2856 9C01      		movw r18,r24
 8706               	.LM1281:
 8707 2858 91E0      		ldi r25,hi8(256)
 8708 285a 2030      		cpi r18,lo8(256)
 8709 285c 3907      		cpc r19,r25
 8710 285e 01F4      		brne .L684
 8711               	.LVL520:
 8712               	.L775:
 8713               	.LBB1188:
 8714               	.LBB1189:
 8715               	.LM1282:
 8716 2860 8091 B109 		lds r24,2481
 8717 2864 85FF      		sbrs r24,5
 8718 2866 00C0      		rjmp .L775
 8719               	.LM1283:
 8720 2868 8092 B009 		sts 2480,r8
 8721               	.L686:
 8722               	.LBE1189:
 8723               	.LBE1188:
 8724               	.LBB1190:
 8725               	.LBB1191:
 8726               	.LM1284:
 8727 286c 8091 B109 		lds r24,2481
 8728 2870 85FF      		sbrs r24,5
 8729 2872 00C0      		rjmp .L686
 8730               	.LM1285:
 8731 2874 9092 B009 		sts 2480,r9
 8732               	.L687:
 8733               	.LBE1191:
 8734               	.LBE1190:
 8735               	.LBB1192:
 8736               	.LBB1193:
 8737               	.LM1286:
 8738 2878 8091 B109 		lds r24,2481
 8739 287c 85FF      		sbrs r24,5
 8740 287e 00C0      		rjmp .L687
 8741               	.LM1287:
 8742 2880 9092 B009 		sts 2480,r9
 8743 2884 00C0      		rjmp .L1005
 8744               	.L684:
 8745               	.LBE1193:
 8746               	.LBE1192:
 8747               	.LM1288:
 8748 2886 422F      		mov r20,r18
 8749               	.L688:
 8750               	.LBB1194:
 8751               	.LBB1195:
 8752               	.LM1289:
 8753 2888 8091 B109 		lds r24,2481
 8754 288c 85FF      		sbrs r24,5
 8755 288e 00C0      		rjmp .L688
 8756               	.LM1290:
 8757 2890 4093 B009 		sts 2480,r20
 8758               	.L689:
 8759               	.LBE1195:
 8760               	.LBE1194:
 8761               	.LBB1196:
 8762               	.LBB1197:
 8763               	.LM1291:
 8764 2894 8091 B109 		lds r24,2481
 8765 2898 85FF      		sbrs r24,5
 8766 289a 00C0      		rjmp .L689
 8767               	.LBE1197:
 8768               	.LBE1196:
 8769               	.LM1292:
 8770 289c 9E2D      		mov r25,r14
 8771 289e 8827      		clr r24
 8772               	.LVL521:
 8773 28a0 800F      		add r24,r16
 8774 28a2 911F      		adc r25,r17
 8775               	.LBB1199:
 8776               	.LBB1198:
 8777               	.LM1293:
 8778 28a4 4093 B009 		sts 2480,r20
 8779               	.LBE1198:
 8780               	.LBE1199:
 8781               	.LBB1200:
 8782               	.LBB1201:
 8783               	.LM1294:
 8784 28a8 8093 A608 		sts 2214,r24
 8785 28ac 4295      		swap r20
 8786 28ae 407F      		andi r20,lo8(-16)
 8787 28b0 892F      		mov r24,r25
 8788 28b2 990F      		lsl r25
 8789 28b4 990B      		sbc r25,r25
 8790               	.LVL522:
 8791 28b6 482B      		or r20,r24
 8792 28b8 4093 A708 		sts 2215,r20
 8793               	.LVL523:
 8794               	.L1005:
 8795 28bc 6901      		movw r12,r18
 8796 28be 00C0      		rjmp .L431
 8797               	.LVL524:
 8798               	.L690:
 8799               	.LBE1201:
 8800               	.LBE1200:
 8801               	.LBB1202:
 8802               	.LBB1203:
 8803               	.LM1295:
 8804 28c0 E091 0000 		lds r30,AUX_data+259
 8805 28c4 F0E0      		ldi r31,lo8(0)
 8806 28c6 E050      		subi r30,lo8(-(AUX_data))
 8807 28c8 F040      		sbci r31,hi8(-(AUX_data))
 8808 28ca 9281      		ldd r25,Z+2
 8809               	.LVL525:
 8810               	.LM1296:
 8811 28cc 8091 0000 		lds r24,AUX_data+259
 8812               	.LVL526:
 8813 28d0 8F5F      		subi r24,lo8(-(1))
 8814 28d2 8093 0000 		sts AUX_data+259,r24
 8815               	.LBE1203:
 8816               	.LBE1202:
 8817               	.LM1297:
 8818 28d6 E1E0      		ldi r30,lo8(1)
 8819 28d8 F0E0      		ldi r31,hi8(1)
 8820 28da EC0F      		add r30,r28
 8821 28dc FD1F      		adc r31,r29
 8822 28de E20F      		add r30,r18
 8823 28e0 F11D      		adc r31,__zero_reg__
 8824 28e2 9083      		st Z,r25
 8825               	.LM1298:
 8826 28e4 2F5F      		subi r18,lo8(-(1))
 8827               	.LVL527:
 8828               	.L464:
 8829               	.LBB1204:
 8830               	.LBB1205:
 8831               	.LM1299:
 8832 28e6 9091 0000 		lds r25,AUX_data+258
 8833               	.LVL528:
 8834               	.LM1300:
 8835 28ea 8091 0000 		lds r24,AUX_data+259
 8836               	.LVL529:
 8837               	.LBE1205:
 8838               	.LBE1204:
 8839               	.LM1301:
 8840 28ee 9817      		cp r25,r24
 8841 28f0 01F4      		brne .L690
 8842               	.L712:
 8843               	.LBB1206:
 8844               	.LBB1207:
 8845               	.LM1302:
 8846 28f2 8091 B109 		lds r24,2481
 8847               	.LVL530:
 8848 28f6 85FF      		sbrs r24,5
 8849 28f8 00C0      		rjmp .L712
 8850               	.LBE1207:
 8851               	.LBE1206:
 8852               	.LM1303:
 8853 28fa 2F5F      		subi r18,lo8(-(1))
 8854               	.LBB1209:
 8855               	.LBB1208:
 8856               	.LM1304:
 8857 28fc 2093 B009 		sts 2480,r18
 8858 2900 2150      		subi r18,lo8(-(-1))
 8859 2902 FE01      		movw r30,r28
 8860 2904 3196      		adiw r30,1
 8861               	.LBE1208:
 8862               	.LBE1209:
 8863               	.LBB1210:
 8864               	.LM1305:
 8865 2906 AF01      		movw r20,r30
 8866 2908 420F      		add r20,r18
 8867 290a 511D      		adc r21,__zero_reg__
 8868 290c 9A01      		movw r18,r20
 8869               	.LVL531:
 8870 290e 00C0      		rjmp .L692
 8871               	.L694:
 8872               	.LM1306:
 8873 2910 9081      		ld r25,Z
 8874               	.LVL532:
 8875               	.L693:
 8876               	.LBB1211:
 8877               	.LBB1212:
 8878               	.LM1307:
 8879 2912 8091 B109 		lds r24,2481
 8880 2916 85FF      		sbrs r24,5
 8881 2918 00C0      		rjmp .L693
 8882               	.LM1308:
 8883 291a 9093 B009 		sts 2480,r25
 8884 291e 3196      		adiw r30,1
 8885               	.LVL533:
 8886               	.L692:
 8887               	.LBE1212:
 8888               	.LBE1211:
 8889               	.LM1309:
 8890 2920 E217      		cp r30,r18
 8891 2922 F307      		cpc r31,r19
 8892 2924 01F4      		brne .L694
 8893 2926 00C0      		rjmp .L431
 8894               	.LVL534:
 8895               	.L1020:
 8896               	.LBE1210:
 8897               	.LM1310:
 8898 2928 80EB      		ldi r24,lo8(2480)
 8899 292a 99E0      		ldi r25,hi8(2480)
 8900 292c 0E94 0000 		call uart_getchar_timeout
 8901               	.LVL535:
 8902 2930 8C01      		movw r16,r24
 8903               	.LVL536:
 8904               	.L695:
 8905               	.LBB1213:
 8906               	.LBB1214:
 8907               	.LM1311:
 8908 2932 8091 B109 		lds r24,2481
 8909 2936 85FF      		sbrs r24,5
 8910 2938 00C0      		rjmp .L695
 8911               	.LM1312:
 8912 293a 0093 B009 		sts 2480,r16
 8913 293e EE24      		clr r14
 8914 2940 FF24      		clr r15
 8915 2942 00C0      		rjmp .L696
 8916               	.LVL537:
 8917               	.L703:
 8918               	.LBE1214:
 8919               	.LBE1213:
 8920               	.LBB1215:
 8921               	.LM1313:
 8922 2944 80EB      		ldi r24,lo8(2480)
 8923 2946 99E0      		ldi r25,hi8(2480)
 8924 2948 0E94 0000 		call uart_getchar_timeout
 8925 294c 6C01      		movw r12,r24
 8926               	.LM1314:
 8927 294e 51E0      		ldi r21,hi8(256)
 8928 2950 8030      		cpi r24,lo8(256)
 8929 2952 9507      		cpc r25,r21
 8930 2954 01F4      		brne .L697
 8931               	.L718:
 8932               	.LBB1216:
 8933               	.LBB1217:
 8934               	.LM1315:
 8935 2956 8091 B109 		lds r24,2481
 8936 295a 85FF      		sbrs r24,5
 8937 295c 00C0      		rjmp .L718
 8938               	.LM1316:
 8939 295e 8092 B009 		sts 2480,r8
 8940               	.L699:
 8941               	.LBE1217:
 8942               	.LBE1216:
 8943               	.LBB1218:
 8944               	.LBB1219:
 8945               	.LM1317:
 8946 2962 8091 B109 		lds r24,2481
 8947 2966 85FF      		sbrs r24,5
 8948 2968 00C0      		rjmp .L699
 8949               	.LM1318:
 8950 296a 9092 B009 		sts 2480,r9
 8951               	.L700:
 8952               	.LBE1219:
 8953               	.LBE1218:
 8954               	.LBB1220:
 8955               	.LBB1221:
 8956               	.LM1319:
 8957 296e 8091 B109 		lds r24,2481
 8958 2972 85FF      		sbrs r24,5
 8959 2974 00C0      		rjmp .L700
 8960               	.LVL538:
 8961               	.L1004:
 8962               	.LM1320:
 8963 2976 9092 B009 		sts 2480,r9
 8964 297a 00C0      		rjmp .L431
 8965               	.LVL539:
 8966               	.L697:
 8967               	.LBE1221:
 8968               	.LBE1220:
 8969               	.LM1321:
 8970 297c 982F      		mov r25,r24
 8971               	.LVL540:
 8972               	.L701:
 8973               	.LBB1222:
 8974               	.LBB1223:
 8975               	.LM1322:
 8976 297e 8091 B109 		lds r24,2481
 8977 2982 85FF      		sbrs r24,5
 8978 2984 00C0      		rjmp .L701
 8979               	.LM1323:
 8980 2986 9093 B009 		sts 2480,r25
 8981               	.L702:
 8982               	.LBE1223:
 8983               	.LBE1222:
 8984               	.LBB1224:
 8985               	.LBB1225:
 8986               	.LM1324:
 8987 298a 8091 A108 		lds r24,2209
 8988 298e 85FF      		sbrs r24,5
 8989 2990 00C0      		rjmp .L702
 8990               	.LM1325:
 8991 2992 9093 A008 		sts 2208,r25
 8992               	.LBE1225:
 8993               	.LBE1224:
 8994               	.LM1326:
 8995 2996 0894      		sec
 8996 2998 E11C      		adc r14,__zero_reg__
 8997 299a F11C      		adc r15,__zero_reg__
 8998               	.L696:
 8999 299c E016      		cp r14,r16
 9000 299e F106      		cpc r15,r17
 9001 29a0 00F0      		brlo .L703
 9002               	.LVL541:
 9003               	.L431:
 9004 29a2 80E0      		ldi r24,lo8(0)
 9005 29a4 90E0      		ldi r25,hi8(0)
 9006 29a6 A0E0      		ldi r26,hlo8(0)
 9007 29a8 B0E0      		ldi r27,hhi8(0)
 9008               	.LVL542:
 9009 29aa 00C0      		rjmp .L470
 9010               	.LVL543:
 9011               	.L429:
 9012 29ac 88A1      		ldd r24,Y+32
 9013 29ae 99A1      		ldd r25,Y+33
 9014 29b0 AAA1      		ldd r26,Y+34
 9015 29b2 BBA1      		ldd r27,Y+35
 9016               	.LVL544:
 9017               	.L470:
 9018               	.LBE1215:
 9019               	.LM1327:
 9020 29b4 28A1      		ldd r18,Y+32
 9021 29b6 39A1      		ldd r19,Y+33
 9022 29b8 4AA1      		ldd r20,Y+34
 9023 29ba 5BA1      		ldd r21,Y+35
 9024 29bc 2158      		subi r18,lo8(33840001)
 9025 29be 3B45      		sbci r19,hi8(33840001)
 9026 29c0 4440      		sbci r20,hlo8(33840001)
 9027 29c2 5240      		sbci r21,hhi8(33840001)
 9028 29c4 04F0      		brlt .+4
 9029 29c6 0C94 0000 		jmp .L1003
 9030               	.LVL545:
 9031 29ca 0C94 0000 		jmp .L704
 9032               	.LFE89:
 9034               	.global	pwm_frequency
 9035               	.global	pwm_frequency
 9036               		.section .bss
 9039               	pwm_frequency:
 9040 0000 0000      		.skip 2,0
 9041               	.global	signal_count
 9042               	.global	signal_count
 9045               	signal_count:
 9046 0002 00        		.skip 1,0
 9047               	.global	ir_read_time_out
 9048               	.global	ir_read_time_out
 9051               	ir_read_time_out:
 9052 0003 00        		.skip 1,0
 9053               	.global	ir_read_flag
 9054               	.global	ir_read_flag
 9057               	ir_read_flag:
 9058 0004 00        		.skip 1,0
 9059               		.comm bt,14,1
 9060               		.comm aux,14,1
 9061               		.comm BT_data,260,1
 9062               		.comm AUX_data,260,1
 9063               		.comm robotData,240,1
 9064               		.comm startUpCounter,2,1
 9065               		.comm bitCounter,1,1
 9066               		.comm onOffTracker,2,1
 9067               		.comm captured_signal,191,1
 9068               		.comm twiMaster,17,1
 9069               		.comm _acc,4,1
 9750               	.Letext0:
DEFINED SYMBOLS
                            *ABS*:00000000 mainFirmware.c
C:\Users\tlauwers\AppData\Local\Temp/ccQWJqxA.s:2      *ABS*:0000003f __SREG__
C:\Users\tlauwers\AppData\Local\Temp/ccQWJqxA.s:3      *ABS*:0000003e __SP_H__
C:\Users\tlauwers\AppData\Local\Temp/ccQWJqxA.s:4      *ABS*:0000003d __SP_L__
C:\Users\tlauwers\AppData\Local\Temp/ccQWJqxA.s:5      *ABS*:00000034 __CCP__
C:\Users\tlauwers\AppData\Local\Temp/ccQWJqxA.s:6      *ABS*:00000000 __tmp_reg__
C:\Users\tlauwers\AppData\Local\Temp/ccQWJqxA.s:7      *ABS*:00000001 __zero_reg__
C:\Users\tlauwers\AppData\Local\Temp/ccQWJqxA.s:18     .text:00000000 init_clock
C:\Users\tlauwers\AppData\Local\Temp/ccQWJqxA.s:46     .text:00000022 init_led
C:\Users\tlauwers\AppData\Local\Temp/ccQWJqxA.s:95     .text:0000005a set_led
C:\Users\tlauwers\AppData\Local\Temp/ccQWJqxA.s:122    .text:0000006e init_bt_uart
                            *COM*:00000104 BT_data
C:\Users\tlauwers\AppData\Local\Temp/ccQWJqxA.s:185    .text:000000c0 init_aux_uart
                            *COM*:00000104 AUX_data
C:\Users\tlauwers\AppData\Local\Temp/ccQWJqxA.s:255    .text:0000011a set_aux_baud_rate
C:\Users\tlauwers\AppData\Local\Temp/ccQWJqxA.s:281    .text:00000130 uart_putchar
C:\Users\tlauwers\AppData\Local\Temp/ccQWJqxA.s:303    .text:0000013c uart_getchar_nb
C:\Users\tlauwers\AppData\Local\Temp/ccQWJqxA.s:341    .text:00000160 uart_getchar
C:\Users\tlauwers\AppData\Local\Temp/ccQWJqxA.s:385    .text:00000184 uart_getchar_timeout
C:\Users\tlauwers\AppData\Local\Temp/ccQWJqxA.s:490    .text:000001d8 aux_uart_getchar
C:\Users\tlauwers\AppData\Local\Temp/ccQWJqxA.s:521    .text:000001f2 USART_InterruptDriver_Initialize
C:\Users\tlauwers\AppData\Local\Temp/ccQWJqxA.s:546    .text:00000202 USART_RXBufferData_Available
C:\Users\tlauwers\AppData\Local\Temp/ccQWJqxA.s:575    .text:00000216 USART_RXBuffer_GetByte
C:\Users\tlauwers\AppData\Local\Temp/ccQWJqxA.s:604    .text:0000022e USART_RXComplete
C:\Users\tlauwers\AppData\Local\Temp/ccQWJqxA.s:664    .text:0000026c __vector_91
C:\Users\tlauwers\AppData\Local\Temp/ccQWJqxA.s:726    .text:000002bc __vector_25
C:\Users\tlauwers\AppData\Local\Temp/ccQWJqxA.s:788    .text:0000030c init_adc
C:\Users\tlauwers\AppData\Local\Temp/ccQWJqxA.s:866    .text:00000364 read_analog
C:\Users\tlauwers\AppData\Local\Temp/ccQWJqxA.s:907    .text:00000396 read_internal_temperature
C:\Users\tlauwers\AppData\Local\Temp/ccQWJqxA.s:938    .text:000003ba init_ir
C:\Users\tlauwers\AppData\Local\Temp/ccQWJqxA.s:974    .text:000003e0 set_ir50
C:\Users\tlauwers\AppData\Local\Temp/ccQWJqxA.s:1007   .text:000003f6 set_ir100
C:\Users\tlauwers\AppData\Local\Temp/ccQWJqxA.s:1038   .text:00000408 set_ir0
C:\Users\tlauwers\AppData\Local\Temp/ccQWJqxA.s:1067   .text:00000416 set_ir_carrier
C:\Users\tlauwers\AppData\Local\Temp/ccQWJqxA.s:1098   .text:00000424 start_ir_timer
                            *COM*:00000002 startUpCounter
                            *COM*:00000002 onOffTracker
                            *COM*:00000001 bitCounter
C:\Users\tlauwers\AppData\Local\Temp/ccQWJqxA.s:1146   .text:00000458 stop_ir_timer
C:\Users\tlauwers\AppData\Local\Temp/ccQWJqxA.s:1183   .text:0000046c __vector_20
                            *COM*:000000f0 robotData
C:\Users\tlauwers\AppData\Local\Temp/ccQWJqxA.s:1569   .text:000006e0 BT_default_reset
C:\Users\tlauwers\AppData\Local\Temp/ccQWJqxA.s:1677   .text:00000730 BT_reset
C:\Users\tlauwers\AppData\Local\Temp/ccQWJqxA.s:1728   .text:00000754 init_BT
C:\Users\tlauwers\AppData\Local\Temp/ccQWJqxA.s:1765   .text:00000782 TWI_MasterInit
C:\Users\tlauwers\AppData\Local\Temp/ccQWJqxA.s:1799   .text:000007a2 TWI_MasterState
C:\Users\tlauwers\AppData\Local\Temp/ccQWJqxA.s:1820   .text:000007b0 TWI_MasterReady
C:\Users\tlauwers\AppData\Local\Temp/ccQWJqxA.s:1838   .text:000007b8 TWI_MasterWriteRead
C:\Users\tlauwers\AppData\Local\Temp/ccQWJqxA.s:1971   .text:0000085a TWI_MasterRead
C:\Users\tlauwers\AppData\Local\Temp/ccQWJqxA.s:1995   .text:0000086c TWI_MasterWrite
C:\Users\tlauwers\AppData\Local\Temp/ccQWJqxA.s:2014   .text:00000878 TWI_MasterArbitrationLostBusErrorHandler
C:\Users\tlauwers\AppData\Local\Temp/ccQWJqxA.s:2058   .text:000008a2 TWI_MasterWriteHandler
C:\Users\tlauwers\AppData\Local\Temp/ccQWJqxA.s:2163   .text:0000091a TWI_MasterReadHandler
C:\Users\tlauwers\AppData\Local\Temp/ccQWJqxA.s:2261   .text:0000098c TWI_MasterInterruptHandler
C:\Users\tlauwers\AppData\Local\Temp/ccQWJqxA.s:2329   .text:000009d2 TWI_MasterTransactionFinished
C:\Users\tlauwers\AppData\Local\Temp/ccQWJqxA.s:2347   .text:000009da getAccelData
                            *COM*:00000004 _acc
C:\Users\tlauwers\AppData\Local\Temp/ccQWJqxA.s:2364   .text:000009ec newAccelData
                            *COM*:00000011 twiMaster
C:\Users\tlauwers\AppData\Local\Temp/ccQWJqxA.s:2395   .text:00000a10 updateAccel
C:\Users\tlauwers\AppData\Local\Temp/ccQWJqxA.s:2449   .text:00000a68 initAccel
C:\Users\tlauwers\AppData\Local\Temp/ccQWJqxA.s:2654   .text:00000ba2 __vector_46
C:\Users\tlauwers\AppData\Local\Temp/ccQWJqxA.s:2703   .text:00000bee init_dac
C:\Users\tlauwers\AppData\Local\Temp/ccQWJqxA.s:2763   .text:00000c36 set_dac0
C:\Users\tlauwers\AppData\Local\Temp/ccQWJqxA.s:2791   .text:00000c52 set_dac1
C:\Users\tlauwers\AppData\Local\Temp/ccQWJqxA.s:2819   .text:00000c6e disable_dac0
C:\Users\tlauwers\AppData\Local\Temp/ccQWJqxA.s:2837   .text:00000c7a disable_dac1
C:\Users\tlauwers\AppData\Local\Temp/ccQWJqxA.s:2855   .text:00000c86 init_buzzer
C:\Users\tlauwers\AppData\Local\Temp/ccQWJqxA.s:2885   .text:00000ca4 set_buzzer
C:\Users\tlauwers\AppData\Local\Temp/ccQWJqxA.s:2922   .text:00000cbc turn_off_buzzer
C:\Users\tlauwers\AppData\Local\Temp/ccQWJqxA.s:2946   .text:00000cd2 set_pwm
C:\Users\tlauwers\AppData\Local\Temp/ccQWJqxA.s:9039   .bss:00000000 pwm_frequency
C:\Users\tlauwers\AppData\Local\Temp/ccQWJqxA.s:2973   .text:00000cee turn_off_pwm0
C:\Users\tlauwers\AppData\Local\Temp/ccQWJqxA.s:2991   .text:00000cfa turn_off_pwm1
C:\Users\tlauwers\AppData\Local\Temp/ccQWJqxA.s:3009   .text:00000d06 set_pwm0
C:\Users\tlauwers\AppData\Local\Temp/ccQWJqxA.s:3042   .text:00000d2a set_pwm1
C:\Users\tlauwers\AppData\Local\Temp/ccQWJqxA.s:3075   .text:00000d4e set_output
C:\Users\tlauwers\AppData\Local\Temp/ccQWJqxA.s:3258   .text:00000e1c read_input
C:\Users\tlauwers\AppData\Local\Temp/ccQWJqxA.s:3503   .text:00000f74 init_ir_read
C:\Users\tlauwers\AppData\Local\Temp/ccQWJqxA.s:9057   .bss:00000004 ir_read_flag
C:\Users\tlauwers\AppData\Local\Temp/ccQWJqxA.s:9045   .bss:00000002 signal_count
C:\Users\tlauwers\AppData\Local\Temp/ccQWJqxA.s:9051   .bss:00000003 ir_read_time_out
C:\Users\tlauwers\AppData\Local\Temp/ccQWJqxA.s:3569   .text:00000fd0 ir_fail
C:\Users\tlauwers\AppData\Local\Temp/ccQWJqxA.s:3619   .text:00001000 disable_ir_read
C:\Users\tlauwers\AppData\Local\Temp/ccQWJqxA.s:3645   .text:00001014 dump_data
                            *COM*:000000bf captured_signal
C:\Users\tlauwers\AppData\Local\Temp/ccQWJqxA.s:3714   .text:0000105e __vector_47
C:\Users\tlauwers\AppData\Local\Temp/ccQWJqxA.s:3782   .text:000010ce __vector_49
C:\Users\tlauwers\AppData\Local\Temp/ccQWJqxA.s:3897   .text:0000119e read_data_from_serial
C:\Users\tlauwers\AppData\Local\Temp/ccQWJqxA.s:4003   .text:0000121a EEPROM_ReadByte
C:\Users\tlauwers\AppData\Local\Temp/ccQWJqxA.s:4082   .text:00001274 print_data_from_eeprom
C:\Users\tlauwers\AppData\Local\Temp/ccQWJqxA.s:4240   .text:0000133c read_data_from_eeprom
C:\Users\tlauwers\AppData\Local\Temp/ccQWJqxA.s:4407   .text:00001422 EEPROM_WaitForNVM
C:\Users\tlauwers\AppData\Local\Temp/ccQWJqxA.s:4424   .text:0000142c EEPROM_FlushBuffer
C:\Users\tlauwers\AppData\Local\Temp/ccQWJqxA.s:4473   .text:00001462 EEPROM_WriteByte
C:\Users\tlauwers\AppData\Local\Temp/ccQWJqxA.s:4561   .text:000014cc write_data_to_eeprom
C:\Users\tlauwers\AppData\Local\Temp/ccQWJqxA.s:4709   .text:000015a6 EEPROM_LoadByte
C:\Users\tlauwers\AppData\Local\Temp/ccQWJqxA.s:4746   .text:000015c4 EEPROM_LoadPage
C:\Users\tlauwers\AppData\Local\Temp/ccQWJqxA.s:4793   .text:000015ec EEPROM_AtomicWritePage
C:\Users\tlauwers\AppData\Local\Temp/ccQWJqxA.s:4862   .text:00001636 EEPROM_ErasePage
C:\Users\tlauwers\AppData\Local\Temp/ccQWJqxA.s:4931   .text:00001680 EEPROM_SplitWritePage
C:\Users\tlauwers\AppData\Local\Temp/ccQWJqxA.s:5000   .text:000016ca EEPROM_EraseAll
C:\Users\tlauwers\AppData\Local\Temp/ccQWJqxA.s:5046   .text:000016f8 main
                            *COM*:0000000e bt
                            *COM*:0000000e aux

UNDEFINED SYMBOLS
__divmodhi4
__do_clear_bss
